

Microchip MPLAB XC8 Assembler V2.10 build 88905656 
                                                                                               Thu Nov 07 11:13:42 2019

Microchip MPLAB XC8 C Compiler v2.10 (Free license) build 20190730164152 Og1 
     1                           	processor	18F46K22
     2                           	fnconf	rparam,??,?,0
     3                           	opt	pw 120
     4                           	opt	flic
     5                           	psect	nvBANK0,global,class=BANK0,space=1,delta=1,lowdata,noexec
     6                           	psect	smallconst,global,reloc=2,class=SMALLCONST,delta=1,noexec
     7                           	psect	cinit,global,reloc=2,class=CODE,delta=1
     8                           	psect	bssCOMRAM,global,class=COMRAM,space=1,delta=1,noexec
     9                           	psect	bssBANK0,global,class=BANK0,space=1,delta=1,lowdata,noexec
    10                           	psect	cstackBANK0,global,class=BANK0,space=1,delta=1,noexec
    11                           	psect	cstackCOMRAM,global,class=COMRAM,space=1,delta=1,noexec
    12                           	psect	text0,global,reloc=2,class=CODE,delta=1
    13                           	psect	text1,global,reloc=2,class=CODE,delta=1,group=2
    14                           	psect	text2,global,reloc=2,class=CODE,delta=1
    15                           	psect	text3,global,reloc=2,class=CODE,delta=1
    16                           	psect	text4,global,reloc=2,class=CODE,delta=1
    17                           	psect	text5,global,reloc=2,class=CODE,delta=1
    18                           	psect	text6,global,reloc=2,class=CODE,delta=1,group=2
    19                           	psect	text7,global,reloc=2,class=CODE,delta=1,group=2
    20                           	psect	text8,global,reloc=2,class=CODE,delta=1,group=2
    21                           	psect	text9,global,reloc=2,class=CODE,delta=1
    22                           	psect	text10,global,reloc=2,class=CODE,delta=1
    23                           	psect	text11,global,reloc=2,class=CODE,delta=1,group=2
    24                           	psect	text12,global,reloc=2,class=CODE,delta=1,group=1
    25                           	psect	text13,global,reloc=2,class=CODE,delta=1,group=1
    26                           	psect	text14,global,reloc=2,class=CODE,delta=1
    27                           	psect	text15,global,reloc=2,class=CODE,delta=1
    28                           	psect	text16,global,reloc=2,class=CODE,delta=1
    29                           	psect	text17,global,reloc=2,class=CODE,delta=1
    30                           	psect	text18,global,reloc=2,class=CODE,delta=1
    31                           	psect	text19,global,reloc=2,class=CODE,delta=1
    32                           	psect	text20,global,reloc=2,class=CODE,delta=1
    33                           	psect	text21,global,reloc=2,class=CODE,delta=1
    34                           	psect	text22,global,reloc=2,class=CODE,delta=1
    35                           	psect	text23,global,reloc=2,class=CODE,delta=1
    36                           	psect	text24,global,reloc=2,class=CODE,delta=1
    37                           	psect	text25,global,reloc=2,class=CODE,delta=1
    38                           	psect	text26,global,reloc=2,class=CODE,delta=1
    39                           	psect	text27,global,reloc=2,class=CODE,delta=1
    40                           	psect	text28,global,reloc=2,class=CODE,delta=1,inline
    41                           	psect	text29,global,reloc=2,class=CODE,delta=1
    42                           	psect	intcode,global,reloc=2,class=CODE,delta=1
    43                           	psect	text31,global,reloc=2,class=CODE,delta=1
    44                           	psect	text32,global,reloc=2,class=CODE,delta=1
    45                           	psect	text33,global,reloc=2,class=CODE,delta=1
    46                           	psect	text34,global,reloc=2,class=CODE,delta=1
    47                           	psect	intsave_regs,global,class=BIGRAM,space=1,delta=1,noexec
    48                           	psect	rparam,global,class=COMRAM,space=1,delta=1,noexec
    49                           	psect	temp,global,ovrld,common,class=COMRAM,space=1,delta=1
    50  0000                     
    51                           ; Version 2.10
    52                           ; Generated 31/07/2019 GMT
    53                           ; 
    54                           ; Copyright © 2019, Microchip Technology Inc. and its subsidiaries ("Microchip")
    55                           ; All rights reserved.
    56                           ; 
    57                           ; This software is developed by Microchip Technology Inc. and its subsidiaries ("Microch
      +                          ip").
    58                           ; 
    59                           ; Redistribution and use in source and binary forms, with or without modification, are
    60                           ; permitted provided that the following conditions are met:
    61                           ; 
    62                           ;     1. Redistributions of source code must retain the above copyright notice, this lis
      +                          t of
    63                           ;        conditions and the following disclaimer.
    64                           ; 
    65                           ;     2. Redistributions in binary form must reproduce the above copyright notice, this 
      +                          list
    66                           ;        of conditions and the following disclaimer in the documentation and/or other
    67                           ;        materials provided with the distribution.
    68                           ; 
    69                           ;     3. Microchip's name may not be used to endorse or promote products derived from th
      +                          is
    70                           ;        software without specific prior written permission.
    71                           ; 
    72                           ; THIS SOFTWARE IS PROVIDED BY MICROCHIP "AS IS" AND ANY EXPRESS OR IMPLIED WARRANTIES,
    73                           ; INCLUDING, BUT NOT LIMITED TO, THE IMPLIED WARRANTIES OF MERCHANTABILITY AND FITNESS F
      +                          OR
    74                           ; PURPOSE ARE DISCLAIMED.  IN NO EVENT SHALL MICROCHIP BE LIABLE FOR ANY DIRECT, INDIREC
      +                          T,
    75                           ; INCIDENTAL, SPECIAL, EXEMPLARY, OR CONSEQUENTIAL DAMAGES (INCLUDING BUT NOT LIMITED TO
    76                           ; PROCUREMENT OF SUBSTITUTE GOODS OR SERVICES; LOSS OF USE, DATA OR PROFITS; OR BUSINESS
    77                           ; INTERRUPTION) HOWSOEVER CAUSED AND ON ANY THEORY OF LIABILITY, WHETHER IN CONTRACT, ST
      +                          RICT
    78                           ; LIABILITY, OR TORT (INCLUDING NEGLIGENCE OR OTHERWISE) ARISING IN ANY WAY OUT OF THE U
      +                          SE OF
    79                           ; THIS SOFTWARE, EVEN IF ADVISED OF THE POSSIBILITY OF SUCH DAMAGE.
    80                           ; 
    81                           ; 
    82                           ; Code-generator required, PIC18F46K22 Definitions
    83                           ; 
    84                           ; SFR Addresses
    85  0000                     
    86 ;; Function _EUSART1_DefaultFramingErrorHandler is unused but had its address taken
    87  0000                     
    88 ;; Function _EUSART1_DefaultOverrunErrorHandler is unused but had its address taken
    89  0000                     
    90 ;; Function _EUSART1_DefaultErrorHandler is unused but had its address taken
    91  0000                     
    92                           	psect	nvBANK0
    93  0000C0                     __pnvBANK0:
    94                           	opt callstack 0
    95  0000C0                     _EUSART1_ErrorHandler:
    96                           	opt callstack 0
    97  0000C0                     	ds	2
    98  0000C2                     _EUSART1_OverrunErrorHandler:
    99                           	opt callstack 0
   100  0000C2                     	ds	2
   101  0000C4                     _EUSART1_FramingErrorHandler:
   102                           	opt callstack 0
   103  0000C4                     	ds	2
   104  0000                     _ANSELA	set	3896
   105  0000                     _ANSELE	set	3900
   106  0000                     _ANSELB	set	3897
   107  0000                     _ANSELC	set	3898
   108  0000                     _ANSELD	set	3899
   109  0000                     _TXREG1	set	4013
   110  0000                     _RCREG1	set	4014
   111  0000                     _RCSTA1bits	set	4011
   112  0000                     _TXSTA1bits	set	4012
   113  0000                     _SPBRGH1	set	4016
   114  0000                     _SPBRG1	set	4015
   115  0000                     _TXSTA1	set	4012
   116  0000                     _RCSTA1	set	4011
   117  0000                     _BAUDCON1	set	4024
   118  0000                     _INTCON2bits	set	4081
   119  0000                     _WPUB	set	3937
   120  0000                     _TRISD	set	3989
   121  0000                     _TRISC	set	3988
   122  0000                     _TRISB	set	3987
   123  0000                     _TRISA	set	3986
   124  0000                     _TRISE	set	3990
   125  0000                     _LATC	set	3979
   126  0000                     _LATB	set	3978
   127  0000                     _LATA	set	3977
   128  0000                     _LATD	set	3980
   129  0000                     _LATE	set	3981
   130  0000                     _SSP1BUF	set	4041
   131  0000                     _SSP1CON2bits	set	4037
   132  0000                     _SSP1CON1bits	set	4038
   133  0000                     _SSP1ADD	set	4040
   134  0000                     _SSP1CON3	set	4043
   135  0000                     _SSP1CON1	set	4038
   136  0000                     _SSP1STAT	set	4039
   137  0000                     _OSCTUNE	set	3995
   138  0000                     _OSCCON2	set	4050
   139  0000                     _OSCCON	set	4051
   140  0000                     _PIR1bits	set	3998
   141  0000                     _PIE1bits	set	3997
   142  0000                     _PIR2bits	set	4001
   143  0000                     _PIE2bits	set	4000
   144  0000                     _RCONbits	set	4048
   145  0000                     _INTCONbits	set	4082
   146                           
   147                           	psect	smallconst
   148  001000                     __psmallconst:
   149                           	opt callstack 0
   150  001000  00                 	db	0
   151  001001                     STR_1:
   152  001001  54                 	db	84	;'T'
   153  001002  65                 	db	101	;'e'
   154  001003  6D                 	db	109	;'m'
   155  001004  70                 	db	112	;'p'
   156  001005  65                 	db	101	;'e'
   157  001006  72                 	db	114	;'r'
   158  001007  61                 	db	97	;'a'
   159  001008  74                 	db	116	;'t'
   160  001009  75                 	db	117	;'u'
   161  00100A  72                 	db	114	;'r'
   162  00100B  65                 	db	101	;'e'
   163  00100C  3D                 	db	61	;'='
   164  00100D  20                 	db	32
   165  00100E  25                 	db	37
   166  00100F  64                 	db	100	;'d'
   167  001010  20                 	db	32
   168  001011  43                 	db	67	;'C'
   169  001012  0D                 	db	13
   170  001013  0A                 	db	10
   171  001014  00                 	db	0
   172                           
   173                           ; #config settings
   174  001015  00                 	db	0	; dummy byte at the end
   175  0000                     
   176                           	psect	cinit
   177  002118                     __pcinit:
   178                           	opt callstack 0
   179  002118                     start_initialization:
   180                           	opt callstack 0
   181  002118                     __initialization:
   182                           	opt callstack 0
   183                           
   184                           ; Clear objects allocated to BANK0 (68 bytes)
   185  002118  EE00  F060         	lfsr	0,__pbssBANK0
   186  00211C  0E44               	movlw	68
   187  00211E                     clear_0:
   188  00211E  6AEE               	clrf	postinc0,c
   189  002120  06E8               	decf	wreg,f,c
   190  002122  E1FD               	bnz	clear_0
   191                           
   192                           ; Clear objects allocated to COMRAM (8 bytes)
   193  002124  EE00  F04F         	lfsr	0,__pbssCOMRAM
   194  002128  0E08               	movlw	8
   195  00212A                     clear_1:
   196  00212A  6AEE               	clrf	postinc0,c
   197  00212C  06E8               	decf	wreg,f,c
   198  00212E  E1FD               	bnz	clear_1
   199  002130                     end_of_initialization:
   200                           	opt callstack 0
   201  002130                     __end_of__initialization:
   202                           	opt callstack 0
   203  002130  9057               	bcf	int$flags,0,c	;clear compiler interrupt flag (level 1)
   204  002132  9257               	bcf	int$flags,1,c	;clear compiler interrupt flag (level 2)
   205  002134  0100               	movlb	0
   206  002136  EF56  F00F         	goto	_main	;jump to C main() function
   207                           
   208                           	psect	bssCOMRAM
   209  00004F                     __pbssCOMRAM:
   210                           	opt callstack 0
   211  00004F                     _flags:
   212                           	opt callstack 0
   213  00004F                     	ds	2
   214  000051                     I2C1_ISR@i2c_10bit_address_restart:
   215                           	opt callstack 0
   216  000051                     	ds	1
   217  000052                     I2C1_ISR@i2c_bytes_left:
   218                           	opt callstack 0
   219  000052                     	ds	1
   220  000053                     _i2c1_trb_count:
   221                           	opt callstack 0
   222  000053                     	ds	1
   223  000054                     _i2c1_state:
   224                           	opt callstack 0
   225  000054                     	ds	1
   226  000055                     I2C1_ISR@i2c_address:
   227                           	opt callstack 0
   228  000055                     	ds	2
   229                           
   230                           	psect	bssBANK0
   231  000060                     __pbssBANK0:
   232                           	opt callstack 0
   233  000060                     _i2c1_object:
   234                           	opt callstack 0
   235  000060                     	ds	7
   236  000067                     _nout:
   237                           	opt callstack 0
   238  000067                     	ds	2
   239  000069                     _width:
   240                           	opt callstack 0
   241  000069                     	ds	2
   242  00006B                     _prec:
   243                           	opt callstack 0
   244  00006B                     	ds	2
   245  00006D                     I2C1_ISR@pi2c_buf_ptr:
   246                           	opt callstack 0
   247  00006D                     	ds	2
   248  00006F                     _p_i2c1_current:
   249                           	opt callstack 0
   250  00006F                     	ds	2
   251  000071                     _p_i2c1_trb_current:
   252                           	opt callstack 0
   253  000071                     	ds	2
   254  000073                     _eusart1RxLastError:
   255                           	opt callstack 0
   256  000073                     	ds	1
   257  000074                     _tempSign:
   258                           	opt callstack 0
   259  000074                     	ds	1
   260  000075                     _dbuf:
   261                           	opt callstack 0
   262  000075                     	ds	32
   263  000095                     I2C1_MasterRead@trBlock:
   264                           	opt callstack 0
   265  000095                     	ds	5
   266  00009A                     I2C1_MasterWrite@trBlock:
   267                           	opt callstack 0
   268  00009A                     	ds	5
   269  00009F                     _i2c1_tr_queue:
   270                           	opt callstack 0
   271  00009F                     	ds	5
   272                           
   273                           	psect	cstackBANK0
   274  0000A4                     __pcstackBANK0:
   275                           	opt callstack 0
   276  0000A4                     ??_vfpfcnvrt:
   277                           
   278                           ; 1 bytes @ 0x0
   279  0000A4                     	ds	2
   280  0000A6                     vfpfcnvrt@ll:
   281                           	opt callstack 0
   282                           
   283                           ; 8 bytes @ 0x2
   284  0000A6                     	ds	8
   285  0000AE                     ?_vfprintf:
   286                           	opt callstack 0
   287  0000AE                     vfprintf@fp:
   288                           	opt callstack 0
   289                           
   290                           ; 2 bytes @ 0xA
   291  0000AE                     	ds	2
   292  0000B0                     vfprintf@fmt:
   293                           	opt callstack 0
   294                           
   295                           ; 2 bytes @ 0xC
   296  0000B0                     	ds	2
   297  0000B2                     vfprintf@ap:
   298                           	opt callstack 0
   299                           
   300                           ; 2 bytes @ 0xE
   301  0000B2                     	ds	2
   302  0000B4                     vfprintf@cfmt:
   303                           	opt callstack 0
   304                           
   305                           ; 2 bytes @ 0x10
   306  0000B4                     	ds	2
   307  0000B6                     ?_printf:
   308                           	opt callstack 0
   309  0000B6                     printf@fmt:
   310                           	opt callstack 0
   311                           
   312                           ; 2 bytes @ 0x12
   313  0000B6                     	ds	6
   314  0000BC                     printf@ap:
   315                           	opt callstack 0
   316                           
   317                           ; 2 bytes @ 0x18
   318  0000BC                     	ds	2
   319  0000BE                     ??_main:
   320                           
   321                           ; 1 bytes @ 0x1A
   322  0000BE                     	ds	2
   323                           
   324                           	psect	cstackCOMRAM
   325  000001                     __pcstackCOMRAM:
   326                           	opt callstack 0
   327  000001                     ??_I2C1_Stop:
   328  000001                     
   329                           ; 1 bytes @ 0x0
   330  000001                     	ds	2
   331  000003                     I2C1_Stop@completion_code:
   332                           	opt callstack 0
   333                           
   334                           ; 1 bytes @ 0x2
   335  000003                     	ds	1
   336  000004                     ??_I2C1_ISR:
   337                           
   338                           ; 1 bytes @ 0x3
   339  000004                     	ds	2
   340  000006                     ??_INTERRUPT_InterruptManager:
   341                           
   342                           ; 1 bytes @ 0x5
   343  000006                     	ds	2
   344  000008                     ?_strlen:
   345                           	opt callstack 0
   346  000008                     ?___aodiv:
   347                           	opt callstack 0
   348  000008                     ?___aomod:
   349                           	opt callstack 0
   350  000008                     EUSART1_Write@txData:
   351                           	opt callstack 0
   352  000008                     I2C1_MasterTRBInsert@ptrb_list:
   353                           	opt callstack 0
   354  000008                     I2C1_MasterReadTRBBuild@ptrb:
   355                           	opt callstack 0
   356  000008                     I2C1_MasterWriteTRBBuild@ptrb:
   357                           	opt callstack 0
   358  000008                     EUSART1_SetFramingErrorHandler@interruptHandler:
   359                           	opt callstack 0
   360  000008                     EUSART1_SetOverrunErrorHandler@interruptHandler:
   361                           	opt callstack 0
   362  000008                     EUSART1_SetErrorHandler@interruptHandler:
   363                           	opt callstack 0
   364  000008                     strlen@s:
   365                           	opt callstack 0
   366  000008                     ___aodiv@dividend:
   367                           	opt callstack 0
   368  000008                     ___aomod@dividend:
   369                           	opt callstack 0
   370                           
   371                           ; 8 bytes @ 0x7
   372  000008                     	ds	1
   373  000009                     putch@txData:
   374                           	opt callstack 0
   375                           
   376                           ; 1 bytes @ 0x8
   377  000009                     	ds	1
   378  00000A                     I2C1_MasterTRBInsert@pflag:
   379                           	opt callstack 0
   380  00000A                     I2C1_MasterReadTRBBuild@pdata:
   381                           	opt callstack 0
   382  00000A                     I2C1_MasterWriteTRBBuild@pdata:
   383                           	opt callstack 0
   384  00000A                     fputc@c:
   385                           	opt callstack 0
   386  00000A                     strlen@a:
   387                           	opt callstack 0
   388                           
   389                           ; 2 bytes @ 0x9
   390  00000A                     	ds	2
   391  00000C                     I2C1_MasterReadTRBBuild@length:
   392                           	opt callstack 0
   393  00000C                     I2C1_MasterWriteTRBBuild@length:
   394                           	opt callstack 0
   395  00000C                     fputc@fp:
   396                           	opt callstack 0
   397                           
   398                           ; 2 bytes @ 0xB
   399  00000C                     	ds	1
   400  00000D                     I2C1_MasterTRBInsert@count:
   401                           	opt callstack 0
   402  00000D                     I2C1_MasterReadTRBBuild@address:
   403                           	opt callstack 0
   404  00000D                     I2C1_MasterWriteTRBBuild@address:
   405                           	opt callstack 0
   406                           
   407                           ; 2 bytes @ 0xC
   408  00000D                     	ds	1
   409  00000E                     ??_fputc:
   410                           
   411                           ; 1 bytes @ 0xD
   412  00000E                     	ds	1
   413  00000F                     ??_I2C1_MasterWriteTRBBuild:
   414  00000F                     ??_I2C1_MasterReadTRBBuild:
   415                           
   416                           ; 1 bytes @ 0xE
   417  00000F                     	ds	1
   418  000010                     ___aodiv@divisor:
   419                           	opt callstack 0
   420  000010                     ___aomod@divisor:
   421                           	opt callstack 0
   422                           
   423                           ; 8 bytes @ 0xF
   424  000010                     	ds	1
   425  000011                     I2C1_MasterWrite@pdata:
   426                           	opt callstack 0
   427  000011                     I2C1_MasterRead@pdata:
   428                           	opt callstack 0
   429                           
   430                           ; 2 bytes @ 0x10
   431  000011                     	ds	2
   432  000013                     I2C1_MasterWrite@length:
   433                           	opt callstack 0
   434  000013                     I2C1_MasterRead@length:
   435                           	opt callstack 0
   436  000013                     fputs@s:
   437                           	opt callstack 0
   438                           
   439                           ; 2 bytes @ 0x12
   440  000013                     	ds	1
   441  000014                     I2C1_MasterWrite@address:
   442                           	opt callstack 0
   443  000014                     I2C1_MasterRead@address:
   444                           	opt callstack 0
   445                           
   446                           ; 2 bytes @ 0x13
   447  000014                     	ds	1
   448  000015                     fputs@fp:
   449                           	opt callstack 0
   450                           
   451                           ; 2 bytes @ 0x14
   452  000015                     	ds	1
   453  000016                     I2C1_MasterWrite@pflag:
   454                           	opt callstack 0
   455  000016                     I2C1_MasterRead@pflag:
   456                           	opt callstack 0
   457                           
   458                           ; 2 bytes @ 0x15
   459  000016                     	ds	1
   460  000017                     fputs@c:
   461                           	opt callstack 0
   462                           
   463                           ; 1 bytes @ 0x16
   464  000017                     	ds	1
   465  000018                     ReadTemperature@TC_74:
   466                           	opt callstack 0
   467  000018                     ___aodiv@counter:
   468                           	opt callstack 0
   469  000018                     ___aomod@counter:
   470                           	opt callstack 0
   471  000018                     fputs@i:
   472                           	opt callstack 0
   473                           
   474                           ; 2 bytes @ 0x17
   475  000018                     	ds	1
   476  000019                     ReadTemperature@readtemp:
   477                           	opt callstack 0
   478  000019                     ___aodiv@sign:
   479                           	opt callstack 0
   480  000019                     ___aomod@sign:
   481                           	opt callstack 0
   482                           
   483                           ; 1 bytes @ 0x18
   484  000019                     	ds	1
   485  00001A                     ?_abs:
   486                           	opt callstack 0
   487  00001A                     ?_pad:
   488                           	opt callstack 0
   489  00001A                     ReadTemperature@status:
   490                           	opt callstack 0
   491  00001A                     pad@fp:
   492                           	opt callstack 0
   493  00001A                     abs@a:
   494                           	opt callstack 0
   495  00001A                     ___aodiv@quotient:
   496                           	opt callstack 0
   497                           
   498                           ; 8 bytes @ 0x19
   499  00001A                     	ds	2
   500  00001C                     ??_abs:
   501  00001C                     pad@buf:
   502                           	opt callstack 0
   503                           
   504                           ; 2 bytes @ 0x1B
   505  00001C                     	ds	2
   506  00001E                     pad@p:
   507                           	opt callstack 0
   508                           
   509                           ; 2 bytes @ 0x1D
   510  00001E                     	ds	2
   511  000020                     ??_pad:
   512                           
   513                           ; 1 bytes @ 0x1F
   514  000020                     	ds	1
   515  000021                     pad@i:
   516                           	opt callstack 0
   517                           
   518                           ; 2 bytes @ 0x20
   519  000021                     	ds	2
   520  000023                     pad@w:
   521                           	opt callstack 0
   522                           
   523                           ; 2 bytes @ 0x22
   524  000023                     	ds	2
   525  000025                     ?_dtoa:
   526                           	opt callstack 0
   527  000025                     dtoa@fp:
   528                           	opt callstack 0
   529                           
   530                           ; 2 bytes @ 0x24
   531  000025                     	ds	2
   532  000027                     dtoa@d:
   533                           	opt callstack 0
   534                           
   535                           ; 8 bytes @ 0x26
   536  000027                     	ds	8
   537  00002F                     ??_dtoa:
   538                           
   539                           ; 1 bytes @ 0x2E
   540  00002F                     	ds	8
   541  000037                     _dtoa$1193:
   542                           	opt callstack 0
   543                           
   544                           ; 2 bytes @ 0x36
   545  000037                     	ds	2
   546  000039                     dtoa@p:
   547                           	opt callstack 0
   548                           
   549                           ; 2 bytes @ 0x38
   550  000039                     	ds	2
   551  00003B                     dtoa@w:
   552                           	opt callstack 0
   553                           
   554                           ; 2 bytes @ 0x3A
   555  00003B                     	ds	2
   556  00003D                     dtoa@s:
   557                           	opt callstack 0
   558                           
   559                           ; 2 bytes @ 0x3C
   560  00003D                     	ds	2
   561  00003F                     dtoa@n:
   562                           	opt callstack 0
   563                           
   564                           ; 8 bytes @ 0x3E
   565  00003F                     	ds	8
   566  000047                     dtoa@i:
   567                           	opt callstack 0
   568                           
   569                           ; 2 bytes @ 0x46
   570  000047                     	ds	2
   571  000049                     ?_vfpfcnvrt:
   572                           	opt callstack 0
   573  000049                     vfpfcnvrt@fp:
   574                           	opt callstack 0
   575                           
   576                           ; 2 bytes @ 0x48
   577  000049                     	ds	2
   578  00004B                     vfpfcnvrt@fmt:
   579                           	opt callstack 0
   580                           
   581                           ; 2 bytes @ 0x4A
   582  00004B                     	ds	2
   583  00004D                     vfpfcnvrt@ap:
   584                           	opt callstack 0
   585                           
   586                           ; 2 bytes @ 0x4C
   587  00004D                     	ds	2
   588  00004F                     
   589                           ; 1 bytes @ 0x4E
   590 ;;
   591 ;;Main: autosize = 0, tempsize = 2, incstack = 0, save=0
   592 ;;
   593 ;; *************** function _main *****************
   594 ;; Defined at:
   595 ;;		line 75 in file "main.c"
   596 ;; Parameters:    Size  Location     Type
   597 ;;		None
   598 ;; Auto vars:     Size  Location     Type
   599 ;;		None
   600 ;; Return value:  Size  Location     Type
   601 ;;                  1    wreg      void 
   602 ;; Registers used:
   603 ;;		wreg, fsr1l, fsr1h, fsr2l, fsr2h, status,2, status,0, tblptrl, tblptrh, tblptru, cstack
   604 ;; Tracked objects:
   605 ;;		On entry : 0/0
   606 ;;		On exit  : 0/0
   607 ;;		Unchanged: 0/0
   608 ;; Data sizes:     COMRAM   BANK0   BANK1   BANK2   BANK3   BANK4   BANK5   BANK6   BANK7   BANK8   BANK9  BANK10  BANK1
      +1  BANK12  BANK13  BANK14  BANK15
   609 ;;      Params:         0       0       0       0       0       0       0       0       0       0       0       0       
      +0       0       0       0       0
   610 ;;      Locals:         0       0       0       0       0       0       0       0       0       0       0       0       
      +0       0       0       0       0
   611 ;;      Temps:          0       2       0       0       0       0       0       0       0       0       0       0       
      +0       0       0       0       0
   612 ;;      Totals:         0       2       0       0       0       0       0       0       0       0       0       0       
      +0       0       0       0       0
   613 ;;Total ram usage:        2 bytes
   614 ;; Hardware stack levels required when called:   12
   615 ;; This function calls:
   616 ;;		_ReadTemperature
   617 ;;		_SYSTEM_Initialize
   618 ;;		_printf
   619 ;; This function is called by:
   620 ;;		Startup code after reset
   621 ;; This function uses a non-reentrant model
   622 ;;
   623                           
   624                           	psect	text0
   625  001EAC                     __ptext0:
   626                           	opt callstack 0
   627  001EAC                     _main:
   628                           	opt callstack 19
   629  001EAC                     
   630                           ;main.c: 78:     SYSTEM_Initialize();
   631  001EAC  ECB7  F010         	call	_SYSTEM_Initialize	;wreg free
   632  001EB0                     
   633                           ;main.c: 85:     (INTCONbits.GIE = 1);
   634  001EB0  8EF2               	bsf	242,7,c	;volatile
   635  001EB2                     
   636                           ;main.c: 91:     (INTCONbits.PEIE = 1);
   637  001EB2  8CF2               	bsf	242,6,c	;volatile
   638  001EB4                     l2465:
   639                           
   640                           ;main.c: 97:     {;main.c: 98:         ReadTemperature();
   641  001EB4  EC6E  F00E         	call	_ReadTemperature	;wreg free
   642  001EB8                     
   643                           ;main.c: 101:              printf("Temperature= %d C\r\n", ReadTemperature());
   644  001EB8  0E01               	movlw	low STR_1
   645  001EBA  0100               	movlb	0	; () banked
   646  001EBC  6FB6               	movwf	printf@fmt& (0+255),b
   647  001EBE  0E10               	movlw	high STR_1
   648  001EC0  6FB7               	movwf	(printf@fmt+1)& (0+255),b
   649  001EC2  EC6E  F00E         	call	_ReadTemperature	;wreg free
   650  001EC6  0100               	movlb	0	; () banked
   651  001EC8  6FBE               	movwf	??_main& (0+255),b
   652  001ECA  51BE               	movf	??_main& (0+255),w,b
   653  001ECC  6FB8               	movwf	(?_printf+2)& (0+255),b
   654  001ECE  6BB9               	clrf	(?_printf+3)& (0+255),b
   655  001ED0  EC78  F010         	call	_printf	;wreg free
   656  001ED4                     
   657                           ;main.c: 111:         _delay((unsigned long)((500)*(8000000/4000.0)));
   658  001ED4  0E06               	movlw	6
   659  001ED6  0100               	movlb	0	; () banked
   660  001ED8  6FBF               	movwf	(??_main+1)& (0+255),b
   661  001EDA  0E13               	movlw	19
   662  001EDC  6FBE               	movwf	??_main& (0+255),b
   663  001EDE  0EAD               	movlw	173
   664  001EE0                     u1587:
   665  001EE0  2EE8               	decfsz	wreg,f,c
   666  001EE2  D7FE               	bra	u1587
   667  001EE4  2FBE               	decfsz	??_main& (0+255),f,b
   668  001EE6  D7FC               	bra	u1587
   669  001EE8  2FBF               	decfsz	(??_main+1)& (0+255),f,b
   670  001EEA  D7FA               	bra	u1587
   671  001EEC  D000               	nop2	
   672  001EEE  EF5A  F00F         	goto	l2465
   673  001EF2  EF3A  F000         	goto	start
   674  001EF6                     __end_of_main:
   675                           	opt callstack 0
   676                           
   677 ;; *************** function _printf *****************
   678 ;; Defined at:
   679 ;;		line 5 in file "C:\Program Files (x86)\Microchip\xc8\v2.10\pic\sources\c99\common\printf.c"
   680 ;; Parameters:    Size  Location     Type
   681 ;;  fmt             2   18[BANK0 ] PTR const unsigned char 
   682 ;;		 -> STR_1(20), 
   683 ;; Auto vars:     Size  Location     Type
   684 ;;  ap              2   24[BANK0 ] PTR void [1]
   685 ;;		 -> ?_printf(2), 
   686 ;;  ret             2    0        int 
   687 ;; Return value:  Size  Location     Type
   688 ;;                  2   18[BANK0 ] int 
   689 ;; Registers used:
   690 ;;		wreg, fsr1l, fsr1h, fsr2l, fsr2h, status,2, status,0, tblptrl, tblptrh, tblptru, cstack
   691 ;; Tracked objects:
   692 ;;		On entry : 0/0
   693 ;;		On exit  : 0/0
   694 ;;		Unchanged: 0/0
   695 ;; Data sizes:     COMRAM   BANK0   BANK1   BANK2   BANK3   BANK4   BANK5   BANK6   BANK7   BANK8   BANK9  BANK10  BANK1
      +1  BANK12  BANK13  BANK14  BANK15
   696 ;;      Params:         0       4       0       0       0       0       0       0       0       0       0       0       
      +0       0       0       0       0
   697 ;;      Locals:         0       4       0       0       0       0       0       0       0       0       0       0       
      +0       0       0       0       0
   698 ;;      Temps:          0       0       0       0       0       0       0       0       0       0       0       0       
      +0       0       0       0       0
   699 ;;      Totals:         0       8       0       0       0       0       0       0       0       0       0       0       
      +0       0       0       0       0
   700 ;;Total ram usage:        8 bytes
   701 ;; Hardware stack levels used:    1
   702 ;; Hardware stack levels required when called:   11
   703 ;; This function calls:
   704 ;;		_vfprintf
   705 ;; This function is called by:
   706 ;;		_main
   707 ;; This function uses a non-reentrant model
   708 ;;
   709                           
   710                           	psect	text1
   711  0020F0                     __ptext1:
   712                           	opt callstack 0
   713  0020F0                     _printf:
   714                           	opt callstack 19
   715  0020F0  0EB8               	movlw	low (?_printf+2)
   716  0020F2  0100               	movlb	0	; () banked
   717  0020F4  6FBC               	movwf	printf@ap& (0+255),b
   718  0020F6  0E00               	movlw	high (?_printf+2)
   719  0020F8  6FBD               	movwf	(printf@ap+1)& (0+255),b
   720  0020FA                     
   721                           ; BSR set to: 0
   722  0020FA  0E00               	movlw	0
   723  0020FC  6FAE               	movwf	vfprintf@fp& (0+255),b
   724  0020FE  0E00               	movlw	0
   725  002100  6FAF               	movwf	(vfprintf@fp+1)& (0+255),b
   726  002102  C0B6  F0B0         	movff	printf@fmt,vfprintf@fmt
   727  002106  C0B7  F0B1         	movff	printf@fmt+1,vfprintf@fmt+1
   728  00210A  0EBC               	movlw	low printf@ap
   729  00210C  6FB2               	movwf	vfprintf@ap& (0+255),b
   730  00210E  0E00               	movlw	high printf@ap
   731  002110  6FB3               	movwf	(vfprintf@ap+1)& (0+255),b
   732  002112  ECA4  F00E         	call	_vfprintf	;wreg free
   733  002116  0012               	return		;funcret
   734  002118                     __end_of_printf:
   735                           	opt callstack 0
   736                           
   737 ;; *************** function _vfprintf *****************
   738 ;; Defined at:
   739 ;;		line 1368 in file "C:\Program Files (x86)\Microchip\xc8\v2.10\pic\sources\c99\common\doprnt.c"
   740 ;; Parameters:    Size  Location     Type
   741 ;;  fp              2   10[BANK0 ] PTR struct _IO_FILE
   742 ;;		 -> NULL(0), 
   743 ;;  fmt             2   12[BANK0 ] PTR const unsigned char 
   744 ;;		 -> STR_1(20), 
   745 ;;  ap              2   14[BANK0 ] PTR PTR void 
   746 ;;		 -> printf@ap(2), 
   747 ;; Auto vars:     Size  Location     Type
   748 ;;  cfmt            2   16[BANK0 ] PTR unsigned char 
   749 ;;		 -> STR_1(20), 
   750 ;; Return value:  Size  Location     Type
   751 ;;                  2   10[BANK0 ] int 
   752 ;; Registers used:
   753 ;;		wreg, fsr1l, fsr1h, fsr2l, fsr2h, status,2, status,0, tblptrl, tblptrh, tblptru, cstack
   754 ;; Tracked objects:
   755 ;;		On entry : 0/0
   756 ;;		On exit  : 0/0
   757 ;;		Unchanged: 0/0
   758 ;; Data sizes:     COMRAM   BANK0   BANK1   BANK2   BANK3   BANK4   BANK5   BANK6   BANK7   BANK8   BANK9  BANK10  BANK1
      +1  BANK12  BANK13  BANK14  BANK15
   759 ;;      Params:         0       6       0       0       0       0       0       0       0       0       0       0       
      +0       0       0       0       0
   760 ;;      Locals:         0       2       0       0       0       0       0       0       0       0       0       0       
      +0       0       0       0       0
   761 ;;      Temps:          0       0       0       0       0       0       0       0       0       0       0       0       
      +0       0       0       0       0
   762 ;;      Totals:         0       8       0       0       0       0       0       0       0       0       0       0       
      +0       0       0       0       0
   763 ;;Total ram usage:        8 bytes
   764 ;; Hardware stack levels used:    1
   765 ;; Hardware stack levels required when called:   10
   766 ;; This function calls:
   767 ;;		_vfpfcnvrt
   768 ;; This function is called by:
   769 ;;		_printf
   770 ;; This function uses a non-reentrant model
   771 ;;
   772                           
   773                           	psect	text2
   774  001D48                     __ptext2:
   775                           	opt callstack 0
   776  001D48                     _vfprintf:
   777                           	opt callstack 19
   778  001D48                     
   779                           ;C:\Program Files (x86)\Microchip\xc8\v2.10\pic\sources\c99\common\doprnt.c: 1368: int v
      +                          fprintf(FILE *fp, const char *fmt, va_list ap);C:\Program Files (x86)\Microchip\xc8\v2.1
      +                          0\pic\sources\c99\common\doprnt.c: 1369: {;C:\Program Files (x86)\Microchip\xc8\v2.10\pi
      +                          c\sources\c99\common\doprnt.c: 1371:     char *cfmt;;C:\Program Files (x86)\Microchip\xc
      +                          8\v2.10\pic\sources\c99\common\doprnt.c: 1373:     cfmt = (char *)fmt;
   780  001D48  C0B0  F0B4         	movff	vfprintf@fmt,vfprintf@cfmt
   781  001D4C  C0B1  F0B5         	movff	vfprintf@fmt+1,vfprintf@cfmt+1
   782  001D50                     
   783                           ;C:\Program Files (x86)\Microchip\xc8\v2.10\pic\sources\c99\common\doprnt.c: 1374:     n
      +                          out = 0;
   784  001D50  0E00               	movlw	0
   785  001D52  0100               	movlb	0	; () banked
   786  001D54  6F68               	movwf	(_nout+1)& (0+255),b
   787  001D56  0E00               	movlw	0
   788  001D58  6F67               	movwf	_nout& (0+255),b
   789                           
   790                           ;C:\Program Files (x86)\Microchip\xc8\v2.10\pic\sources\c99\common\doprnt.c: 1375:     w
      +                          hile (*cfmt) {
   791  001D5A  EFC2  F00E         	goto	l2451
   792  001D5E                     l2449:
   793                           
   794                           ; BSR set to: 0
   795                           ;C:\Program Files (x86)\Microchip\xc8\v2.10\pic\sources\c99\common\doprnt.c: 1376:      
      +                             nout += vfpfcnvrt(fp, &cfmt, ap);
   796  001D5E  C0AE  F049         	movff	vfprintf@fp,vfpfcnvrt@fp
   797  001D62  C0AF  F04A         	movff	vfprintf@fp+1,vfpfcnvrt@fp+1
   798  001D66  0EB4               	movlw	low vfprintf@cfmt
   799  001D68  6E4B               	movwf	vfpfcnvrt@fmt^0,c
   800  001D6A  0E00               	movlw	high vfprintf@cfmt
   801  001D6C  6E4C               	movwf	(vfpfcnvrt@fmt+1)^0,c
   802  001D6E  C0B2  F04D         	movff	vfprintf@ap,vfpfcnvrt@ap
   803  001D72  C0B3  F04E         	movff	vfprintf@ap+1,vfpfcnvrt@ap+1
   804  001D76  EC09  F00B         	call	_vfpfcnvrt	;wreg free
   805  001D7A  5049               	movf	?_vfpfcnvrt^0,w,c
   806  001D7C  0100               	movlb	0	; () banked
   807  001D7E  2767               	addwf	_nout& (0+255),f,b
   808  001D80  504A               	movf	(?_vfpfcnvrt+1)^0,w,c
   809  001D82  2368               	addwfc	(_nout+1)& (0+255),f,b
   810  001D84                     l2451:
   811                           
   812                           ; BSR set to: 0
   813                           ;C:\Program Files (x86)\Microchip\xc8\v2.10\pic\sources\c99\common\doprnt.c: 1375:     w
      +                          hile (*cfmt) {
   814  001D84  C0B4  FFF6         	movff	vfprintf@cfmt,tblptrl
   815  001D88  C0B5  FFF7         	movff	vfprintf@cfmt+1,tblptrh
   816  001D8C                     	if	1	;Program memory is < 0x10000, tblptru is always zero
   817  001D8C  6AF8               	clrf	tblptru,c
   818  001D8E                     	endif
   819  001D8E                     	if	0	;tblptru may be non-zero
   820  001D8E                     	endif
   821  001D8E  0008               	tblrd		*
   822  001D90  50F5               	movf	tablat,w,c
   823  001D92  0900               	iorlw	0
   824  001D94  A4D8               	btfss	status,2,c
   825  001D96  EFCF  F00E         	goto	u1571
   826  001D9A  EFD1  F00E         	goto	u1570
   827  001D9E                     u1571:
   828  001D9E  EFAF  F00E         	goto	l2449
   829  001DA2                     u1570:
   830  001DA2                     
   831                           ; BSR set to: 0
   832                           ;C:\Program Files (x86)\Microchip\xc8\v2.10\pic\sources\c99\common\doprnt.c: 1378:     r
      +                          eturn nout;
   833  001DA2  C067  F0AE         	movff	_nout,?_vfprintf
   834  001DA6  C068  F0AF         	movff	_nout+1,?_vfprintf+1
   835  001DAA                     
   836                           ; BSR set to: 0
   837  001DAA  0012               	return		;funcret
   838  001DAC                     __end_of_vfprintf:
   839                           	opt callstack 0
   840                           
   841 ;; *************** function _vfpfcnvrt *****************
   842 ;; Defined at:
   843 ;;		line 670 in file "C:\Program Files (x86)\Microchip\xc8\v2.10\pic\sources\c99\common\doprnt.c"
   844 ;; Parameters:    Size  Location     Type
   845 ;;  fp              2   72[COMRAM] PTR struct _IO_FILE
   846 ;;		 -> NULL(0), 
   847 ;;  fmt             2   74[COMRAM] PTR PTR unsigned char 
   848 ;;		 -> vfprintf@cfmt(2), 
   849 ;;  ap              2   76[COMRAM] PTR PTR void 
   850 ;;		 -> printf@ap(2), 
   851 ;; Auto vars:     Size  Location     Type
   852 ;;  ll              8    2[BANK0 ] long long 
   853 ;;  llu             8    0        unsigned long long 
   854 ;;  f               4    0        unsigned long long 
   855 ;;  vp              3    0        PTR void 
   856 ;;  ct              3    0        unsigned char [3]
   857 ;;  cp              3    0        PTR unsigned char 
   858 ;;  i               2    0        int 
   859 ;;  done            2    0        int 
   860 ;;  c               1    0        unsigned char 
   861 ;; Return value:  Size  Location     Type
   862 ;;                  2   72[COMRAM] int 
   863 ;; Registers used:
   864 ;;		wreg, fsr1l, fsr1h, fsr2l, fsr2h, status,2, status,0, tblptrl, tblptrh, tblptru, cstack
   865 ;; Tracked objects:
   866 ;;		On entry : 0/0
   867 ;;		On exit  : 0/0
   868 ;;		Unchanged: 0/0
   869 ;; Data sizes:     COMRAM   BANK0   BANK1   BANK2   BANK3   BANK4   BANK5   BANK6   BANK7   BANK8   BANK9  BANK10  BANK1
      +1  BANK12  BANK13  BANK14  BANK15
   870 ;;      Params:         6       0       0       0       0       0       0       0       0       0       0       0       
      +0       0       0       0       0
   871 ;;      Locals:         0       8       0       0       0       0       0       0       0       0       0       0       
      +0       0       0       0       0
   872 ;;      Temps:          0       2       0       0       0       0       0       0       0       0       0       0       
      +0       0       0       0       0
   873 ;;      Totals:         6      10       0       0       0       0       0       0       0       0       0       0       
      +0       0       0       0       0
   874 ;;Total ram usage:       16 bytes
   875 ;; Hardware stack levels used:    1
   876 ;; Hardware stack levels required when called:    9
   877 ;; This function calls:
   878 ;;		_dtoa
   879 ;;		_fputc
   880 ;; This function is called by:
   881 ;;		_vfprintf
   882 ;; This function uses a non-reentrant model
   883 ;;
   884                           
   885                           	psect	text3
   886  001612                     __ptext3:
   887                           	opt callstack 0
   888  001612                     _vfpfcnvrt:
   889                           	opt callstack 19
   890  001612                     
   891                           ;C:\Program Files (x86)\Microchip\xc8\v2.10\pic\sources\c99\common\doprnt.c: 670: static
      +                           int vfpfcnvrt(FILE *fp, char *fmt[], va_list ap);C:\Program Files (x86)\Microchip\xc8\v
      +                          2.10\pic\sources\c99\common\doprnt.c: 671: {;C:\Program Files (x86)\Microchip\xc8\v2.10\
      +                          pic\sources\c99\common\doprnt.c: 672:     char c, *cp, ct[3];;C:\Program Files (x86)\Mic
      +                          rochip\xc8\v2.10\pic\sources\c99\common\doprnt.c: 673:     int done, i;;C:\Program Files
      +                           (x86)\Microchip\xc8\v2.10\pic\sources\c99\common\doprnt.c: 674:     long long ll;
   892  001612  C04B  FFD9         	movff	vfpfcnvrt@fmt,fsr2l
   893  001616  C04C  FFDA         	movff	vfpfcnvrt@fmt+1,fsr2h
   894  00161A  CFDE FFF6          	movff	postinc2,tblptrl
   895  00161E  CFDD FFF7          	movff	postdec2,tblptrh
   896  001622                     	if	1	;Program memory is < 0x10000, tblptru is always zero
   897  001622  6AF8               	clrf	tblptru,c
   898  001624                     	endif
   899  001624                     	if	0	;tblptru may be non-zero
   900  001624                     	endif
   901  001624  0008               	tblrd		*
   902  001626  50F5               	movf	tablat,w,c
   903  001628  0A25               	xorlw	37
   904  00162A  A4D8               	btfss	status,2,c
   905  00162C  EF1A  F00B         	goto	u1531
   906  001630  EF1C  F00B         	goto	u1530
   907  001634                     u1531:
   908  001634  EFCB  F00B         	goto	l2437
   909  001638                     u1530:
   910  001638                     
   911                           ;C:\Program Files (x86)\Microchip\xc8\v2.10\pic\sources\c99\common\doprnt.c: 681:       
      +                            ++*fmt;
   912  001638  C04B  FFD9         	movff	vfpfcnvrt@fmt,fsr2l
   913  00163C  C04C  FFDA         	movff	vfpfcnvrt@fmt+1,fsr2h
   914  001640  2ADE               	incf	postinc2,f,c
   915  001642  0E00               	movlw	0
   916  001644  22DD               	addwfc	postdec2,f,c
   917  001646                     
   918                           ;C:\Program Files (x86)\Microchip\xc8\v2.10\pic\sources\c99\common\doprnt.c: 683:       
      +                            flags = width = 0;
   919  001646  0E00               	movlw	0
   920  001648  0100               	movlb	0	; () banked
   921  00164A  6F6A               	movwf	(_width+1)& (0+255),b
   922  00164C  0E00               	movlw	0
   923  00164E  6F69               	movwf	_width& (0+255),b
   924  001650  C069  F04F         	movff	_width,_flags
   925  001654  C06A  F050         	movff	_width+1,_flags+1
   926  001658                     
   927                           ; BSR set to: 0
   928                           ;C:\Program Files (x86)\Microchip\xc8\v2.10\pic\sources\c99\common\doprnt.c: 684:       
      +                            prec = -1;
   929  001658  696B               	setf	_prec& (0+255),b
   930  00165A  696C               	setf	(_prec+1)& (0+255),b
   931  00165C                     
   932                           ; BSR set to: 0
   933                           ;C:\Program Files (x86)\Microchip\xc8\v2.10\pic\sources\c99\common\doprnt.c: 825:       
      +                            if ((*fmt[0] == 'd') || (*fmt[0] == 'i')) {
   934  00165C  C04B  FFD9         	movff	vfpfcnvrt@fmt,fsr2l
   935  001660  C04C  FFDA         	movff	vfpfcnvrt@fmt+1,fsr2h
   936  001664  CFDE FFF6          	movff	postinc2,tblptrl
   937  001668  CFDD FFF7          	movff	postdec2,tblptrh
   938  00166C                     	if	1	;Program memory is < 0x10000, tblptru is always zero
   939  00166C  6AF8               	clrf	tblptru,c
   940  00166E                     	endif
   941  00166E                     	if	0	;tblptru may be non-zero
   942  00166E                     	endif
   943  00166E  0008               	tblrd		*
   944  001670  50F5               	movf	tablat,w,c
   945  001672  0A64               	xorlw	100
   946  001674  B4D8               	btfsc	status,2,c
   947  001676  EF3F  F00B         	goto	u1541
   948  00167A  EF41  F00B         	goto	u1540
   949  00167E                     u1541:
   950  00167E  EF54  F00B         	goto	l2415
   951  001682                     u1540:
   952  001682                     
   953                           ; BSR set to: 0
   954  001682  C04B  FFD9         	movff	vfpfcnvrt@fmt,fsr2l
   955  001686  C04C  FFDA         	movff	vfpfcnvrt@fmt+1,fsr2h
   956  00168A  CFDE FFF6          	movff	postinc2,tblptrl
   957  00168E  CFDD FFF7          	movff	postdec2,tblptrh
   958  001692                     	if	1	;Program memory is < 0x10000, tblptru is always zero
   959  001692  6AF8               	clrf	tblptru,c
   960  001694                     	endif
   961  001694                     	if	0	;tblptru may be non-zero
   962  001694                     	endif
   963  001694  0008               	tblrd		*
   964  001696  50F5               	movf	tablat,w,c
   965  001698  0A69               	xorlw	105
   966  00169A  A4D8               	btfss	status,2,c
   967  00169C  EF52  F00B         	goto	u1551
   968  0016A0  EF54  F00B         	goto	u1550
   969  0016A4                     u1551:
   970  0016A4  EF94  F00B         	goto	l2421
   971  0016A8                     u1550:
   972  0016A8                     l2415:
   973                           
   974                           ; BSR set to: 0
   975                           ;C:\Program Files (x86)\Microchip\xc8\v2.10\pic\sources\c99\common\doprnt.c: 827:       
      +                                ++*fmt;
   976  0016A8  C04B  FFD9         	movff	vfpfcnvrt@fmt,fsr2l
   977  0016AC  C04C  FFDA         	movff	vfpfcnvrt@fmt+1,fsr2h
   978  0016B0  2ADE               	incf	postinc2,f,c
   979  0016B2  0E00               	movlw	0
   980  0016B4  22DD               	addwfc	postdec2,f,c
   981                           
   982                           ;C:\Program Files (x86)\Microchip\xc8\v2.10\pic\sources\c99\common\doprnt.c: 828:       
      +                                ll = (long long)(*(int *)__va_arg(*(int **)ap, (int)0));
   983  0016B6  C04D  FFD9         	movff	vfpfcnvrt@ap,fsr2l
   984  0016BA  C04E  FFDA         	movff	vfpfcnvrt@ap+1,fsr2h
   985  0016BE  CFDF F0A4          	movff	indf2,??_vfpfcnvrt
   986  0016C2  0E02               	movlw	2
   987  0016C4  26DE               	addwf	postinc2,f,c
   988  0016C6  CFDF F0A5          	movff	indf2,??_vfpfcnvrt+1
   989  0016CA  0E00               	movlw	0
   990  0016CC  22DD               	addwfc	postdec2,f,c
   991  0016CE  C0A4  FFD9         	movff	??_vfpfcnvrt,fsr2l
   992  0016D2  C0A5  FFDA         	movff	??_vfpfcnvrt+1,fsr2h
   993  0016D6  CFDE F0A6          	movff	postinc2,vfpfcnvrt@ll
   994  0016DA  CFDD F0A7          	movff	postdec2,vfpfcnvrt@ll+1
   995  0016DE  0E00               	movlw	0
   996  0016E0  BFA7               	btfsc	(vfpfcnvrt@ll+1)& (0+255),7,b
   997  0016E2  0EFF               	movlw	-1
   998  0016E4  6FA8               	movwf	(vfpfcnvrt@ll+2)& (0+255),b
   999  0016E6  6FA9               	movwf	(vfpfcnvrt@ll+3)& (0+255),b
  1000  0016E8  6FAA               	movwf	(vfpfcnvrt@ll+4)& (0+255),b
  1001  0016EA  6FAB               	movwf	(vfpfcnvrt@ll+5)& (0+255),b
  1002  0016EC  6FAC               	movwf	(vfpfcnvrt@ll+6)& (0+255),b
  1003  0016EE  6FAD               	movwf	(vfpfcnvrt@ll+7)& (0+255),b
  1004  0016F0                     
  1005                           ; BSR set to: 0
  1006                           ;C:\Program Files (x86)\Microchip\xc8\v2.10\pic\sources\c99\common\doprnt.c: 830:       
      +                                return dtoa(fp, ll);
  1007  0016F0  C049  F025         	movff	vfpfcnvrt@fp,dtoa@fp
  1008  0016F4  C04A  F026         	movff	vfpfcnvrt@fp+1,dtoa@fp+1
  1009  0016F8  C0A6  F027         	movff	vfpfcnvrt@ll,dtoa@d
  1010  0016FC  C0A7  F028         	movff	vfpfcnvrt@ll+1,dtoa@d+1
  1011  001700  C0A8  F029         	movff	vfpfcnvrt@ll+2,dtoa@d+2
  1012  001704  C0A9  F02A         	movff	vfpfcnvrt@ll+3,dtoa@d+3
  1013  001708  C0AA  F02B         	movff	vfpfcnvrt@ll+4,dtoa@d+4
  1014  00170C  C0AB  F02C         	movff	vfpfcnvrt@ll+5,dtoa@d+5
  1015  001710  C0AC  F02D         	movff	vfpfcnvrt@ll+6,dtoa@d+6
  1016  001714  C0AD  F02E         	movff	vfpfcnvrt@ll+7,dtoa@d+7
  1017  001718  EC9A  F009         	call	_dtoa	;wreg free
  1018  00171C  C025  F049         	movff	?_dtoa,?_vfpfcnvrt
  1019  001720  C026  F04A         	movff	?_dtoa+1,?_vfpfcnvrt+1
  1020  001724  EFE7  F00B         	goto	l438
  1021  001728                     l2421:
  1022                           
  1023                           ; BSR set to: 0
  1024                           ;C:\Program Files (x86)\Microchip\xc8\v2.10\pic\sources\c99\common\doprnt.c: 1350:      
      +                             if ((*fmt)[0] == '%') {
  1025  001728  C04B  FFD9         	movff	vfpfcnvrt@fmt,fsr2l
  1026  00172C  C04C  FFDA         	movff	vfpfcnvrt@fmt+1,fsr2h
  1027  001730  CFDE FFF6          	movff	postinc2,tblptrl
  1028  001734  CFDD FFF7          	movff	postdec2,tblptrh
  1029  001738                     	if	1	;Program memory is < 0x10000, tblptru is always zero
  1030  001738  6AF8               	clrf	tblptru,c
  1031  00173A                     	endif
  1032  00173A                     	if	0	;tblptru may be non-zero
  1033  00173A                     	endif
  1034  00173A  0008               	tblrd		*
  1035  00173C  50F5               	movf	tablat,w,c
  1036  00173E  0A25               	xorlw	37
  1037  001740  A4D8               	btfss	status,2,c
  1038  001742  EFA5  F00B         	goto	u1561
  1039  001746  EFA7  F00B         	goto	u1560
  1040  00174A                     u1561:
  1041  00174A  EFBE  F00B         	goto	l2431
  1042  00174E                     u1560:
  1043  00174E                     
  1044                           ; BSR set to: 0
  1045                           ;C:\Program Files (x86)\Microchip\xc8\v2.10\pic\sources\c99\common\doprnt.c: 1351:      
      +                                 ++*fmt;
  1046  00174E  C04B  FFD9         	movff	vfpfcnvrt@fmt,fsr2l
  1047  001752  C04C  FFDA         	movff	vfpfcnvrt@fmt+1,fsr2h
  1048  001756  2ADE               	incf	postinc2,f,c
  1049  001758  0E00               	movlw	0
  1050  00175A  22DD               	addwfc	postdec2,f,c
  1051  00175C                     
  1052                           ; BSR set to: 0
  1053                           ;C:\Program Files (x86)\Microchip\xc8\v2.10\pic\sources\c99\common\doprnt.c: 1352:      
      +                                 fputc((int)'%', fp);
  1054  00175C  0E00               	movlw	0
  1055  00175E  6E0B               	movwf	(fputc@c+1)^0,c
  1056  001760  0E25               	movlw	37
  1057  001762  6E0A               	movwf	fputc@c^0,c
  1058  001764  C049  F00C         	movff	vfpfcnvrt@fp,fputc@fp
  1059  001768  C04A  F00D         	movff	vfpfcnvrt@fp+1,fputc@fp+1
  1060  00176C  EC23  F00E         	call	_fputc	;wreg free
  1061  001770                     l2427:
  1062                           
  1063                           ;C:\Program Files (x86)\Microchip\xc8\v2.10\pic\sources\c99\common\doprnt.c: 1353:      
      +                                 return 1;
  1064  001770  0E00               	movlw	0
  1065  001772  6E4A               	movwf	(?_vfpfcnvrt+1)^0,c
  1066  001774  0E01               	movlw	1
  1067  001776  6E49               	movwf	?_vfpfcnvrt^0,c
  1068  001778  EFE7  F00B         	goto	l438
  1069  00177C                     l2431:
  1070                           
  1071                           ; BSR set to: 0
  1072                           ;C:\Program Files (x86)\Microchip\xc8\v2.10\pic\sources\c99\common\doprnt.c: 1357:      
      +                             ++*fmt;
  1073  00177C  C04B  FFD9         	movff	vfpfcnvrt@fmt,fsr2l
  1074  001780  C04C  FFDA         	movff	vfpfcnvrt@fmt+1,fsr2h
  1075  001784  2ADE               	incf	postinc2,f,c
  1076  001786  0E00               	movlw	0
  1077  001788  22DD               	addwfc	postdec2,f,c
  1078  00178A                     
  1079                           ; BSR set to: 0
  1080                           ;C:\Program Files (x86)\Microchip\xc8\v2.10\pic\sources\c99\common\doprnt.c: 1358:      
      +                             return 0;
  1081  00178A  0E00               	movlw	0
  1082  00178C  6E4A               	movwf	(?_vfpfcnvrt+1)^0,c
  1083  00178E  0E00               	movlw	0
  1084  001790  6E49               	movwf	?_vfpfcnvrt^0,c
  1085  001792  EFE7  F00B         	goto	l438
  1086  001796                     l2437:
  1087                           
  1088                           ;C:\Program Files (x86)\Microchip\xc8\v2.10\pic\sources\c99\common\doprnt.c: 1362:     f
      +                          putc((int)(*fmt)[0], fp);
  1089  001796  C04B  FFD9         	movff	vfpfcnvrt@fmt,fsr2l
  1090  00179A  C04C  FFDA         	movff	vfpfcnvrt@fmt+1,fsr2h
  1091  00179E  CFDE FFF6          	movff	postinc2,tblptrl
  1092  0017A2  CFDD FFF7          	movff	postdec2,tblptrh
  1093  0017A6                     	if	1	;Program memory is < 0x10000, tblptru is always zero
  1094  0017A6  6AF8               	clrf	tblptru,c
  1095  0017A8                     	endif
  1096  0017A8                     	if	0	;tblptru may be non-zero
  1097  0017A8                     	endif
  1098  0017A8  0008               	tblrd		*
  1099  0017AA  50F5               	movf	tablat,w,c
  1100  0017AC  6E0A               	movwf	fputc@c^0,c
  1101  0017AE  6A0B               	clrf	(fputc@c+1)^0,c
  1102  0017B0  C049  F00C         	movff	vfpfcnvrt@fp,fputc@fp
  1103  0017B4  C04A  F00D         	movff	vfpfcnvrt@fp+1,fputc@fp+1
  1104  0017B8  EC23  F00E         	call	_fputc	;wreg free
  1105  0017BC                     
  1106                           ;C:\Program Files (x86)\Microchip\xc8\v2.10\pic\sources\c99\common\doprnt.c: 1363:     +
      +                          +*fmt;
  1107  0017BC  C04B  FFD9         	movff	vfpfcnvrt@fmt,fsr2l
  1108  0017C0  C04C  FFDA         	movff	vfpfcnvrt@fmt+1,fsr2h
  1109  0017C4  2ADE               	incf	postinc2,f,c
  1110  0017C6  0E00               	movlw	0
  1111  0017C8  22DD               	addwfc	postdec2,f,c
  1112  0017CA  EFB8  F00B         	goto	l2427
  1113  0017CE                     l438:
  1114  0017CE  0012               	return		;funcret
  1115  0017D0                     __end_of_vfpfcnvrt:
  1116                           	opt callstack 0
  1117                           
  1118 ;; *************** function _dtoa *****************
  1119 ;; Defined at:
  1120 ;;		line 274 in file "C:\Program Files (x86)\Microchip\xc8\v2.10\pic\sources\c99\common\doprnt.c"
  1121 ;; Parameters:    Size  Location     Type
  1122 ;;  fp              2   36[COMRAM] PTR struct _IO_FILE
  1123 ;;		 -> NULL(0), 
  1124 ;;  d               8   38[COMRAM] long long 
  1125 ;; Auto vars:     Size  Location     Type
  1126 ;;  n               8   62[COMRAM] long long 
  1127 ;;  i               2   70[COMRAM] int 
  1128 ;;  s               2   60[COMRAM] int 
  1129 ;;  w               2   58[COMRAM] int 
  1130 ;;  p               2   56[COMRAM] int 
  1131 ;; Return value:  Size  Location     Type
  1132 ;;                  2   36[COMRAM] int 
  1133 ;; Registers used:
  1134 ;;		wreg, fsr1l, fsr1h, fsr2l, fsr2h, status,2, status,0, cstack
  1135 ;; Tracked objects:
  1136 ;;		On entry : 0/0
  1137 ;;		On exit  : 0/0
  1138 ;;		Unchanged: 0/0
  1139 ;; Data sizes:     COMRAM   BANK0   BANK1   BANK2   BANK3   BANK4   BANK5   BANK6   BANK7   BANK8   BANK9  BANK10  BANK1
      +1  BANK12  BANK13  BANK14  BANK15
  1140 ;;      Params:        10       0       0       0       0       0       0       0       0       0       0       0       
      +0       0       0       0       0
  1141 ;;      Locals:        18       0       0       0       0       0       0       0       0       0       0       0       
      +0       0       0       0       0
  1142 ;;      Temps:          8       0       0       0       0       0       0       0       0       0       0       0       
      +0       0       0       0       0
  1143 ;;      Totals:        36       0       0       0       0       0       0       0       0       0       0       0       
      +0       0       0       0       0
  1144 ;;Total ram usage:       36 bytes
  1145 ;; Hardware stack levels used:    1
  1146 ;; Hardware stack levels required when called:    8
  1147 ;; This function calls:
  1148 ;;		___aodiv
  1149 ;;		___aomod
  1150 ;;		_abs
  1151 ;;		_pad
  1152 ;; This function is called by:
  1153 ;;		_vfpfcnvrt
  1154 ;; This function uses a non-reentrant model
  1155 ;;
  1156                           
  1157                           	psect	text4
  1158  001334                     __ptext4:
  1159                           	opt callstack 0
  1160  001334                     _dtoa:
  1161                           	opt callstack 19
  1162  001334                     
  1163                           ;C:\Program Files (x86)\Microchip\xc8\v2.10\pic\sources\c99\common\doprnt.c: 274: static
      +                           int dtoa(FILE *fp, long long d);C:\Program Files (x86)\Microchip\xc8\v2.10\pic\sources\
      +                          c99\common\doprnt.c: 275: {;C:\Program Files (x86)\Microchip\xc8\v2.10\pic\sources\c99\c
      +                          ommon\doprnt.c: 276:     int i, p, s, w;;C:\Program Files (x86)\Microchip\xc8\v2.10\pic\
      +                          sources\c99\common\doprnt.c: 277:     long long n;;C:\Program Files (x86)\Microchip\xc8\
      +                          v2.10\pic\sources\c99\common\doprnt.c: 280:     n = d;
  1164  001334  C027  F03F         	movff	dtoa@d,dtoa@n
  1165  001338  C028  F040         	movff	dtoa@d+1,dtoa@n+1
  1166  00133C  C029  F041         	movff	dtoa@d+2,dtoa@n+2
  1167  001340  C02A  F042         	movff	dtoa@d+3,dtoa@n+3
  1168  001344  C02B  F043         	movff	dtoa@d+4,dtoa@n+4
  1169  001348  C02C  F044         	movff	dtoa@d+5,dtoa@n+5
  1170  00134C  C02D  F045         	movff	dtoa@d+6,dtoa@n+6
  1171  001350  C02E  F046         	movff	dtoa@d+7,dtoa@n+7
  1172  001354                     
  1173                           ;C:\Program Files (x86)\Microchip\xc8\v2.10\pic\sources\c99\common\doprnt.c: 281:     s 
      +                          = n < 0 ? 1 : 0;
  1174  001354  BE46               	btfsc	(dtoa@n+7)^0,7,c
  1175  001356  EFAF  F009         	goto	u1041
  1176  00135A  EFB2  F009         	goto	u1040
  1177  00135E                     u1041:
  1178  00135E  0E01               	movlw	1
  1179  001360  EFB3  F009         	goto	u1050
  1180  001364                     u1040:
  1181  001364  0E00               	movlw	0
  1182  001366                     u1050:
  1183  001366  6E3D               	movwf	dtoa@s^0,c
  1184  001368  6A3E               	clrf	(dtoa@s+1)^0,c
  1185                           
  1186                           ;C:\Program Files (x86)\Microchip\xc8\v2.10\pic\sources\c99\common\doprnt.c: 282:     if
      +                           (s) {
  1187  00136A  503D               	movf	dtoa@s^0,w,c
  1188  00136C  103E               	iorwf	(dtoa@s+1)^0,w,c
  1189  00136E  B4D8               	btfsc	status,2,c
  1190  001370  EFBC  F009         	goto	u1061
  1191  001374  EFBE  F009         	goto	u1060
  1192  001378                     u1061:
  1193  001378  EFCE  F009         	goto	l1957
  1194  00137C                     u1060:
  1195  00137C                     
  1196                           ;C:\Program Files (x86)\Microchip\xc8\v2.10\pic\sources\c99\common\doprnt.c: 283:       
      +                            n = -n;
  1197  00137C  1E46               	comf	(dtoa@n+7)^0,f,c
  1198  00137E  1E45               	comf	(dtoa@n+6)^0,f,c
  1199  001380  1E44               	comf	(dtoa@n+5)^0,f,c
  1200  001382  1E43               	comf	(dtoa@n+4)^0,f,c
  1201  001384  1E42               	comf	(dtoa@n+3)^0,f,c
  1202  001386  1E41               	comf	(dtoa@n+2)^0,f,c
  1203  001388  1E40               	comf	(dtoa@n+1)^0,f,c
  1204  00138A  6C3F               	negf	dtoa@n^0,c
  1205  00138C  0E00               	movlw	0
  1206  00138E  2240               	addwfc	(dtoa@n+1)^0,f,c
  1207  001390  2241               	addwfc	(dtoa@n+2)^0,f,c
  1208  001392  2242               	addwfc	(dtoa@n+3)^0,f,c
  1209  001394  2243               	addwfc	(dtoa@n+4)^0,f,c
  1210  001396  2244               	addwfc	(dtoa@n+5)^0,f,c
  1211  001398  2245               	addwfc	(dtoa@n+6)^0,f,c
  1212  00139A  2246               	addwfc	(dtoa@n+7)^0,f,c
  1213  00139C                     l1957:
  1214                           
  1215                           ;C:\Program Files (x86)\Microchip\xc8\v2.10\pic\sources\c99\common\doprnt.c: 287:     if
      +                           (!(prec < 0)) {
  1216  00139C  0100               	movlb	0	; () banked
  1217  00139E  BF6C               	btfsc	(_prec+1)& (0+255),7,b
  1218  0013A0  EFD4  F009         	goto	u1071
  1219  0013A4  EFD6  F009         	goto	u1070
  1220  0013A8                     u1071:
  1221  0013A8  EFD7  F009         	goto	l1961
  1222  0013AC                     u1070:
  1223  0013AC                     
  1224                           ; BSR set to: 0
  1225                           ;C:\Program Files (x86)\Microchip\xc8\v2.10\pic\sources\c99\common\doprnt.c: 288:       
      +                            flags &= ~(1 << 1);
  1226  0013AC  924F               	bcf	_flags^0,1,c
  1227  0013AE                     l1961:
  1228                           
  1229                           ; BSR set to: 0
  1230                           ;C:\Program Files (x86)\Microchip\xc8\v2.10\pic\sources\c99\common\doprnt.c: 290:     p 
      +                          = (0 < prec) ? prec : 1;
  1231  0013AE  BF6C               	btfsc	(_prec+1)& (0+255),7,b
  1232  0013B0  EFE4  F009         	goto	u1080
  1233  0013B4  516C               	movf	(_prec+1)& (0+255),w,b
  1234  0013B6  E106               	bnz	u1081
  1235  0013B8  056B               	decf	_prec& (0+255),w,b
  1236  0013BA  B0D8               	btfsc	status,0,c
  1237  0013BC  EFE2  F009         	goto	u1081
  1238  0013C0  EFE4  F009         	goto	u1080
  1239  0013C4                     u1081:
  1240  0013C4  EFEA  F009         	goto	l411
  1241  0013C8                     u1080:
  1242  0013C8                     
  1243                           ; BSR set to: 0
  1244  0013C8  0E00               	movlw	0
  1245  0013CA  6E3A               	movwf	(dtoa@p+1)^0,c
  1246  0013CC  0E01               	movlw	1
  1247  0013CE  6E39               	movwf	dtoa@p^0,c
  1248  0013D0  EFEE  F009         	goto	l413
  1249  0013D4                     l411:
  1250                           
  1251                           ; BSR set to: 0
  1252  0013D4  C06B  F039         	movff	_prec,dtoa@p
  1253  0013D8  C06C  F03A         	movff	_prec+1,dtoa@p+1
  1254  0013DC                     l413:
  1255                           
  1256                           ; BSR set to: 0
  1257                           ;C:\Program Files (x86)\Microchip\xc8\v2.10\pic\sources\c99\common\doprnt.c: 291:     w 
      +                          = width;
  1258  0013DC  C069  F03B         	movff	_width,dtoa@w
  1259  0013E0  C06A  F03C         	movff	_width+1,dtoa@w+1
  1260  0013E4                     
  1261                           ; BSR set to: 0
  1262                           ;C:\Program Files (x86)\Microchip\xc8\v2.10\pic\sources\c99\common\doprnt.c: 292:     if
      +                           (s || (flags & (1 << 2))) {
  1263  0013E4  503D               	movf	dtoa@s^0,w,c
  1264  0013E6  103E               	iorwf	(dtoa@s+1)^0,w,c
  1265  0013E8  A4D8               	btfss	status,2,c
  1266  0013EA  EFF9  F009         	goto	u1091
  1267  0013EE  EFFB  F009         	goto	u1090
  1268  0013F2                     u1091:
  1269  0013F2  EF02  F00A         	goto	l1969
  1270  0013F6                     u1090:
  1271  0013F6                     
  1272                           ; BSR set to: 0
  1273  0013F6  A44F               	btfss	_flags^0,2,c
  1274  0013F8  EF00  F00A         	goto	u1101
  1275  0013FC  EF02  F00A         	goto	u1100
  1276  001400                     u1101:
  1277  001400  EF05  F00A         	goto	l1971
  1278  001404                     u1100:
  1279  001404                     l1969:
  1280                           
  1281                           ; BSR set to: 0
  1282                           ;C:\Program Files (x86)\Microchip\xc8\v2.10\pic\sources\c99\common\doprnt.c: 293:       
      +                            --w;
  1283  001404  063B               	decf	dtoa@w^0,f,c
  1284  001406  A0D8               	btfss	status,0,c
  1285  001408  063C               	decf	(dtoa@w+1)^0,f,c
  1286  00140A                     l1971:
  1287                           
  1288                           ; BSR set to: 0
  1289                           ;C:\Program Files (x86)\Microchip\xc8\v2.10\pic\sources\c99\common\doprnt.c: 297:     i 
      +                          = sizeof(dbuf) - 1;
  1290  00140A  0E00               	movlw	0
  1291  00140C  6E48               	movwf	(dtoa@i+1)^0,c
  1292  00140E  0E1F               	movlw	31
  1293  001410  6E47               	movwf	dtoa@i^0,c
  1294  001412                     
  1295                           ; BSR set to: 0
  1296                           ;C:\Program Files (x86)\Microchip\xc8\v2.10\pic\sources\c99\common\doprnt.c: 298:     db
      +                          uf[i] = '\0';
  1297  001412  0E00               	movlw	0
  1298  001414  6F94               	movwf	(_dbuf+31)& (0+255),b
  1299                           
  1300                           ;C:\Program Files (x86)\Microchip\xc8\v2.10\pic\sources\c99\common\doprnt.c: 299:     wh
      +                          ile (!(i < 1) && (n || (0 < p) || ((0 < w) && (flags & (1 << 1))))) {
  1301  001416  EF89  F00A         	goto	l1985
  1302  00141A                     l1975:
  1303                           
  1304                           ;C:\Program Files (x86)\Microchip\xc8\v2.10\pic\sources\c99\common\doprnt.c: 300:       
      +                            --i;
  1305  00141A  0647               	decf	dtoa@i^0,f,c
  1306  00141C  A0D8               	btfss	status,0,c
  1307  00141E  0648               	decf	(dtoa@i+1)^0,f,c
  1308  001420                     
  1309                           ;C:\Program Files (x86)\Microchip\xc8\v2.10\pic\sources\c99\common\doprnt.c: 301:       
      +                            dbuf[i] = '0' + abs(n % 10);
  1310  001420  0E75               	movlw	low _dbuf
  1311  001422  2447               	addwf	dtoa@i^0,w,c
  1312  001424  6ED9               	movwf	fsr2l,c
  1313  001426  0E00               	movlw	high _dbuf
  1314  001428  2048               	addwfc	(dtoa@i+1)^0,w,c
  1315  00142A  6EDA               	movwf	fsr2h,c
  1316  00142C  C03F  F008         	movff	dtoa@n,___aomod@dividend
  1317  001430  C040  F009         	movff	dtoa@n+1,___aomod@dividend+1
  1318  001434  C041  F00A         	movff	dtoa@n+2,___aomod@dividend+2
  1319  001438  C042  F00B         	movff	dtoa@n+3,___aomod@dividend+3
  1320  00143C  C043  F00C         	movff	dtoa@n+4,___aomod@dividend+4
  1321  001440  C044  F00D         	movff	dtoa@n+5,___aomod@dividend+5
  1322  001444  C045  F00E         	movff	dtoa@n+6,___aomod@dividend+6
  1323  001448  C046  F00F         	movff	dtoa@n+7,___aomod@dividend+7
  1324  00144C  0E0A               	movlw	10
  1325  00144E  6E10               	movwf	___aomod@divisor^0,c
  1326  001450  0E00               	movlw	0
  1327  001452  6E11               	movwf	(___aomod@divisor+1)^0,c
  1328  001454  0E00               	movlw	0
  1329  001456  6E12               	movwf	(___aomod@divisor+2)^0,c
  1330  001458  0E00               	movlw	0
  1331  00145A  6E13               	movwf	(___aomod@divisor+3)^0,c
  1332  00145C  0E00               	movlw	0
  1333  00145E  6E14               	movwf	(___aomod@divisor+4)^0,c
  1334  001460  0E00               	movlw	0
  1335  001462  6E15               	movwf	(___aomod@divisor+5)^0,c
  1336  001464  0E00               	movlw	0
  1337  001466  6E16               	movwf	(___aomod@divisor+6)^0,c
  1338  001468  0E00               	movlw	0
  1339  00146A  6E17               	movwf	(___aomod@divisor+7)^0,c
  1340  00146C  ECAC  F00C         	call	___aomod	;wreg free
  1341  001470  C008  F02F         	movff	?___aomod,??_dtoa
  1342  001474  C009  F030         	movff	?___aomod+1,??_dtoa+1
  1343  001478  C00A  F031         	movff	?___aomod+2,??_dtoa+2
  1344  00147C  C00B  F032         	movff	?___aomod+3,??_dtoa+3
  1345  001480  C00C  F033         	movff	?___aomod+4,??_dtoa+4
  1346  001484  C00D  F034         	movff	?___aomod+5,??_dtoa+5
  1347  001488  C00E  F035         	movff	?___aomod+6,??_dtoa+6
  1348  00148C  C00F  F036         	movff	?___aomod+7,??_dtoa+7
  1349  001490  C02F  F01A         	movff	??_dtoa,abs@a
  1350  001494  C031  F01B         	movff	??_dtoa+2,abs@a+1
  1351  001498  ECE4  F00F         	call	_abs	;wreg free
  1352  00149C  501A               	movf	?_abs^0,w,c
  1353  00149E  0F30               	addlw	48
  1354  0014A0  6EDF               	movwf	indf2,c
  1355  0014A2                     
  1356                           ;C:\Program Files (x86)\Microchip\xc8\v2.10\pic\sources\c99\common\doprnt.c: 302:       
      +                            --p;
  1357  0014A2  0639               	decf	dtoa@p^0,f,c
  1358  0014A4  A0D8               	btfss	status,0,c
  1359  0014A6  063A               	decf	(dtoa@p+1)^0,f,c
  1360  0014A8                     
  1361                           ;C:\Program Files (x86)\Microchip\xc8\v2.10\pic\sources\c99\common\doprnt.c: 303:       
      +                            --w;
  1362  0014A8  063B               	decf	dtoa@w^0,f,c
  1363  0014AA  A0D8               	btfss	status,0,c
  1364  0014AC  063C               	decf	(dtoa@w+1)^0,f,c
  1365  0014AE                     
  1366                           ;C:\Program Files (x86)\Microchip\xc8\v2.10\pic\sources\c99\common\doprnt.c: 304:       
      +                            n = n / 10;
  1367  0014AE  C03F  F008         	movff	dtoa@n,___aodiv@dividend
  1368  0014B2  C040  F009         	movff	dtoa@n+1,___aodiv@dividend+1
  1369  0014B6  C041  F00A         	movff	dtoa@n+2,___aodiv@dividend+2
  1370  0014BA  C042  F00B         	movff	dtoa@n+3,___aodiv@dividend+3
  1371  0014BE  C043  F00C         	movff	dtoa@n+4,___aodiv@dividend+4
  1372  0014C2  C044  F00D         	movff	dtoa@n+5,___aodiv@dividend+5
  1373  0014C6  C045  F00E         	movff	dtoa@n+6,___aodiv@dividend+6
  1374  0014CA  C046  F00F         	movff	dtoa@n+7,___aodiv@dividend+7
  1375  0014CE  0E0A               	movlw	10
  1376  0014D0  6E10               	movwf	___aodiv@divisor^0,c
  1377  0014D2  0E00               	movlw	0
  1378  0014D4  6E11               	movwf	(___aodiv@divisor+1)^0,c
  1379  0014D6  0E00               	movlw	0
  1380  0014D8  6E12               	movwf	(___aodiv@divisor+2)^0,c
  1381  0014DA  0E00               	movlw	0
  1382  0014DC  6E13               	movwf	(___aodiv@divisor+3)^0,c
  1383  0014DE  0E00               	movlw	0
  1384  0014E0  6E14               	movwf	(___aodiv@divisor+4)^0,c
  1385  0014E2  0E00               	movlw	0
  1386  0014E4  6E15               	movwf	(___aodiv@divisor+5)^0,c
  1387  0014E6  0E00               	movlw	0
  1388  0014E8  6E16               	movwf	(___aodiv@divisor+6)^0,c
  1389  0014EA  0E00               	movlw	0
  1390  0014EC  6E17               	movwf	(___aodiv@divisor+7)^0,c
  1391  0014EE  ECE8  F00B         	call	___aodiv	;wreg free
  1392  0014F2  C008  F03F         	movff	?___aodiv,dtoa@n
  1393  0014F6  C009  F040         	movff	?___aodiv+1,dtoa@n+1
  1394  0014FA  C00A  F041         	movff	?___aodiv+2,dtoa@n+2
  1395  0014FE  C00B  F042         	movff	?___aodiv+3,dtoa@n+3
  1396  001502  C00C  F043         	movff	?___aodiv+4,dtoa@n+4
  1397  001506  C00D  F044         	movff	?___aodiv+5,dtoa@n+5
  1398  00150A  C00E  F045         	movff	?___aodiv+6,dtoa@n+6
  1399  00150E  C00F  F046         	movff	?___aodiv+7,dtoa@n+7
  1400  001512                     l1985:
  1401                           
  1402                           ;C:\Program Files (x86)\Microchip\xc8\v2.10\pic\sources\c99\common\doprnt.c: 299:     wh
      +                          ile (!(i < 1) && (n || (0 < p) || ((0 < w) && (flags & (1 << 1))))) {
  1403  001512  BE48               	btfsc	(dtoa@i+1)^0,7,c
  1404  001514  EF94  F00A         	goto	u1111
  1405  001518  5048               	movf	(dtoa@i+1)^0,w,c
  1406  00151A  E108               	bnz	u1110
  1407  00151C  0447               	decf	dtoa@i^0,w,c
  1408  00151E  A0D8               	btfss	status,0,c
  1409  001520  EF94  F00A         	goto	u1111
  1410  001524  EF96  F00A         	goto	u1110
  1411  001528                     u1111:
  1412  001528  EFC6  F00A         	goto	l1995
  1413  00152C                     u1110:
  1414  00152C  503F               	movf	dtoa@n^0,w,c
  1415  00152E  1040               	iorwf	(dtoa@n+1)^0,w,c
  1416  001530  1041               	iorwf	(dtoa@n+2)^0,w,c
  1417  001532  1042               	iorwf	(dtoa@n+3)^0,w,c
  1418  001534  1043               	iorwf	(dtoa@n+4)^0,w,c
  1419  001536  1044               	iorwf	(dtoa@n+5)^0,w,c
  1420  001538  1045               	iorwf	(dtoa@n+6)^0,w,c
  1421  00153A  1046               	iorwf	(dtoa@n+7)^0,w,c
  1422  00153C  A4D8               	btfss	status,2,c
  1423  00153E  EFA3  F00A         	goto	u1121
  1424  001542  EFA5  F00A         	goto	u1120
  1425  001546                     u1121:
  1426  001546  EF0D  F00A         	goto	l1975
  1427  00154A                     u1120:
  1428  00154A  BE3A               	btfsc	(dtoa@p+1)^0,7,c
  1429  00154C  EFB2  F00A         	goto	u1130
  1430  001550  503A               	movf	(dtoa@p+1)^0,w,c
  1431  001552  E106               	bnz	u1131
  1432  001554  0439               	decf	dtoa@p^0,w,c
  1433  001556  B0D8               	btfsc	status,0,c
  1434  001558  EFB0  F00A         	goto	u1131
  1435  00155C  EFB2  F00A         	goto	u1130
  1436  001560                     u1131:
  1437  001560  EF0D  F00A         	goto	l1975
  1438  001564                     u1130:
  1439  001564  BE3C               	btfsc	(dtoa@w+1)^0,7,c
  1440  001566  EFBD  F00A         	goto	u1141
  1441  00156A  503C               	movf	(dtoa@w+1)^0,w,c
  1442  00156C  E108               	bnz	u1140
  1443  00156E  043B               	decf	dtoa@w^0,w,c
  1444  001570  A0D8               	btfss	status,0,c
  1445  001572  EFBD  F00A         	goto	u1141
  1446  001576  EFBF  F00A         	goto	u1140
  1447  00157A                     u1141:
  1448  00157A  EFC6  F00A         	goto	l1995
  1449  00157E                     u1140:
  1450  00157E  B24F               	btfsc	_flags^0,1,c
  1451  001580  EFC4  F00A         	goto	u1151
  1452  001584  EFC6  F00A         	goto	u1150
  1453  001588                     u1151:
  1454  001588  EF0D  F00A         	goto	l1975
  1455  00158C                     u1150:
  1456  00158C                     l1995:
  1457                           
  1458                           ;C:\Program Files (x86)\Microchip\xc8\v2.10\pic\sources\c99\common\doprnt.c: 308:     if
      +                           (s || (flags & (1 << 2))) {
  1459  00158C  503D               	movf	dtoa@s^0,w,c
  1460  00158E  103E               	iorwf	(dtoa@s+1)^0,w,c
  1461  001590  A4D8               	btfss	status,2,c
  1462  001592  EFCD  F00A         	goto	u1161
  1463  001596  EFCF  F00A         	goto	u1160
  1464  00159A                     u1161:
  1465  00159A  EFD6  F00A         	goto	l1999
  1466  00159E                     u1160:
  1467  00159E  A44F               	btfss	_flags^0,2,c
  1468  0015A0  EFD4  F00A         	goto	u1171
  1469  0015A4  EFD6  F00A         	goto	u1170
  1470  0015A8                     u1171:
  1471  0015A8  EFF4  F00A         	goto	l2009
  1472  0015AC                     u1170:
  1473  0015AC                     l1999:
  1474                           
  1475                           ;C:\Program Files (x86)\Microchip\xc8\v2.10\pic\sources\c99\common\doprnt.c: 309:       
      +                            --i;
  1476  0015AC  0647               	decf	dtoa@i^0,f,c
  1477  0015AE  A0D8               	btfss	status,0,c
  1478  0015B0  0648               	decf	(dtoa@i+1)^0,f,c
  1479  0015B2                     
  1480                           ;C:\Program Files (x86)\Microchip\xc8\v2.10\pic\sources\c99\common\doprnt.c: 310:       
      +                            dbuf[i] = s ? '-' : '+';
  1481  0015B2  503D               	movf	dtoa@s^0,w,c
  1482  0015B4  103E               	iorwf	(dtoa@s+1)^0,w,c
  1483  0015B6  A4D8               	btfss	status,2,c
  1484  0015B8  EFE0  F00A         	goto	u1181
  1485  0015BC  EFE2  F00A         	goto	u1180
  1486  0015C0                     u1181:
  1487  0015C0  EFE8  F00A         	goto	l2005
  1488  0015C4                     u1180:
  1489  0015C4  0E00               	movlw	0
  1490  0015C6  6E38               	movwf	(_dtoa$1193+1)^0,c
  1491  0015C8  0E2B               	movlw	43
  1492  0015CA  6E37               	movwf	_dtoa$1193^0,c
  1493  0015CC  EFEC  F00A         	goto	l2007
  1494  0015D0                     l2005:
  1495  0015D0  0E00               	movlw	0
  1496  0015D2  6E38               	movwf	(_dtoa$1193+1)^0,c
  1497  0015D4  0E2D               	movlw	45
  1498  0015D6  6E37               	movwf	_dtoa$1193^0,c
  1499  0015D8                     l2007:
  1500  0015D8  0E75               	movlw	low _dbuf
  1501  0015DA  2447               	addwf	dtoa@i^0,w,c
  1502  0015DC  6ED9               	movwf	fsr2l,c
  1503  0015DE  0E00               	movlw	high _dbuf
  1504  0015E0  2048               	addwfc	(dtoa@i+1)^0,w,c
  1505  0015E2  6EDA               	movwf	fsr2h,c
  1506  0015E4  C037  FFDF         	movff	_dtoa$1193,indf2
  1507  0015E8                     l2009:
  1508                           
  1509                           ;C:\Program Files (x86)\Microchip\xc8\v2.10\pic\sources\c99\common\doprnt.c: 314:     re
      +                          turn pad(fp, &dbuf[i], w);
  1510  0015E8  C025  F01A         	movff	dtoa@fp,pad@fp
  1511  0015EC  C026  F01B         	movff	dtoa@fp+1,pad@fp+1
  1512  0015F0  0E75               	movlw	low _dbuf
  1513  0015F2  2447               	addwf	dtoa@i^0,w,c
  1514  0015F4  6E1C               	movwf	pad@buf^0,c
  1515  0015F6  0E00               	movlw	high _dbuf
  1516  0015F8  2048               	addwfc	(dtoa@i+1)^0,w,c
  1517  0015FA  6E1D               	movwf	(pad@buf+1)^0,c
  1518  0015FC  C03B  F01E         	movff	dtoa@w,pad@p
  1519  001600  C03C  F01F         	movff	dtoa@w+1,pad@p+1
  1520  001604  ECC2  F00D         	call	_pad	;wreg free
  1521  001608  C01A  F025         	movff	?_pad,?_dtoa
  1522  00160C  C01B  F026         	movff	?_pad+1,?_dtoa+1
  1523  001610  0012               	return		;funcret
  1524  001612                     __end_of_dtoa:
  1525                           	opt callstack 0
  1526                           
  1527 ;; *************** function _pad *****************
  1528 ;; Defined at:
  1529 ;;		line 72 in file "C:\Program Files (x86)\Microchip\xc8\v2.10\pic\sources\c99\common\doprnt.c"
  1530 ;; Parameters:    Size  Location     Type
  1531 ;;  fp              2   25[COMRAM] PTR struct _IO_FILE
  1532 ;;		 -> NULL(0), 
  1533 ;;  buf             2   27[COMRAM] PTR unsigned char 
  1534 ;;		 -> dbuf(32), 
  1535 ;;  p               2   29[COMRAM] int 
  1536 ;; Auto vars:     Size  Location     Type
  1537 ;;  w               2   34[COMRAM] int 
  1538 ;;  i               2   32[COMRAM] int 
  1539 ;; Return value:  Size  Location     Type
  1540 ;;                  2   25[COMRAM] int 
  1541 ;; Registers used:
  1542 ;;		wreg, fsr1l, fsr1h, fsr2l, fsr2h, status,2, status,0, cstack
  1543 ;; Tracked objects:
  1544 ;;		On entry : 0/0
  1545 ;;		On exit  : 0/0
  1546 ;;		Unchanged: 0/0
  1547 ;; Data sizes:     COMRAM   BANK0   BANK1   BANK2   BANK3   BANK4   BANK5   BANK6   BANK7   BANK8   BANK9  BANK10  BANK1
      +1  BANK12  BANK13  BANK14  BANK15
  1548 ;;      Params:         6       0       0       0       0       0       0       0       0       0       0       0       
      +0       0       0       0       0
  1549 ;;      Locals:         4       0       0       0       0       0       0       0       0       0       0       0       
      +0       0       0       0       0
  1550 ;;      Temps:          1       0       0       0       0       0       0       0       0       0       0       0       
      +0       0       0       0       0
  1551 ;;      Totals:        11       0       0       0       0       0       0       0       0       0       0       0       
      +0       0       0       0       0
  1552 ;;Total ram usage:       11 bytes
  1553 ;; Hardware stack levels used:    1
  1554 ;; Hardware stack levels required when called:    7
  1555 ;; This function calls:
  1556 ;;		_fputc
  1557 ;;		_fputs
  1558 ;;		_strlen
  1559 ;; This function is called by:
  1560 ;;		_dtoa
  1561 ;; This function uses a non-reentrant model
  1562 ;;
  1563                           
  1564                           	psect	text5
  1565  001B84                     __ptext5:
  1566                           	opt callstack 0
  1567  001B84                     _pad:
  1568                           	opt callstack 19
  1569  001B84                     
  1570                           ;C:\Program Files (x86)\Microchip\xc8\v2.10\pic\sources\c99\common\doprnt.c: 72: static 
      +                          int pad(FILE *fp, char *buf, int p);C:\Program Files (x86)\Microchip\xc8\v2.10\pic\sourc
      +                          es\c99\common\doprnt.c: 73: {;C:\Program Files (x86)\Microchip\xc8\v2.10\pic\sources\c99
      +                          \common\doprnt.c: 74:     int i, w;;C:\Program Files (x86)\Microchip\xc8\v2.10\pic\sourc
      +                          es\c99\common\doprnt.c: 77:     if (flags & (1 << 0)) {
  1571  001B84  A04F               	btfss	_flags^0,0,c
  1572  001B86  EFC7  F00D         	goto	u851
  1573  001B8A  EFC9  F00D         	goto	u850
  1574  001B8E                     u851:
  1575  001B8E  EFD3  F00D         	goto	l1845
  1576  001B92                     u850:
  1577  001B92                     
  1578                           ;C:\Program Files (x86)\Microchip\xc8\v2.10\pic\sources\c99\common\doprnt.c: 78:        
      +                           fputs((const char *)buf, fp);
  1579  001B92  C01C  F013         	movff	pad@buf,fputs@s
  1580  001B96  C01D  F014         	movff	pad@buf+1,fputs@s+1
  1581  001B9A  C01A  F015         	movff	pad@fp,fputs@fp
  1582  001B9E  C01B  F016         	movff	pad@fp+1,fputs@fp+1
  1583  001BA2  ECA0  F00F         	call	_fputs	;wreg free
  1584  001BA6                     l1845:
  1585                           
  1586                           ;C:\Program Files (x86)\Microchip\xc8\v2.10\pic\sources\c99\common\doprnt.c: 82:     w =
      +                           (p < 0) ? 0 : p;
  1587  001BA6  BE1F               	btfsc	(pad@p+1)^0,7,c
  1588  001BA8  EFD8  F00D         	goto	u861
  1589  001BAC  EFDA  F00D         	goto	u860
  1590  001BB0                     u861:
  1591  001BB0  EFE0  F00D         	goto	l1849
  1592  001BB4                     u860:
  1593  001BB4  C01E  F023         	movff	pad@p,pad@w
  1594  001BB8  C01F  F024         	movff	pad@p+1,pad@w+1
  1595  001BBC  EFE4  F00D         	goto	l400
  1596  001BC0                     l1849:
  1597  001BC0  0E00               	movlw	0
  1598  001BC2  6E24               	movwf	(pad@w+1)^0,c
  1599  001BC4  0E00               	movlw	0
  1600  001BC6  6E23               	movwf	pad@w^0,c
  1601  001BC8                     l400:
  1602                           
  1603                           ;C:\Program Files (x86)\Microchip\xc8\v2.10\pic\sources\c99\common\doprnt.c: 83:     i =
      +                           0;
  1604  001BC8  0E00               	movlw	0
  1605  001BCA  6E22               	movwf	(pad@i+1)^0,c
  1606  001BCC  0E00               	movlw	0
  1607  001BCE  6E21               	movwf	pad@i^0,c
  1608                           
  1609                           ;C:\Program Files (x86)\Microchip\xc8\v2.10\pic\sources\c99\common\doprnt.c: 84:     whi
      +                          le (i < w) {
  1610  001BD0  EFF6  F00D         	goto	l1855
  1611  001BD4                     l1851:
  1612                           
  1613                           ;C:\Program Files (x86)\Microchip\xc8\v2.10\pic\sources\c99\common\doprnt.c: 85:        
      +                           fputc(' ', fp);
  1614  001BD4  0E00               	movlw	0
  1615  001BD6  6E0B               	movwf	(fputc@c+1)^0,c
  1616  001BD8  0E20               	movlw	32
  1617  001BDA  6E0A               	movwf	fputc@c^0,c
  1618  001BDC  C01A  F00C         	movff	pad@fp,fputc@fp
  1619  001BE0  C01B  F00D         	movff	pad@fp+1,fputc@fp+1
  1620  001BE4  EC23  F00E         	call	_fputc	;wreg free
  1621  001BE8                     
  1622                           ;C:\Program Files (x86)\Microchip\xc8\v2.10\pic\sources\c99\common\doprnt.c: 86:        
      +                           ++i;
  1623  001BE8  4A21               	infsnz	pad@i^0,f,c
  1624  001BEA  2A22               	incf	(pad@i+1)^0,f,c
  1625  001BEC                     l1855:
  1626                           
  1627                           ;C:\Program Files (x86)\Microchip\xc8\v2.10\pic\sources\c99\common\doprnt.c: 84:     whi
      +                          le (i < w) {
  1628  001BEC  5023               	movf	pad@w^0,w,c
  1629  001BEE  5C21               	subwf	pad@i^0,w,c
  1630  001BF0  5022               	movf	(pad@i+1)^0,w,c
  1631  001BF2  0A80               	xorlw	128
  1632  001BF4  6E20               	movwf	??_pad^0,c
  1633  001BF6  5024               	movf	(pad@w+1)^0,w,c
  1634  001BF8  0A80               	xorlw	128
  1635  001BFA  5820               	subwfb	??_pad^0,w,c
  1636  001BFC  A0D8               	btfss	status,0,c
  1637  001BFE  EF03  F00E         	goto	u871
  1638  001C02  EF05  F00E         	goto	u870
  1639  001C06                     u871:
  1640  001C06  EFEA  F00D         	goto	l1851
  1641  001C0A                     u870:
  1642  001C0A                     
  1643                           ;C:\Program Files (x86)\Microchip\xc8\v2.10\pic\sources\c99\common\doprnt.c: 90:     if 
      +                          (!(flags & (1 << 0))) {
  1644  001C0A  B04F               	btfsc	_flags^0,0,c
  1645  001C0C  EF0A  F00E         	goto	u881
  1646  001C10  EF0C  F00E         	goto	u880
  1647  001C14                     u881:
  1648  001C14  EF16  F00E         	goto	l1859
  1649  001C18                     u880:
  1650  001C18                     
  1651                           ;C:\Program Files (x86)\Microchip\xc8\v2.10\pic\sources\c99\common\doprnt.c: 91:        
      +                           fputs((const char *)buf, fp);
  1652  001C18  C01C  F013         	movff	pad@buf,fputs@s
  1653  001C1C  C01D  F014         	movff	pad@buf+1,fputs@s+1
  1654  001C20  C01A  F015         	movff	pad@fp,fputs@fp
  1655  001C24  C01B  F016         	movff	pad@fp+1,fputs@fp+1
  1656  001C28  ECA0  F00F         	call	_fputs	;wreg free
  1657  001C2C                     l1859:
  1658                           
  1659                           ;C:\Program Files (x86)\Microchip\xc8\v2.10\pic\sources\c99\common\doprnt.c: 94:     ret
      +                          urn strlen(buf) + w;
  1660  001C2C  C01C  F008         	movff	pad@buf,strlen@s
  1661  001C30  C01D  F009         	movff	pad@buf+1,strlen@s+1
  1662  001C34  EC43  F010         	call	_strlen	;wreg free
  1663  001C38  5023               	movf	pad@w^0,w,c
  1664  001C3A  2408               	addwf	?_strlen^0,w,c
  1665  001C3C  6E1A               	movwf	?_pad^0,c
  1666  001C3E  5024               	movf	(pad@w+1)^0,w,c
  1667  001C40  2009               	addwfc	(?_strlen+1)^0,w,c
  1668  001C42  6E1B               	movwf	(?_pad+1)^0,c
  1669  001C44  0012               	return		;funcret
  1670  001C46                     __end_of_pad:
  1671                           	opt callstack 0
  1672                           
  1673 ;; *************** function _strlen *****************
  1674 ;; Defined at:
  1675 ;;		line 5 in file "C:\Program Files (x86)\Microchip\xc8\v2.10\pic\sources\c99\common\strlen.c"
  1676 ;; Parameters:    Size  Location     Type
  1677 ;;  s               2    7[COMRAM] PTR const unsigned char 
  1678 ;;		 -> dbuf(32), 
  1679 ;; Auto vars:     Size  Location     Type
  1680 ;;  a               2    9[COMRAM] PTR const unsigned char 
  1681 ;;		 -> dbuf(32), 
  1682 ;; Return value:  Size  Location     Type
  1683 ;;                  2    7[COMRAM] unsigned int 
  1684 ;; Registers used:
  1685 ;;		wreg, fsr2l, fsr2h, status,2, status,0
  1686 ;; Tracked objects:
  1687 ;;		On entry : 0/0
  1688 ;;		On exit  : 0/0
  1689 ;;		Unchanged: 0/0
  1690 ;; Data sizes:     COMRAM   BANK0   BANK1   BANK2   BANK3   BANK4   BANK5   BANK6   BANK7   BANK8   BANK9  BANK10  BANK1
      +1  BANK12  BANK13  BANK14  BANK15
  1691 ;;      Params:         2       0       0       0       0       0       0       0       0       0       0       0       
      +0       0       0       0       0
  1692 ;;      Locals:         2       0       0       0       0       0       0       0       0       0       0       0       
      +0       0       0       0       0
  1693 ;;      Temps:          0       0       0       0       0       0       0       0       0       0       0       0       
      +0       0       0       0       0
  1694 ;;      Totals:         4       0       0       0       0       0       0       0       0       0       0       0       
      +0       0       0       0       0
  1695 ;;Total ram usage:        4 bytes
  1696 ;; Hardware stack levels used:    1
  1697 ;; Hardware stack levels required when called:    3
  1698 ;; This function calls:
  1699 ;;		Nothing
  1700 ;; This function is called by:
  1701 ;;		_pad
  1702 ;; This function uses a non-reentrant model
  1703 ;;
  1704                           
  1705                           	psect	text6
  1706  002086                     __ptext6:
  1707                           	opt callstack 0
  1708  002086                     _strlen:
  1709                           	opt callstack 22
  1710  002086  C008  F00A         	movff	strlen@s,strlen@a
  1711  00208A  C009  F00B         	movff	strlen@s+1,strlen@a+1
  1712  00208E  EF4B  F010         	goto	l1835
  1713  002092                     l1833:
  1714  002092  4A08               	infsnz	strlen@s^0,f,c
  1715  002094  2A09               	incf	(strlen@s+1)^0,f,c
  1716  002096                     l1835:
  1717  002096  C008  FFD9         	movff	strlen@s,fsr2l
  1718  00209A  C009  FFDA         	movff	strlen@s+1,fsr2h
  1719  00209E  50DF               	movf	indf2,w,c
  1720  0020A0  A4D8               	btfss	status,2,c
  1721  0020A2  EF55  F010         	goto	u841
  1722  0020A6  EF57  F010         	goto	u840
  1723  0020AA                     u841:
  1724  0020AA  EF49  F010         	goto	l1833
  1725  0020AE                     u840:
  1726  0020AE  500A               	movf	strlen@a^0,w,c
  1727  0020B0  5C08               	subwf	strlen@s^0,w,c
  1728  0020B2  6E08               	movwf	?_strlen^0,c
  1729  0020B4  500B               	movf	(strlen@a+1)^0,w,c
  1730  0020B6  5809               	subwfb	(strlen@s+1)^0,w,c
  1731  0020B8  6E09               	movwf	(?_strlen+1)^0,c
  1732  0020BA  0012               	return		;funcret
  1733  0020BC                     __end_of_strlen:
  1734                           	opt callstack 0
  1735                           
  1736 ;; *************** function _fputs *****************
  1737 ;; Defined at:
  1738 ;;		line 8 in file "C:\Program Files (x86)\Microchip\xc8\v2.10\pic\sources\c99\common\nf_fputs.c"
  1739 ;; Parameters:    Size  Location     Type
  1740 ;;  s               2   18[COMRAM] PTR const unsigned char 
  1741 ;;		 -> dbuf(32), 
  1742 ;;  fp              2   20[COMRAM] PTR struct _IO_FILE
  1743 ;;		 -> NULL(0), 
  1744 ;; Auto vars:     Size  Location     Type
  1745 ;;  i               2   23[COMRAM] int 
  1746 ;;  c               1   22[COMRAM] unsigned char 
  1747 ;; Return value:  Size  Location     Type
  1748 ;;                  2   18[COMRAM] int 
  1749 ;; Registers used:
  1750 ;;		wreg, fsr1l, fsr1h, fsr2l, fsr2h, status,2, status,0, cstack
  1751 ;; Tracked objects:
  1752 ;;		On entry : 0/0
  1753 ;;		On exit  : 0/0
  1754 ;;		Unchanged: 0/0
  1755 ;; Data sizes:     COMRAM   BANK0   BANK1   BANK2   BANK3   BANK4   BANK5   BANK6   BANK7   BANK8   BANK9  BANK10  BANK1
      +1  BANK12  BANK13  BANK14  BANK15
  1756 ;;      Params:         4       0       0       0       0       0       0       0       0       0       0       0       
      +0       0       0       0       0
  1757 ;;      Locals:         3       0       0       0       0       0       0       0       0       0       0       0       
      +0       0       0       0       0
  1758 ;;      Temps:          0       0       0       0       0       0       0       0       0       0       0       0       
      +0       0       0       0       0
  1759 ;;      Totals:         7       0       0       0       0       0       0       0       0       0       0       0       
      +0       0       0       0       0
  1760 ;;Total ram usage:        7 bytes
  1761 ;; Hardware stack levels used:    1
  1762 ;; Hardware stack levels required when called:    6
  1763 ;; This function calls:
  1764 ;;		_fputc
  1765 ;; This function is called by:
  1766 ;;		_pad
  1767 ;; This function uses a non-reentrant model
  1768 ;;
  1769                           
  1770                           	psect	text7
  1771  001F40                     __ptext7:
  1772                           	opt callstack 0
  1773  001F40                     _fputs:
  1774                           	opt callstack 19
  1775  001F40  0E00               	movlw	0
  1776  001F42  6E19               	movwf	(fputs@i+1)^0,c
  1777  001F44  0E00               	movlw	0
  1778  001F46  6E18               	movwf	fputs@i^0,c
  1779  001F48  EFB1  F00F         	goto	l1829
  1780  001F4C                     l1825:
  1781  001F4C  C017  F00A         	movff	fputs@c,fputc@c
  1782  001F50  6A0B               	clrf	(fputc@c+1)^0,c
  1783  001F52  C015  F00C         	movff	fputs@fp,fputc@fp
  1784  001F56  C016  F00D         	movff	fputs@fp+1,fputc@fp+1
  1785  001F5A  EC23  F00E         	call	_fputc	;wreg free
  1786  001F5E  4A18               	infsnz	fputs@i^0,f,c
  1787  001F60  2A19               	incf	(fputs@i+1)^0,f,c
  1788  001F62                     l1829:
  1789  001F62  5018               	movf	fputs@i^0,w,c
  1790  001F64  2413               	addwf	fputs@s^0,w,c
  1791  001F66  6ED9               	movwf	fsr2l,c
  1792  001F68  5019               	movf	(fputs@i+1)^0,w,c
  1793  001F6A  2014               	addwfc	(fputs@s+1)^0,w,c
  1794  001F6C  6EDA               	movwf	fsr2h,c
  1795  001F6E  50DF               	movf	indf2,w,c
  1796  001F70  6E17               	movwf	fputs@c^0,c
  1797  001F72  5017               	movf	fputs@c^0,w,c
  1798  001F74  A4D8               	btfss	status,2,c
  1799  001F76  EFBF  F00F         	goto	u831
  1800  001F7A  EFC1  F00F         	goto	u830
  1801  001F7E                     u831:
  1802  001F7E  EFA6  F00F         	goto	l1825
  1803  001F82                     u830:
  1804  001F82  0012               	return		;funcret
  1805  001F84                     __end_of_fputs:
  1806                           	opt callstack 0
  1807                           
  1808 ;; *************** function _fputc *****************
  1809 ;; Defined at:
  1810 ;;		line 8 in file "C:\Program Files (x86)\Microchip\xc8\v2.10\pic\sources\c99\common\nf_fputc.c"
  1811 ;; Parameters:    Size  Location     Type
  1812 ;;  c               2    9[COMRAM] int 
  1813 ;;  fp              2   11[COMRAM] PTR struct _IO_FILE
  1814 ;;		 -> NULL(0), 
  1815 ;; Auto vars:     Size  Location     Type
  1816 ;;		None
  1817 ;; Return value:  Size  Location     Type
  1818 ;;                  2    9[COMRAM] int 
  1819 ;; Registers used:
  1820 ;;		wreg, fsr1l, fsr1h, fsr2l, fsr2h, status,2, status,0, cstack
  1821 ;; Tracked objects:
  1822 ;;		On entry : 0/0
  1823 ;;		On exit  : 0/0
  1824 ;;		Unchanged: 0/0
  1825 ;; Data sizes:     COMRAM   BANK0   BANK1   BANK2   BANK3   BANK4   BANK5   BANK6   BANK7   BANK8   BANK9  BANK10  BANK1
      +1  BANK12  BANK13  BANK14  BANK15
  1826 ;;      Params:         4       0       0       0       0       0       0       0       0       0       0       0       
      +0       0       0       0       0
  1827 ;;      Locals:         0       0       0       0       0       0       0       0       0       0       0       0       
      +0       0       0       0       0
  1828 ;;      Temps:          5       0       0       0       0       0       0       0       0       0       0       0       
      +0       0       0       0       0
  1829 ;;      Totals:         9       0       0       0       0       0       0       0       0       0       0       0       
      +0       0       0       0       0
  1830 ;;Total ram usage:        9 bytes
  1831 ;; Hardware stack levels used:    1
  1832 ;; Hardware stack levels required when called:    5
  1833 ;; This function calls:
  1834 ;;		_putch
  1835 ;; This function is called by:
  1836 ;;		_pad
  1837 ;;		_vfpfcnvrt
  1838 ;;		_fputs
  1839 ;; This function uses a non-reentrant model
  1840 ;;
  1841                           
  1842                           	psect	text8
  1843  001C46                     __ptext8:
  1844                           	opt callstack 0
  1845  001C46                     _fputc:
  1846                           	opt callstack 22
  1847  001C46  500C               	movf	fputc@fp^0,w,c
  1848  001C48  100D               	iorwf	(fputc@fp+1)^0,w,c
  1849  001C4A  B4D8               	btfsc	status,2,c
  1850  001C4C  EF2A  F00E         	goto	u791
  1851  001C50  EF2C  F00E         	goto	u790
  1852  001C54                     u791:
  1853  001C54  EF35  F00E         	goto	l1813
  1854  001C58                     u790:
  1855  001C58  500C               	movf	fputc@fp^0,w,c
  1856  001C5A  100D               	iorwf	(fputc@fp+1)^0,w,c
  1857  001C5C  A4D8               	btfss	status,2,c
  1858  001C5E  EF33  F00E         	goto	u801
  1859  001C62  EF35  F00E         	goto	u800
  1860  001C66                     u801:
  1861  001C66  EF3A  F00E         	goto	l1815
  1862  001C6A                     u800:
  1863  001C6A                     l1813:
  1864  001C6A  500A               	movf	fputc@c^0,w,c
  1865  001C6C  ECD2  F010         	call	_putch
  1866  001C70  EF6D  F00E         	goto	l1138
  1867  001C74                     l1815:
  1868  001C74  EE20 F004          	lfsr	2,4
  1869  001C78  500C               	movf	fputc@fp^0,w,c
  1870  001C7A  26D9               	addwf	fsr2l,f,c
  1871  001C7C  500D               	movf	(fputc@fp+1)^0,w,c
  1872  001C7E  22DA               	addwfc	fsr2h,f,c
  1873  001C80  50DE               	movf	postinc2,w,c
  1874  001C82  10DE               	iorwf	postinc2,w,c
  1875  001C84  B4D8               	btfsc	status,2,c
  1876  001C86  EF47  F00E         	goto	u811
  1877  001C8A  EF49  F00E         	goto	u810
  1878  001C8E                     u811:
  1879  001C8E  EF64  F00E         	goto	l1819
  1880  001C92                     u810:
  1881  001C92  EE20 F004          	lfsr	2,4
  1882  001C96  500C               	movf	fputc@fp^0,w,c
  1883  001C98  26D9               	addwf	fsr2l,f,c
  1884  001C9A  500D               	movf	(fputc@fp+1)^0,w,c
  1885  001C9C  22DA               	addwfc	fsr2h,f,c
  1886  001C9E  EE10 F002          	lfsr	1,2
  1887  001CA2  500C               	movf	fputc@fp^0,w,c
  1888  001CA4  26E1               	addwf	fsr1l,f,c
  1889  001CA6  500D               	movf	(fputc@fp+1)^0,w,c
  1890  001CA8  22E2               	addwfc	fsr1h,f,c
  1891  001CAA  50DE               	movf	postinc2,w,c
  1892  001CAC  5CE6               	subwf	postinc1,w,c
  1893  001CAE  50E6               	movf	postinc1,w,c
  1894  001CB0  0A80               	xorlw	128
  1895  001CB2  6E12               	movwf	(??_fputc+4)^0,c
  1896  001CB4  50DE               	movf	postinc2,w,c
  1897  001CB6  0A80               	xorlw	128
  1898  001CB8  5812               	subwfb	(??_fputc+4)^0,w,c
  1899  001CBA  B0D8               	btfsc	status,0,c
  1900  001CBC  EF62  F00E         	goto	u821
  1901  001CC0  EF64  F00E         	goto	u820
  1902  001CC4                     u821:
  1903  001CC4  EF6D  F00E         	goto	l1138
  1904  001CC8                     u820:
  1905  001CC8                     l1819:
  1906  001CC8  EE20 F002          	lfsr	2,2
  1907  001CCC  500C               	movf	fputc@fp^0,w,c
  1908  001CCE  26D9               	addwf	fsr2l,f,c
  1909  001CD0  500D               	movf	(fputc@fp+1)^0,w,c
  1910  001CD2  22DA               	addwfc	fsr2h,f,c
  1911  001CD4  2ADE               	incf	postinc2,f,c
  1912  001CD6  0E00               	movlw	0
  1913  001CD8  22DD               	addwfc	postdec2,f,c
  1914  001CDA                     l1138:
  1915  001CDA  0012               	return		;funcret
  1916  001CDC                     __end_of_fputc:
  1917                           	opt callstack 0
  1918                           
  1919 ;; *************** function _putch *****************
  1920 ;; Defined at:
  1921 ;;		line 146 in file "mcc_generated_files/eusart1.c"
  1922 ;; Parameters:    Size  Location     Type
  1923 ;;  txData          1    wreg     unsigned char 
  1924 ;; Auto vars:     Size  Location     Type
  1925 ;;  txData          1    8[COMRAM] unsigned char 
  1926 ;; Return value:  Size  Location     Type
  1927 ;;                  1    wreg      void 
  1928 ;; Registers used:
  1929 ;;		wreg, status,2, cstack
  1930 ;; Tracked objects:
  1931 ;;		On entry : 0/0
  1932 ;;		On exit  : 0/0
  1933 ;;		Unchanged: 0/0
  1934 ;; Data sizes:     COMRAM   BANK0   BANK1   BANK2   BANK3   BANK4   BANK5   BANK6   BANK7   BANK8   BANK9  BANK10  BANK1
      +1  BANK12  BANK13  BANK14  BANK15
  1935 ;;      Params:         0       0       0       0       0       0       0       0       0       0       0       0       
      +0       0       0       0       0
  1936 ;;      Locals:         1       0       0       0       0       0       0       0       0       0       0       0       
      +0       0       0       0       0
  1937 ;;      Temps:          0       0       0       0       0       0       0       0       0       0       0       0       
      +0       0       0       0       0
  1938 ;;      Totals:         1       0       0       0       0       0       0       0       0       0       0       0       
      +0       0       0       0       0
  1939 ;;Total ram usage:        1 bytes
  1940 ;; Hardware stack levels used:    1
  1941 ;; Hardware stack levels required when called:    4
  1942 ;; This function calls:
  1943 ;;		_EUSART1_Write
  1944 ;; This function is called by:
  1945 ;;		_fputc
  1946 ;; This function uses a non-reentrant model
  1947 ;;
  1948                           
  1949                           	psect	text9
  1950  0021A4                     __ptext9:
  1951                           	opt callstack 0
  1952  0021A4                     _putch:
  1953                           	opt callstack 22
  1954                           
  1955                           ;incstack = 0
  1956                           ;putch@txData stored from wreg
  1957  0021A4  6E09               	movwf	putch@txData^0,c
  1958  0021A6                     
  1959                           ;mcc_generated_files/eusart1.c: 146: void putch(char txData);mcc_generated_files/eusart1
      +                          .c: 147: {;mcc_generated_files/eusart1.c: 148:     EUSART1_Write(txData);
  1960  0021A6  5009               	movf	putch@txData^0,w,c
  1961  0021A8  ECAC  F010         	call	_EUSART1_Write
  1962  0021AC  0012               	return		;funcret
  1963  0021AE                     __end_of_putch:
  1964                           	opt callstack 0
  1965                           
  1966 ;; *************** function _EUSART1_Write *****************
  1967 ;; Defined at:
  1968 ;;		line 132 in file "mcc_generated_files/eusart1.c"
  1969 ;; Parameters:    Size  Location     Type
  1970 ;;  txData          1    wreg     unsigned char 
  1971 ;; Auto vars:     Size  Location     Type
  1972 ;;  txData          1    7[COMRAM] unsigned char 
  1973 ;; Return value:  Size  Location     Type
  1974 ;;                  1    wreg      void 
  1975 ;; Registers used:
  1976 ;;		wreg
  1977 ;; Tracked objects:
  1978 ;;		On entry : 0/0
  1979 ;;		On exit  : 0/0
  1980 ;;		Unchanged: 0/0
  1981 ;; Data sizes:     COMRAM   BANK0   BANK1   BANK2   BANK3   BANK4   BANK5   BANK6   BANK7   BANK8   BANK9  BANK10  BANK1
      +1  BANK12  BANK13  BANK14  BANK15
  1982 ;;      Params:         0       0       0       0       0       0       0       0       0       0       0       0       
      +0       0       0       0       0
  1983 ;;      Locals:         1       0       0       0       0       0       0       0       0       0       0       0       
      +0       0       0       0       0
  1984 ;;      Temps:          0       0       0       0       0       0       0       0       0       0       0       0       
      +0       0       0       0       0
  1985 ;;      Totals:         1       0       0       0       0       0       0       0       0       0       0       0       
      +0       0       0       0       0
  1986 ;;Total ram usage:        1 bytes
  1987 ;; Hardware stack levels used:    1
  1988 ;; Hardware stack levels required when called:    3
  1989 ;; This function calls:
  1990 ;;		Nothing
  1991 ;; This function is called by:
  1992 ;;		_putch
  1993 ;; This function uses a non-reentrant model
  1994 ;;
  1995                           
  1996                           	psect	text10
  1997  002158                     __ptext10:
  1998                           	opt callstack 0
  1999  002158                     _EUSART1_Write:
  2000                           	opt callstack 22
  2001                           
  2002                           ;incstack = 0
  2003                           ;EUSART1_Write@txData stored from wreg
  2004  002158  6E08               	movwf	EUSART1_Write@txData^0,c
  2005  00215A                     l346:
  2006                           
  2007                           ;mcc_generated_files/eusart1.c: 134:     while(0 == PIR1bits.TX1IF)
  2008  00215A  A89E               	btfss	158,4,c	;volatile
  2009  00215C  EFB2  F010         	goto	u781
  2010  002160  EFB4  F010         	goto	u780
  2011  002164                     u781:
  2012  002164  EFAD  F010         	goto	l346
  2013  002168                     u780:
  2014  002168                     
  2015                           ;mcc_generated_files/eusart1.c: 138:     TXREG1 = txData;
  2016  002168  C008  FFAD         	movff	EUSART1_Write@txData,4013	;volatile
  2017  00216C  0012               	return		;funcret
  2018  00216E                     __end_of_EUSART1_Write:
  2019                           	opt callstack 0
  2020                           
  2021 ;; *************** function _abs *****************
  2022 ;; Defined at:
  2023 ;;		line 1 in file "C:\Program Files (x86)\Microchip\xc8\v2.10\pic\sources\c99\common\abs.c"
  2024 ;; Parameters:    Size  Location     Type
  2025 ;;  a               2   25[COMRAM] int 
  2026 ;; Auto vars:     Size  Location     Type
  2027 ;;		None
  2028 ;; Return value:  Size  Location     Type
  2029 ;;                  2   25[COMRAM] int 
  2030 ;; Registers used:
  2031 ;;		wreg, status,2, status,0
  2032 ;; Tracked objects:
  2033 ;;		On entry : 0/0
  2034 ;;		On exit  : 0/0
  2035 ;;		Unchanged: 0/0
  2036 ;; Data sizes:     COMRAM   BANK0   BANK1   BANK2   BANK3   BANK4   BANK5   BANK6   BANK7   BANK8   BANK9  BANK10  BANK1
      +1  BANK12  BANK13  BANK14  BANK15
  2037 ;;      Params:         2       0       0       0       0       0       0       0       0       0       0       0       
      +0       0       0       0       0
  2038 ;;      Locals:         0       0       0       0       0       0       0       0       0       0       0       0       
      +0       0       0       0       0
  2039 ;;      Temps:          2       0       0       0       0       0       0       0       0       0       0       0       
      +0       0       0       0       0
  2040 ;;      Totals:         4       0       0       0       0       0       0       0       0       0       0       0       
      +0       0       0       0       0
  2041 ;;Total ram usage:        4 bytes
  2042 ;; Hardware stack levels used:    1
  2043 ;; Hardware stack levels required when called:    3
  2044 ;; This function calls:
  2045 ;;		Nothing
  2046 ;; This function is called by:
  2047 ;;		_dtoa
  2048 ;; This function uses a non-reentrant model
  2049 ;;
  2050                           
  2051                           	psect	text11
  2052  001FC8                     __ptext11:
  2053                           	opt callstack 0
  2054  001FC8                     _abs:
  2055                           	opt callstack 23
  2056  001FC8  BE1B               	btfsc	(abs@a+1)^0,7,c
  2057  001FCA  EFF1  F00F         	goto	u890
  2058  001FCE  501B               	movf	(abs@a+1)^0,w,c
  2059  001FD0  E106               	bnz	u891
  2060  001FD2  041A               	decf	abs@a^0,w,c
  2061  001FD4  B0D8               	btfsc	status,0,c
  2062  001FD6  EFEF  F00F         	goto	u891
  2063  001FDA  EFF1  F00F         	goto	u890
  2064  001FDE                     u891:
  2065  001FDE  EFFF  F00F         	goto	l1123
  2066  001FE2                     u890:
  2067  001FE2  C01A  F01C         	movff	abs@a,??_abs
  2068  001FE6  C01B  F01D         	movff	abs@a+1,??_abs+1
  2069  001FEA  1E1C               	comf	??_abs^0,f,c
  2070  001FEC  1E1D               	comf	(??_abs+1)^0,f,c
  2071  001FEE  4A1C               	infsnz	??_abs^0,f,c
  2072  001FF0  2A1D               	incf	(??_abs+1)^0,f,c
  2073  001FF2  C01C  F01A         	movff	??_abs,?_abs
  2074  001FF6  C01D  F01B         	movff	??_abs+1,?_abs+1
  2075  001FFA  EF03  F010         	goto	l1126
  2076  001FFE                     l1123:
  2077  001FFE  C01A  F01A         	movff	abs@a,?_abs
  2078  002002  C01B  F01B         	movff	abs@a+1,?_abs+1
  2079  002006                     l1126:
  2080  002006  0012               	return		;funcret
  2081  002008                     __end_of_abs:
  2082                           	opt callstack 0
  2083                           
  2084 ;; *************** function ___aomod *****************
  2085 ;; Defined at:
  2086 ;;		line 9 in file "C:\Program Files (x86)\Microchip\xc8\v2.10\pic\sources\c99\common\aomod.c"
  2087 ;; Parameters:    Size  Location     Type
  2088 ;;  dividend        8    7[COMRAM] long long 
  2089 ;;  divisor         8   15[COMRAM] long long 
  2090 ;; Auto vars:     Size  Location     Type
  2091 ;;  sign            1   24[COMRAM] unsigned char 
  2092 ;;  counter         1   23[COMRAM] unsigned char 
  2093 ;; Return value:  Size  Location     Type
  2094 ;;                  8    7[COMRAM] long long 
  2095 ;; Registers used:
  2096 ;;		wreg, status,2, status,0
  2097 ;; Tracked objects:
  2098 ;;		On entry : 0/0
  2099 ;;		On exit  : 0/0
  2100 ;;		Unchanged: 0/0
  2101 ;; Data sizes:     COMRAM   BANK0   BANK1   BANK2   BANK3   BANK4   BANK5   BANK6   BANK7   BANK8   BANK9  BANK10  BANK1
      +1  BANK12  BANK13  BANK14  BANK15
  2102 ;;      Params:        16       0       0       0       0       0       0       0       0       0       0       0       
      +0       0       0       0       0
  2103 ;;      Locals:         2       0       0       0       0       0       0       0       0       0       0       0       
      +0       0       0       0       0
  2104 ;;      Temps:          0       0       0       0       0       0       0       0       0       0       0       0       
      +0       0       0       0       0
  2105 ;;      Totals:        18       0       0       0       0       0       0       0       0       0       0       0       
      +0       0       0       0       0
  2106 ;;Total ram usage:       18 bytes
  2107 ;; Hardware stack levels used:    1
  2108 ;; Hardware stack levels required when called:    3
  2109 ;; This function calls:
  2110 ;;		Nothing
  2111 ;; This function is called by:
  2112 ;;		_dtoa
  2113 ;; This function uses a non-reentrant model
  2114 ;;
  2115                           
  2116                           	psect	text12
  2117  001958                     __ptext12:
  2118                           	opt callstack 0
  2119  001958                     ___aomod:
  2120                           	opt callstack 23
  2121  001958  0E00               	movlw	0
  2122  00195A  6E19               	movwf	___aomod@sign^0,c
  2123  00195C  BE0F               	btfsc	(___aomod@dividend+7)^0,7,c
  2124  00195E  EFB5  F00C         	goto	u970
  2125  001962  EFB3  F00C         	goto	u971
  2126  001966                     u971:
  2127  001966  EFC7  F00C         	goto	l1919
  2128  00196A                     u970:
  2129  00196A  1E0F               	comf	(___aomod@dividend+7)^0,f,c
  2130  00196C  1E0E               	comf	(___aomod@dividend+6)^0,f,c
  2131  00196E  1E0D               	comf	(___aomod@dividend+5)^0,f,c
  2132  001970  1E0C               	comf	(___aomod@dividend+4)^0,f,c
  2133  001972  1E0B               	comf	(___aomod@dividend+3)^0,f,c
  2134  001974  1E0A               	comf	(___aomod@dividend+2)^0,f,c
  2135  001976  1E09               	comf	(___aomod@dividend+1)^0,f,c
  2136  001978  6C08               	negf	___aomod@dividend^0,c
  2137  00197A  0E00               	movlw	0
  2138  00197C  2209               	addwfc	(___aomod@dividend+1)^0,f,c
  2139  00197E  220A               	addwfc	(___aomod@dividend+2)^0,f,c
  2140  001980  220B               	addwfc	(___aomod@dividend+3)^0,f,c
  2141  001982  220C               	addwfc	(___aomod@dividend+4)^0,f,c
  2142  001984  220D               	addwfc	(___aomod@dividend+5)^0,f,c
  2143  001986  220E               	addwfc	(___aomod@dividend+6)^0,f,c
  2144  001988  220F               	addwfc	(___aomod@dividend+7)^0,f,c
  2145  00198A  0E01               	movlw	1
  2146  00198C  6E19               	movwf	___aomod@sign^0,c
  2147  00198E                     l1919:
  2148  00198E  BE17               	btfsc	(___aomod@divisor+7)^0,7,c
  2149  001990  EFCE  F00C         	goto	u980
  2150  001994  EFCC  F00C         	goto	u981
  2151  001998                     u981:
  2152  001998  EFDE  F00C         	goto	l1923
  2153  00199C                     u980:
  2154  00199C  1E17               	comf	(___aomod@divisor+7)^0,f,c
  2155  00199E  1E16               	comf	(___aomod@divisor+6)^0,f,c
  2156  0019A0  1E15               	comf	(___aomod@divisor+5)^0,f,c
  2157  0019A2  1E14               	comf	(___aomod@divisor+4)^0,f,c
  2158  0019A4  1E13               	comf	(___aomod@divisor+3)^0,f,c
  2159  0019A6  1E12               	comf	(___aomod@divisor+2)^0,f,c
  2160  0019A8  1E11               	comf	(___aomod@divisor+1)^0,f,c
  2161  0019AA  6C10               	negf	___aomod@divisor^0,c
  2162  0019AC  0E00               	movlw	0
  2163  0019AE  2211               	addwfc	(___aomod@divisor+1)^0,f,c
  2164  0019B0  2212               	addwfc	(___aomod@divisor+2)^0,f,c
  2165  0019B2  2213               	addwfc	(___aomod@divisor+3)^0,f,c
  2166  0019B4  2214               	addwfc	(___aomod@divisor+4)^0,f,c
  2167  0019B6  2215               	addwfc	(___aomod@divisor+5)^0,f,c
  2168  0019B8  2216               	addwfc	(___aomod@divisor+6)^0,f,c
  2169  0019BA  2217               	addwfc	(___aomod@divisor+7)^0,f,c
  2170  0019BC                     l1923:
  2171  0019BC  5010               	movf	___aomod@divisor^0,w,c
  2172  0019BE  1011               	iorwf	(___aomod@divisor+1)^0,w,c
  2173  0019C0  1012               	iorwf	(___aomod@divisor+2)^0,w,c
  2174  0019C2  1013               	iorwf	(___aomod@divisor+3)^0,w,c
  2175  0019C4  1014               	iorwf	(___aomod@divisor+4)^0,w,c
  2176  0019C6  1015               	iorwf	(___aomod@divisor+5)^0,w,c
  2177  0019C8  1016               	iorwf	(___aomod@divisor+6)^0,w,c
  2178  0019CA  1017               	iorwf	(___aomod@divisor+7)^0,w,c
  2179  0019CC  B4D8               	btfsc	status,2,c
  2180  0019CE  EFEB  F00C         	goto	u991
  2181  0019D2  EFED  F00C         	goto	u990
  2182  0019D6                     u991:
  2183  0019D6  EF35  F00D         	goto	l1939
  2184  0019DA                     u990:
  2185  0019DA  0E01               	movlw	1
  2186  0019DC  6E18               	movwf	___aomod@counter^0,c
  2187  0019DE  EFFB  F00C         	goto	l1929
  2188  0019E2                     l1927:
  2189  0019E2  90D8               	bcf	status,0,c
  2190  0019E4  3610               	rlcf	___aomod@divisor^0,f,c
  2191  0019E6  3611               	rlcf	(___aomod@divisor+1)^0,f,c
  2192  0019E8  3612               	rlcf	(___aomod@divisor+2)^0,f,c
  2193  0019EA  3613               	rlcf	(___aomod@divisor+3)^0,f,c
  2194  0019EC  3614               	rlcf	(___aomod@divisor+4)^0,f,c
  2195  0019EE  3615               	rlcf	(___aomod@divisor+5)^0,f,c
  2196  0019F0  3616               	rlcf	(___aomod@divisor+6)^0,f,c
  2197  0019F2  3617               	rlcf	(___aomod@divisor+7)^0,f,c
  2198  0019F4  2A18               	incf	___aomod@counter^0,f,c
  2199  0019F6                     l1929:
  2200  0019F6  AE17               	btfss	(___aomod@divisor+7)^0,7,c
  2201  0019F8  EF00  F00D         	goto	u1001
  2202  0019FC  EF02  F00D         	goto	u1000
  2203  001A00                     u1001:
  2204  001A00  EFF1  F00C         	goto	l1927
  2205  001A04                     u1000:
  2206  001A04                     l1931:
  2207  001A04  5010               	movf	___aomod@divisor^0,w,c
  2208  001A06  5C08               	subwf	___aomod@dividend^0,w,c
  2209  001A08  5011               	movf	(___aomod@divisor+1)^0,w,c
  2210  001A0A  5809               	subwfb	(___aomod@dividend+1)^0,w,c
  2211  001A0C  5012               	movf	(___aomod@divisor+2)^0,w,c
  2212  001A0E  580A               	subwfb	(___aomod@dividend+2)^0,w,c
  2213  001A10  5013               	movf	(___aomod@divisor+3)^0,w,c
  2214  001A12  580B               	subwfb	(___aomod@dividend+3)^0,w,c
  2215  001A14  5014               	movf	(___aomod@divisor+4)^0,w,c
  2216  001A16  580C               	subwfb	(___aomod@dividend+4)^0,w,c
  2217  001A18  5015               	movf	(___aomod@divisor+5)^0,w,c
  2218  001A1A  580D               	subwfb	(___aomod@dividend+5)^0,w,c
  2219  001A1C  5016               	movf	(___aomod@divisor+6)^0,w,c
  2220  001A1E  580E               	subwfb	(___aomod@dividend+6)^0,w,c
  2221  001A20  5017               	movf	(___aomod@divisor+7)^0,w,c
  2222  001A22  580F               	subwfb	(___aomod@dividend+7)^0,w,c
  2223  001A24  A0D8               	btfss	status,0,c
  2224  001A26  EF17  F00D         	goto	u1011
  2225  001A2A  EF19  F00D         	goto	u1010
  2226  001A2E                     u1011:
  2227  001A2E  EF29  F00D         	goto	l1935
  2228  001A32                     u1010:
  2229  001A32  5010               	movf	___aomod@divisor^0,w,c
  2230  001A34  5E08               	subwf	___aomod@dividend^0,f,c
  2231  001A36  5011               	movf	(___aomod@divisor+1)^0,w,c
  2232  001A38  5A09               	subwfb	(___aomod@dividend+1)^0,f,c
  2233  001A3A  5012               	movf	(___aomod@divisor+2)^0,w,c
  2234  001A3C  5A0A               	subwfb	(___aomod@dividend+2)^0,f,c
  2235  001A3E  5013               	movf	(___aomod@divisor+3)^0,w,c
  2236  001A40  5A0B               	subwfb	(___aomod@dividend+3)^0,f,c
  2237  001A42  5014               	movf	(___aomod@divisor+4)^0,w,c
  2238  001A44  5A0C               	subwfb	(___aomod@dividend+4)^0,f,c
  2239  001A46  5015               	movf	(___aomod@divisor+5)^0,w,c
  2240  001A48  5A0D               	subwfb	(___aomod@dividend+5)^0,f,c
  2241  001A4A  5016               	movf	(___aomod@divisor+6)^0,w,c
  2242  001A4C  5A0E               	subwfb	(___aomod@dividend+6)^0,f,c
  2243  001A4E  5017               	movf	(___aomod@divisor+7)^0,w,c
  2244  001A50  5A0F               	subwfb	(___aomod@dividend+7)^0,f,c
  2245  001A52                     l1935:
  2246  001A52  90D8               	bcf	status,0,c
  2247  001A54  3217               	rrcf	(___aomod@divisor+7)^0,f,c
  2248  001A56  3216               	rrcf	(___aomod@divisor+6)^0,f,c
  2249  001A58  3215               	rrcf	(___aomod@divisor+5)^0,f,c
  2250  001A5A  3214               	rrcf	(___aomod@divisor+4)^0,f,c
  2251  001A5C  3213               	rrcf	(___aomod@divisor+3)^0,f,c
  2252  001A5E  3212               	rrcf	(___aomod@divisor+2)^0,f,c
  2253  001A60  3211               	rrcf	(___aomod@divisor+1)^0,f,c
  2254  001A62  3210               	rrcf	___aomod@divisor^0,f,c
  2255  001A64  2E18               	decfsz	___aomod@counter^0,f,c
  2256  001A66  EF02  F00D         	goto	l1931
  2257  001A6A                     l1939:
  2258  001A6A  5019               	movf	___aomod@sign^0,w,c
  2259  001A6C  B4D8               	btfsc	status,2,c
  2260  001A6E  EF3B  F00D         	goto	u1021
  2261  001A72  EF3D  F00D         	goto	u1020
  2262  001A76                     u1021:
  2263  001A76  EF4D  F00D         	goto	l1943
  2264  001A7A                     u1020:
  2265  001A7A  1E0F               	comf	(___aomod@dividend+7)^0,f,c
  2266  001A7C  1E0E               	comf	(___aomod@dividend+6)^0,f,c
  2267  001A7E  1E0D               	comf	(___aomod@dividend+5)^0,f,c
  2268  001A80  1E0C               	comf	(___aomod@dividend+4)^0,f,c
  2269  001A82  1E0B               	comf	(___aomod@dividend+3)^0,f,c
  2270  001A84  1E0A               	comf	(___aomod@dividend+2)^0,f,c
  2271  001A86  1E09               	comf	(___aomod@dividend+1)^0,f,c
  2272  001A88  6C08               	negf	___aomod@dividend^0,c
  2273  001A8A  0E00               	movlw	0
  2274  001A8C  2209               	addwfc	(___aomod@dividend+1)^0,f,c
  2275  001A8E  220A               	addwfc	(___aomod@dividend+2)^0,f,c
  2276  001A90  220B               	addwfc	(___aomod@dividend+3)^0,f,c
  2277  001A92  220C               	addwfc	(___aomod@dividend+4)^0,f,c
  2278  001A94  220D               	addwfc	(___aomod@dividend+5)^0,f,c
  2279  001A96  220E               	addwfc	(___aomod@dividend+6)^0,f,c
  2280  001A98  220F               	addwfc	(___aomod@dividend+7)^0,f,c
  2281  001A9A                     l1943:
  2282  001A9A  C008  F008         	movff	___aomod@dividend,?___aomod
  2283  001A9E  C009  F009         	movff	___aomod@dividend+1,?___aomod+1
  2284  001AA2  C00A  F00A         	movff	___aomod@dividend+2,?___aomod+2
  2285  001AA6  C00B  F00B         	movff	___aomod@dividend+3,?___aomod+3
  2286  001AAA  C00C  F00C         	movff	___aomod@dividend+4,?___aomod+4
  2287  001AAE  C00D  F00D         	movff	___aomod@dividend+5,?___aomod+5
  2288  001AB2  C00E  F00E         	movff	___aomod@dividend+6,?___aomod+6
  2289  001AB6  C00F  F00F         	movff	___aomod@dividend+7,?___aomod+7
  2290  001ABA  0012               	return		;funcret
  2291  001ABC                     __end_of___aomod:
  2292                           	opt callstack 0
  2293                           
  2294 ;; *************** function ___aodiv *****************
  2295 ;; Defined at:
  2296 ;;		line 9 in file "C:\Program Files (x86)\Microchip\xc8\v2.10\pic\sources\c99\common\aodiv.c"
  2297 ;; Parameters:    Size  Location     Type
  2298 ;;  dividend        8    7[COMRAM] long long 
  2299 ;;  divisor         8   15[COMRAM] long long 
  2300 ;; Auto vars:     Size  Location     Type
  2301 ;;  quotient        8   25[COMRAM] long long 
  2302 ;;  sign            1   24[COMRAM] unsigned char 
  2303 ;;  counter         1   23[COMRAM] unsigned char 
  2304 ;; Return value:  Size  Location     Type
  2305 ;;                  8    7[COMRAM] long long 
  2306 ;; Registers used:
  2307 ;;		wreg, fsr2l, fsr2h, status,2, status,0
  2308 ;; Tracked objects:
  2309 ;;		On entry : 0/0
  2310 ;;		On exit  : 0/0
  2311 ;;		Unchanged: 0/0
  2312 ;; Data sizes:     COMRAM   BANK0   BANK1   BANK2   BANK3   BANK4   BANK5   BANK6   BANK7   BANK8   BANK9  BANK10  BANK1
      +1  BANK12  BANK13  BANK14  BANK15
  2313 ;;      Params:        16       0       0       0       0       0       0       0       0       0       0       0       
      +0       0       0       0       0
  2314 ;;      Locals:        10       0       0       0       0       0       0       0       0       0       0       0       
      +0       0       0       0       0
  2315 ;;      Temps:          0       0       0       0       0       0       0       0       0       0       0       0       
      +0       0       0       0       0
  2316 ;;      Totals:        26       0       0       0       0       0       0       0       0       0       0       0       
      +0       0       0       0       0
  2317 ;;Total ram usage:       26 bytes
  2318 ;; Hardware stack levels used:    1
  2319 ;; Hardware stack levels required when called:    3
  2320 ;; This function calls:
  2321 ;;		Nothing
  2322 ;; This function is called by:
  2323 ;;		_dtoa
  2324 ;; This function uses a non-reentrant model
  2325 ;;
  2326                           
  2327                           	psect	text13
  2328  0017D0                     __ptext13:
  2329                           	opt callstack 0
  2330  0017D0                     ___aodiv:
  2331                           	opt callstack 23
  2332  0017D0  0E00               	movlw	0
  2333  0017D2  6E19               	movwf	___aodiv@sign^0,c
  2334  0017D4  BE17               	btfsc	(___aodiv@divisor+7)^0,7,c
  2335  0017D6  EFF1  F00B         	goto	u900
  2336  0017DA  EFEF  F00B         	goto	u901
  2337  0017DE                     u901:
  2338  0017DE  EF03  F00C         	goto	l1875
  2339  0017E2                     u900:
  2340  0017E2  1E17               	comf	(___aodiv@divisor+7)^0,f,c
  2341  0017E4  1E16               	comf	(___aodiv@divisor+6)^0,f,c
  2342  0017E6  1E15               	comf	(___aodiv@divisor+5)^0,f,c
  2343  0017E8  1E14               	comf	(___aodiv@divisor+4)^0,f,c
  2344  0017EA  1E13               	comf	(___aodiv@divisor+3)^0,f,c
  2345  0017EC  1E12               	comf	(___aodiv@divisor+2)^0,f,c
  2346  0017EE  1E11               	comf	(___aodiv@divisor+1)^0,f,c
  2347  0017F0  6C10               	negf	___aodiv@divisor^0,c
  2348  0017F2  0E00               	movlw	0
  2349  0017F4  2211               	addwfc	(___aodiv@divisor+1)^0,f,c
  2350  0017F6  2212               	addwfc	(___aodiv@divisor+2)^0,f,c
  2351  0017F8  2213               	addwfc	(___aodiv@divisor+3)^0,f,c
  2352  0017FA  2214               	addwfc	(___aodiv@divisor+4)^0,f,c
  2353  0017FC  2215               	addwfc	(___aodiv@divisor+5)^0,f,c
  2354  0017FE  2216               	addwfc	(___aodiv@divisor+6)^0,f,c
  2355  001800  2217               	addwfc	(___aodiv@divisor+7)^0,f,c
  2356  001802  0E01               	movlw	1
  2357  001804  6E19               	movwf	___aodiv@sign^0,c
  2358  001806                     l1875:
  2359  001806  BE0F               	btfsc	(___aodiv@dividend+7)^0,7,c
  2360  001808  EF0A  F00C         	goto	u910
  2361  00180C  EF08  F00C         	goto	u911
  2362  001810                     u911:
  2363  001810  EF1C  F00C         	goto	l1881
  2364  001814                     u910:
  2365  001814  1E0F               	comf	(___aodiv@dividend+7)^0,f,c
  2366  001816  1E0E               	comf	(___aodiv@dividend+6)^0,f,c
  2367  001818  1E0D               	comf	(___aodiv@dividend+5)^0,f,c
  2368  00181A  1E0C               	comf	(___aodiv@dividend+4)^0,f,c
  2369  00181C  1E0B               	comf	(___aodiv@dividend+3)^0,f,c
  2370  00181E  1E0A               	comf	(___aodiv@dividend+2)^0,f,c
  2371  001820  1E09               	comf	(___aodiv@dividend+1)^0,f,c
  2372  001822  6C08               	negf	___aodiv@dividend^0,c
  2373  001824  0E00               	movlw	0
  2374  001826  2209               	addwfc	(___aodiv@dividend+1)^0,f,c
  2375  001828  220A               	addwfc	(___aodiv@dividend+2)^0,f,c
  2376  00182A  220B               	addwfc	(___aodiv@dividend+3)^0,f,c
  2377  00182C  220C               	addwfc	(___aodiv@dividend+4)^0,f,c
  2378  00182E  220D               	addwfc	(___aodiv@dividend+5)^0,f,c
  2379  001830  220E               	addwfc	(___aodiv@dividend+6)^0,f,c
  2380  001832  220F               	addwfc	(___aodiv@dividend+7)^0,f,c
  2381  001834  0E01               	movlw	1
  2382  001836  1A19               	xorwf	___aodiv@sign^0,f,c
  2383  001838                     l1881:
  2384  001838  EE20  F01A         	lfsr	2,___aodiv@quotient
  2385  00183C  0E07               	movlw	7
  2386  00183E                     u921:
  2387  00183E  6ADE               	clrf	postinc2,c
  2388  001840  06E8               	decf	wreg,f,c
  2389  001842  E2FD               	bc	u921
  2390  001844  5010               	movf	___aodiv@divisor^0,w,c
  2391  001846  1011               	iorwf	(___aodiv@divisor+1)^0,w,c
  2392  001848  1012               	iorwf	(___aodiv@divisor+2)^0,w,c
  2393  00184A  1013               	iorwf	(___aodiv@divisor+3)^0,w,c
  2394  00184C  1014               	iorwf	(___aodiv@divisor+4)^0,w,c
  2395  00184E  1015               	iorwf	(___aodiv@divisor+5)^0,w,c
  2396  001850  1016               	iorwf	(___aodiv@divisor+6)^0,w,c
  2397  001852  1017               	iorwf	(___aodiv@divisor+7)^0,w,c
  2398  001854  B4D8               	btfsc	status,2,c
  2399  001856  EF2F  F00C         	goto	u931
  2400  00185A  EF31  F00C         	goto	u930
  2401  00185E                     u931:
  2402  00185E  EF83  F00C         	goto	l1903
  2403  001862                     u930:
  2404  001862  0E01               	movlw	1
  2405  001864  6E18               	movwf	___aodiv@counter^0,c
  2406  001866  EF3F  F00C         	goto	l1889
  2407  00186A                     l1887:
  2408  00186A  90D8               	bcf	status,0,c
  2409  00186C  3610               	rlcf	___aodiv@divisor^0,f,c
  2410  00186E  3611               	rlcf	(___aodiv@divisor+1)^0,f,c
  2411  001870  3612               	rlcf	(___aodiv@divisor+2)^0,f,c
  2412  001872  3613               	rlcf	(___aodiv@divisor+3)^0,f,c
  2413  001874  3614               	rlcf	(___aodiv@divisor+4)^0,f,c
  2414  001876  3615               	rlcf	(___aodiv@divisor+5)^0,f,c
  2415  001878  3616               	rlcf	(___aodiv@divisor+6)^0,f,c
  2416  00187A  3617               	rlcf	(___aodiv@divisor+7)^0,f,c
  2417  00187C  2A18               	incf	___aodiv@counter^0,f,c
  2418  00187E                     l1889:
  2419  00187E  AE17               	btfss	(___aodiv@divisor+7)^0,7,c
  2420  001880  EF44  F00C         	goto	u941
  2421  001884  EF46  F00C         	goto	u940
  2422  001888                     u941:
  2423  001888  EF35  F00C         	goto	l1887
  2424  00188C                     u940:
  2425  00188C                     l1891:
  2426  00188C  90D8               	bcf	status,0,c
  2427  00188E  361A               	rlcf	___aodiv@quotient^0,f,c
  2428  001890  361B               	rlcf	(___aodiv@quotient+1)^0,f,c
  2429  001892  361C               	rlcf	(___aodiv@quotient+2)^0,f,c
  2430  001894  361D               	rlcf	(___aodiv@quotient+3)^0,f,c
  2431  001896  361E               	rlcf	(___aodiv@quotient+4)^0,f,c
  2432  001898  361F               	rlcf	(___aodiv@quotient+5)^0,f,c
  2433  00189A  3620               	rlcf	(___aodiv@quotient+6)^0,f,c
  2434  00189C  3621               	rlcf	(___aodiv@quotient+7)^0,f,c
  2435  00189E  5010               	movf	___aodiv@divisor^0,w,c
  2436  0018A0  5C08               	subwf	___aodiv@dividend^0,w,c
  2437  0018A2  5011               	movf	(___aodiv@divisor+1)^0,w,c
  2438  0018A4  5809               	subwfb	(___aodiv@dividend+1)^0,w,c
  2439  0018A6  5012               	movf	(___aodiv@divisor+2)^0,w,c
  2440  0018A8  580A               	subwfb	(___aodiv@dividend+2)^0,w,c
  2441  0018AA  5013               	movf	(___aodiv@divisor+3)^0,w,c
  2442  0018AC  580B               	subwfb	(___aodiv@dividend+3)^0,w,c
  2443  0018AE  5014               	movf	(___aodiv@divisor+4)^0,w,c
  2444  0018B0  580C               	subwfb	(___aodiv@dividend+4)^0,w,c
  2445  0018B2  5015               	movf	(___aodiv@divisor+5)^0,w,c
  2446  0018B4  580D               	subwfb	(___aodiv@dividend+5)^0,w,c
  2447  0018B6  5016               	movf	(___aodiv@divisor+6)^0,w,c
  2448  0018B8  580E               	subwfb	(___aodiv@dividend+6)^0,w,c
  2449  0018BA  5017               	movf	(___aodiv@divisor+7)^0,w,c
  2450  0018BC  580F               	subwfb	(___aodiv@dividend+7)^0,w,c
  2451  0018BE  A0D8               	btfss	status,0,c
  2452  0018C0  EF64  F00C         	goto	u951
  2453  0018C4  EF66  F00C         	goto	u950
  2454  0018C8                     u951:
  2455  0018C8  EF77  F00C         	goto	l1899
  2456  0018CC                     u950:
  2457  0018CC  5010               	movf	___aodiv@divisor^0,w,c
  2458  0018CE  5E08               	subwf	___aodiv@dividend^0,f,c
  2459  0018D0  5011               	movf	(___aodiv@divisor+1)^0,w,c
  2460  0018D2  5A09               	subwfb	(___aodiv@dividend+1)^0,f,c
  2461  0018D4  5012               	movf	(___aodiv@divisor+2)^0,w,c
  2462  0018D6  5A0A               	subwfb	(___aodiv@dividend+2)^0,f,c
  2463  0018D8  5013               	movf	(___aodiv@divisor+3)^0,w,c
  2464  0018DA  5A0B               	subwfb	(___aodiv@dividend+3)^0,f,c
  2465  0018DC  5014               	movf	(___aodiv@divisor+4)^0,w,c
  2466  0018DE  5A0C               	subwfb	(___aodiv@dividend+4)^0,f,c
  2467  0018E0  5015               	movf	(___aodiv@divisor+5)^0,w,c
  2468  0018E2  5A0D               	subwfb	(___aodiv@dividend+5)^0,f,c
  2469  0018E4  5016               	movf	(___aodiv@divisor+6)^0,w,c
  2470  0018E6  5A0E               	subwfb	(___aodiv@dividend+6)^0,f,c
  2471  0018E8  5017               	movf	(___aodiv@divisor+7)^0,w,c
  2472  0018EA  5A0F               	subwfb	(___aodiv@dividend+7)^0,f,c
  2473  0018EC  801A               	bsf	___aodiv@quotient^0,0,c
  2474  0018EE                     l1899:
  2475  0018EE  90D8               	bcf	status,0,c
  2476  0018F0  3217               	rrcf	(___aodiv@divisor+7)^0,f,c
  2477  0018F2  3216               	rrcf	(___aodiv@divisor+6)^0,f,c
  2478  0018F4  3215               	rrcf	(___aodiv@divisor+5)^0,f,c
  2479  0018F6  3214               	rrcf	(___aodiv@divisor+4)^0,f,c
  2480  0018F8  3213               	rrcf	(___aodiv@divisor+3)^0,f,c
  2481  0018FA  3212               	rrcf	(___aodiv@divisor+2)^0,f,c
  2482  0018FC  3211               	rrcf	(___aodiv@divisor+1)^0,f,c
  2483  0018FE  3210               	rrcf	___aodiv@divisor^0,f,c
  2484  001900  2E18               	decfsz	___aodiv@counter^0,f,c
  2485  001902  EF46  F00C         	goto	l1891
  2486  001906                     l1903:
  2487  001906  5019               	movf	___aodiv@sign^0,w,c
  2488  001908  B4D8               	btfsc	status,2,c
  2489  00190A  EF89  F00C         	goto	u961
  2490  00190E  EF8B  F00C         	goto	u960
  2491  001912                     u961:
  2492  001912  EF9B  F00C         	goto	l1907
  2493  001916                     u960:
  2494  001916  1E21               	comf	(___aodiv@quotient+7)^0,f,c
  2495  001918  1E20               	comf	(___aodiv@quotient+6)^0,f,c
  2496  00191A  1E1F               	comf	(___aodiv@quotient+5)^0,f,c
  2497  00191C  1E1E               	comf	(___aodiv@quotient+4)^0,f,c
  2498  00191E  1E1D               	comf	(___aodiv@quotient+3)^0,f,c
  2499  001920  1E1C               	comf	(___aodiv@quotient+2)^0,f,c
  2500  001922  1E1B               	comf	(___aodiv@quotient+1)^0,f,c
  2501  001924  6C1A               	negf	___aodiv@quotient^0,c
  2502  001926  0E00               	movlw	0
  2503  001928  221B               	addwfc	(___aodiv@quotient+1)^0,f,c
  2504  00192A  221C               	addwfc	(___aodiv@quotient+2)^0,f,c
  2505  00192C  221D               	addwfc	(___aodiv@quotient+3)^0,f,c
  2506  00192E  221E               	addwfc	(___aodiv@quotient+4)^0,f,c
  2507  001930  221F               	addwfc	(___aodiv@quotient+5)^0,f,c
  2508  001932  2220               	addwfc	(___aodiv@quotient+6)^0,f,c
  2509  001934  2221               	addwfc	(___aodiv@quotient+7)^0,f,c
  2510  001936                     l1907:
  2511  001936  C01A  F008         	movff	___aodiv@quotient,?___aodiv
  2512  00193A  C01B  F009         	movff	___aodiv@quotient+1,?___aodiv+1
  2513  00193E  C01C  F00A         	movff	___aodiv@quotient+2,?___aodiv+2
  2514  001942  C01D  F00B         	movff	___aodiv@quotient+3,?___aodiv+3
  2515  001946  C01E  F00C         	movff	___aodiv@quotient+4,?___aodiv+4
  2516  00194A  C01F  F00D         	movff	___aodiv@quotient+5,?___aodiv+5
  2517  00194E  C020  F00E         	movff	___aodiv@quotient+6,?___aodiv+6
  2518  001952  C021  F00F         	movff	___aodiv@quotient+7,?___aodiv+7
  2519  001956  0012               	return		;funcret
  2520  001958                     __end_of___aodiv:
  2521                           	opt callstack 0
  2522                           
  2523 ;; *************** function _SYSTEM_Initialize *****************
  2524 ;; Defined at:
  2525 ;;		line 50 in file "mcc_generated_files/mcc.c"
  2526 ;; Parameters:    Size  Location     Type
  2527 ;;		None
  2528 ;; Auto vars:     Size  Location     Type
  2529 ;;		None
  2530 ;; Return value:  Size  Location     Type
  2531 ;;                  1    wreg      void 
  2532 ;; Registers used:
  2533 ;;		wreg, status,2, status,0, cstack
  2534 ;; Tracked objects:
  2535 ;;		On entry : 0/0
  2536 ;;		On exit  : 0/0
  2537 ;;		Unchanged: 0/0
  2538 ;; Data sizes:     COMRAM   BANK0   BANK1   BANK2   BANK3   BANK4   BANK5   BANK6   BANK7   BANK8   BANK9  BANK10  BANK1
      +1  BANK12  BANK13  BANK14  BANK15
  2539 ;;      Params:         0       0       0       0       0       0       0       0       0       0       0       0       
      +0       0       0       0       0
  2540 ;;      Locals:         0       0       0       0       0       0       0       0       0       0       0       0       
      +0       0       0       0       0
  2541 ;;      Temps:          0       0       0       0       0       0       0       0       0       0       0       0       
      +0       0       0       0       0
  2542 ;;      Totals:         0       0       0       0       0       0       0       0       0       0       0       0       
      +0       0       0       0       0
  2543 ;;Total ram usage:        0 bytes
  2544 ;; Hardware stack levels used:    1
  2545 ;; Hardware stack levels required when called:    5
  2546 ;; This function calls:
  2547 ;;		_EUSART1_Initialize
  2548 ;;		_I2C1_Initialize
  2549 ;;		_INTERRUPT_Initialize
  2550 ;;		_OSCILLATOR_Initialize
  2551 ;;		_PIN_MANAGER_Initialize
  2552 ;; This function is called by:
  2553 ;;		_main
  2554 ;; This function uses a non-reentrant model
  2555 ;;
  2556                           
  2557                           	psect	text14
  2558  00216E                     __ptext14:
  2559                           	opt callstack 0
  2560  00216E                     _SYSTEM_Initialize:
  2561                           	opt callstack 25
  2562  00216E                     
  2563                           ;mcc_generated_files/mcc.c: 53:     INTERRUPT_Initialize();
  2564  00216E  ECE6  F010         	call	_INTERRUPT_Initialize	;wreg free
  2565  002172                     
  2566                           ;mcc_generated_files/mcc.c: 54:     PIN_MANAGER_Initialize();
  2567  002172  EC24  F010         	call	_PIN_MANAGER_Initialize	;wreg free
  2568  002176                     
  2569                           ;mcc_generated_files/mcc.c: 55:     OSCILLATOR_Initialize();
  2570  002176  ECCB  F010         	call	_OSCILLATOR_Initialize	;wreg free
  2571  00217A                     
  2572                           ;mcc_generated_files/mcc.c: 56:     I2C1_Initialize();
  2573  00217A  EC5E  F010         	call	_I2C1_Initialize	;wreg free
  2574  00217E                     
  2575                           ;mcc_generated_files/mcc.c: 57:     EUSART1_Initialize();
  2576  00217E  EC04  F010         	call	_EUSART1_Initialize	;wreg free
  2577  002182  0012               	return		;funcret
  2578  002184                     __end_of_SYSTEM_Initialize:
  2579                           	opt callstack 0
  2580                           
  2581 ;; *************** function _PIN_MANAGER_Initialize *****************
  2582 ;; Defined at:
  2583 ;;		line 55 in file "mcc_generated_files/pin_manager.c"
  2584 ;; Parameters:    Size  Location     Type
  2585 ;;		None
  2586 ;; Auto vars:     Size  Location     Type
  2587 ;;		None
  2588 ;; Return value:  Size  Location     Type
  2589 ;;                  1    wreg      void 
  2590 ;; Registers used:
  2591 ;;		wreg, status,2
  2592 ;; Tracked objects:
  2593 ;;		On entry : 0/0
  2594 ;;		On exit  : 0/0
  2595 ;;		Unchanged: 0/0
  2596 ;; Data sizes:     COMRAM   BANK0   BANK1   BANK2   BANK3   BANK4   BANK5   BANK6   BANK7   BANK8   BANK9  BANK10  BANK1
      +1  BANK12  BANK13  BANK14  BANK15
  2597 ;;      Params:         0       0       0       0       0       0       0       0       0       0       0       0       
      +0       0       0       0       0
  2598 ;;      Locals:         0       0       0       0       0       0       0       0       0       0       0       0       
      +0       0       0       0       0
  2599 ;;      Temps:          0       0       0       0       0       0       0       0       0       0       0       0       
      +0       0       0       0       0
  2600 ;;      Totals:         0       0       0       0       0       0       0       0       0       0       0       0       
      +0       0       0       0       0
  2601 ;;Total ram usage:        0 bytes
  2602 ;; Hardware stack levels used:    1
  2603 ;; Hardware stack levels required when called:    3
  2604 ;; This function calls:
  2605 ;;		Nothing
  2606 ;; This function is called by:
  2607 ;;		_SYSTEM_Initialize
  2608 ;; This function uses a non-reentrant model
  2609 ;;
  2610                           
  2611                           	psect	text15
  2612  002048                     __ptext15:
  2613                           	opt callstack 0
  2614  002048                     _PIN_MANAGER_Initialize:
  2615                           	opt callstack 26
  2616  002048                     
  2617                           ;mcc_generated_files/pin_manager.c: 60:     LATE = 0x00;
  2618  002048  0E00               	movlw	0
  2619  00204A  6E8D               	movwf	141,c	;volatile
  2620                           
  2621                           ;mcc_generated_files/pin_manager.c: 61:     LATD = 0x00;
  2622  00204C  0E00               	movlw	0
  2623  00204E  6E8C               	movwf	140,c	;volatile
  2624                           
  2625                           ;mcc_generated_files/pin_manager.c: 62:     LATA = 0x00;
  2626  002050  0E00               	movlw	0
  2627  002052  6E89               	movwf	137,c	;volatile
  2628                           
  2629                           ;mcc_generated_files/pin_manager.c: 63:     LATB = 0x00;
  2630  002054  0E00               	movlw	0
  2631  002056  6E8A               	movwf	138,c	;volatile
  2632                           
  2633                           ;mcc_generated_files/pin_manager.c: 64:     LATC = 0x00;
  2634  002058  0E00               	movlw	0
  2635  00205A  6E8B               	movwf	139,c	;volatile
  2636                           
  2637                           ;mcc_generated_files/pin_manager.c: 69:     TRISE = 0x07;
  2638  00205C  0E07               	movlw	7
  2639  00205E  6E96               	movwf	150,c	;volatile
  2640  002060                     
  2641                           ;mcc_generated_files/pin_manager.c: 70:     TRISA = 0xFF;
  2642  002060  6892               	setf	146,c	;volatile
  2643  002062                     
  2644                           ;mcc_generated_files/pin_manager.c: 71:     TRISB = 0xFF;
  2645  002062  6893               	setf	147,c	;volatile
  2646                           
  2647                           ;mcc_generated_files/pin_manager.c: 72:     TRISC = 0xBF;
  2648  002064  0EBF               	movlw	191
  2649  002066  6E94               	movwf	148,c	;volatile
  2650  002068                     
  2651                           ;mcc_generated_files/pin_manager.c: 73:     TRISD = 0xFF;
  2652  002068  6895               	setf	149,c	;volatile
  2653  00206A                     
  2654                           ;mcc_generated_files/pin_manager.c: 78:     ANSELD = 0xFF;
  2655  00206A  010F               	movlb	15	; () banked
  2656  00206C  693B               	setf	59,b	;volatile
  2657                           
  2658                           ;mcc_generated_files/pin_manager.c: 79:     ANSELC = 0x24;
  2659  00206E  0E24               	movlw	36
  2660  002070  6F3A               	movwf	58,b	;volatile
  2661                           
  2662                           ;mcc_generated_files/pin_manager.c: 80:     ANSELB = 0x3F;
  2663  002072  0E3F               	movlw	63
  2664  002074  6F39               	movwf	57,b	;volatile
  2665                           
  2666                           ;mcc_generated_files/pin_manager.c: 81:     ANSELE = 0x07;
  2667  002076  0E07               	movlw	7
  2668  002078  6F3C               	movwf	60,b	;volatile
  2669                           
  2670                           ;mcc_generated_files/pin_manager.c: 82:     ANSELA = 0x2F;
  2671  00207A  0E2F               	movlw	47
  2672  00207C  6F38               	movwf	56,b	;volatile
  2673                           
  2674                           ;mcc_generated_files/pin_manager.c: 87:     WPUB = 0x00;
  2675  00207E  0E00               	movlw	0
  2676  002080  6E61               	movwf	97,c	;volatile
  2677  002082                     
  2678                           ; BSR set to: 15
  2679                           ;mcc_generated_files/pin_manager.c: 88:     INTCON2bits.nRBPU = 1;
  2680  002082  8EF1               	bsf	241,7,c	;volatile
  2681  002084                     
  2682                           ; BSR set to: 15
  2683  002084  0012               	return		;funcret
  2684  002086                     __end_of_PIN_MANAGER_Initialize:
  2685                           	opt callstack 0
  2686                           
  2687 ;; *************** function _OSCILLATOR_Initialize *****************
  2688 ;; Defined at:
  2689 ;;		line 60 in file "mcc_generated_files/mcc.c"
  2690 ;; Parameters:    Size  Location     Type
  2691 ;;		None
  2692 ;; Auto vars:     Size  Location     Type
  2693 ;;		None
  2694 ;; Return value:  Size  Location     Type
  2695 ;;                  1    wreg      void 
  2696 ;; Registers used:
  2697 ;;		wreg, status,2
  2698 ;; Tracked objects:
  2699 ;;		On entry : 0/0
  2700 ;;		On exit  : 0/0
  2701 ;;		Unchanged: 0/0
  2702 ;; Data sizes:     COMRAM   BANK0   BANK1   BANK2   BANK3   BANK4   BANK5   BANK6   BANK7   BANK8   BANK9  BANK10  BANK1
      +1  BANK12  BANK13  BANK14  BANK15
  2703 ;;      Params:         0       0       0       0       0       0       0       0       0       0       0       0       
      +0       0       0       0       0
  2704 ;;      Locals:         0       0       0       0       0       0       0       0       0       0       0       0       
      +0       0       0       0       0
  2705 ;;      Temps:          0       0       0       0       0       0       0       0       0       0       0       0       
      +0       0       0       0       0
  2706 ;;      Totals:         0       0       0       0       0       0       0       0       0       0       0       0       
      +0       0       0       0       0
  2707 ;;Total ram usage:        0 bytes
  2708 ;; Hardware stack levels used:    1
  2709 ;; Hardware stack levels required when called:    3
  2710 ;; This function calls:
  2711 ;;		Nothing
  2712 ;; This function is called by:
  2713 ;;		_SYSTEM_Initialize
  2714 ;; This function uses a non-reentrant model
  2715 ;;
  2716                           
  2717                           	psect	text16
  2718  002196                     __ptext16:
  2719                           	opt callstack 0
  2720  002196                     _OSCILLATOR_Initialize:
  2721                           	opt callstack 26
  2722  002196                     
  2723                           ;mcc_generated_files/mcc.c: 63:     OSCCON = 0x62;
  2724  002196  0E62               	movlw	98
  2725  002198  6ED3               	movwf	211,c	;volatile
  2726                           
  2727                           ;mcc_generated_files/mcc.c: 65:     OSCCON2 = 0x04;
  2728  00219A  0E04               	movlw	4
  2729  00219C  6ED2               	movwf	210,c	;volatile
  2730                           
  2731                           ;mcc_generated_files/mcc.c: 67:     OSCTUNE = 0x00;
  2732  00219E  0E00               	movlw	0
  2733  0021A0  6E9B               	movwf	155,c	;volatile
  2734  0021A2  0012               	return		;funcret
  2735  0021A4                     __end_of_OSCILLATOR_Initialize:
  2736                           	opt callstack 0
  2737                           
  2738 ;; *************** function _INTERRUPT_Initialize *****************
  2739 ;; Defined at:
  2740 ;;		line 52 in file "mcc_generated_files/interrupt_manager.c"
  2741 ;; Parameters:    Size  Location     Type
  2742 ;;		None
  2743 ;; Auto vars:     Size  Location     Type
  2744 ;;		None
  2745 ;; Return value:  Size  Location     Type
  2746 ;;                  1    wreg      void 
  2747 ;; Registers used:
  2748 ;;		None
  2749 ;; Tracked objects:
  2750 ;;		On entry : 0/0
  2751 ;;		On exit  : 0/0
  2752 ;;		Unchanged: 0/0
  2753 ;; Data sizes:     COMRAM   BANK0   BANK1   BANK2   BANK3   BANK4   BANK5   BANK6   BANK7   BANK8   BANK9  BANK10  BANK1
      +1  BANK12  BANK13  BANK14  BANK15
  2754 ;;      Params:         0       0       0       0       0       0       0       0       0       0       0       0       
      +0       0       0       0       0
  2755 ;;      Locals:         0       0       0       0       0       0       0       0       0       0       0       0       
      +0       0       0       0       0
  2756 ;;      Temps:          0       0       0       0       0       0       0       0       0       0       0       0       
      +0       0       0       0       0
  2757 ;;      Totals:         0       0       0       0       0       0       0       0       0       0       0       0       
      +0       0       0       0       0
  2758 ;;Total ram usage:        0 bytes
  2759 ;; Hardware stack levels used:    1
  2760 ;; Hardware stack levels required when called:    3
  2761 ;; This function calls:
  2762 ;;		Nothing
  2763 ;; This function is called by:
  2764 ;;		_SYSTEM_Initialize
  2765 ;; This function uses a non-reentrant model
  2766 ;;
  2767                           
  2768                           	psect	text17
  2769  0021CC                     __ptext17:
  2770                           	opt callstack 0
  2771  0021CC                     _INTERRUPT_Initialize:
  2772                           	opt callstack 26
  2773  0021CC                     
  2774                           ;mcc_generated_files/interrupt_manager.c: 55:     RCONbits.IPEN = 0;
  2775  0021CC  9ED0               	bcf	208,7,c	;volatile
  2776  0021CE  0012               	return		;funcret
  2777  0021D0                     __end_of_INTERRUPT_Initialize:
  2778                           	opt callstack 0
  2779                           
  2780 ;; *************** function _I2C1_Initialize *****************
  2781 ;; Defined at:
  2782 ;;		line 198 in file "mcc_generated_files/i2c1.c"
  2783 ;; Parameters:    Size  Location     Type
  2784 ;;		None
  2785 ;; Auto vars:     Size  Location     Type
  2786 ;;		None
  2787 ;; Return value:  Size  Location     Type
  2788 ;;                  1    wreg      void 
  2789 ;; Registers used:
  2790 ;;		wreg, status,2, status,0
  2791 ;; Tracked objects:
  2792 ;;		On entry : 0/0
  2793 ;;		On exit  : 0/0
  2794 ;;		Unchanged: 0/0
  2795 ;; Data sizes:     COMRAM   BANK0   BANK1   BANK2   BANK3   BANK4   BANK5   BANK6   BANK7   BANK8   BANK9  BANK10  BANK1
      +1  BANK12  BANK13  BANK14  BANK15
  2796 ;;      Params:         0       0       0       0       0       0       0       0       0       0       0       0       
      +0       0       0       0       0
  2797 ;;      Locals:         0       0       0       0       0       0       0       0       0       0       0       0       
      +0       0       0       0       0
  2798 ;;      Temps:          0       0       0       0       0       0       0       0       0       0       0       0       
      +0       0       0       0       0
  2799 ;;      Totals:         0       0       0       0       0       0       0       0       0       0       0       0       
      +0       0       0       0       0
  2800 ;;Total ram usage:        0 bytes
  2801 ;; Hardware stack levels used:    1
  2802 ;; Hardware stack levels required when called:    3
  2803 ;; This function calls:
  2804 ;;		Nothing
  2805 ;; This function is called by:
  2806 ;;		_SYSTEM_Initialize
  2807 ;; This function uses a non-reentrant model
  2808 ;;
  2809                           
  2810                           	psect	text18
  2811  0020BC                     __ptext18:
  2812                           	opt callstack 0
  2813  0020BC                     _I2C1_Initialize:
  2814                           	opt callstack 26
  2815  0020BC                     
  2816                           ;mcc_generated_files/i2c1.c: 200:     i2c1_object.pTrHead = i2c1_tr_queue;
  2817  0020BC  0E9F               	movlw	low _i2c1_tr_queue
  2818  0020BE  0100               	movlb	0	; () banked
  2819  0020C0  6F62               	movwf	(_i2c1_object+2)& (0+255),b
  2820  0020C2  0E00               	movlw	high _i2c1_tr_queue
  2821  0020C4  6F63               	movwf	(_i2c1_object+3)& (0+255),b
  2822                           
  2823                           ;mcc_generated_files/i2c1.c: 201:     i2c1_object.pTrTail = i2c1_tr_queue;
  2824  0020C6  0E9F               	movlw	low _i2c1_tr_queue
  2825  0020C8  6F60               	movwf	_i2c1_object& (0+255),b
  2826  0020CA  0E00               	movlw	high _i2c1_tr_queue
  2827  0020CC  6F61               	movwf	(_i2c1_object+1)& (0+255),b
  2828  0020CE                     
  2829                           ; BSR set to: 0
  2830                           ;mcc_generated_files/i2c1.c: 202:     i2c1_object.trStatus.s.empty = 1;
  2831  0020CE  8364               	bsf	(_i2c1_object+4)& (0+255),1,b
  2832  0020D0                     
  2833                           ; BSR set to: 0
  2834                           ;mcc_generated_files/i2c1.c: 203:     i2c1_object.trStatus.s.full = 0;
  2835  0020D0  9164               	bcf	(_i2c1_object+4)& (0+255),0,b
  2836  0020D2                     
  2837                           ; BSR set to: 0
  2838                           ;mcc_generated_files/i2c1.c: 205:     i2c1_object.i2cErrors = 0;
  2839  0020D2  0E00               	movlw	0
  2840  0020D4  6F66               	movwf	(_i2c1_object+6)& (0+255),b
  2841  0020D6                     
  2842                           ; BSR set to: 0
  2843                           ;mcc_generated_files/i2c1.c: 208:     SSP1STAT = 0x80;
  2844  0020D6  0E80               	movlw	128
  2845  0020D8  6EC7               	movwf	199,c	;volatile
  2846  0020DA                     
  2847                           ; BSR set to: 0
  2848                           ;mcc_generated_files/i2c1.c: 210:     SSP1CON1 = 0x28;
  2849  0020DA  0E28               	movlw	40
  2850  0020DC  6EC6               	movwf	198,c	;volatile
  2851  0020DE                     
  2852                           ; BSR set to: 0
  2853                           ;mcc_generated_files/i2c1.c: 212:     SSP1CON3 = 0x00;
  2854  0020DE  0E00               	movlw	0
  2855  0020E0  6ECB               	movwf	203,c	;volatile
  2856  0020E2                     
  2857                           ; BSR set to: 0
  2858                           ;mcc_generated_files/i2c1.c: 214:     SSP1ADD = 0x13;
  2859  0020E2  0E13               	movlw	19
  2860  0020E4  6EC8               	movwf	200,c	;volatile
  2861  0020E6                     
  2862                           ; BSR set to: 0
  2863                           ;mcc_generated_files/i2c1.c: 217:     PIR1bits.SSP1IF = 0;
  2864  0020E6  969E               	bcf	158,3,c	;volatile
  2865  0020E8                     
  2866                           ; BSR set to: 0
  2867                           ;mcc_generated_files/i2c1.c: 218:     PIR2bits.BCL1IF = 0;
  2868  0020E8  96A1               	bcf	161,3,c	;volatile
  2869  0020EA                     
  2870                           ; BSR set to: 0
  2871                           ;mcc_generated_files/i2c1.c: 221:     PIE1bits.SSP1IE = 1;
  2872  0020EA  869D               	bsf	157,3,c	;volatile
  2873  0020EC                     
  2874                           ; BSR set to: 0
  2875                           ;mcc_generated_files/i2c1.c: 222:     PIE2bits.BCL1IE = 1;
  2876  0020EC  86A0               	bsf	160,3,c	;volatile
  2877  0020EE                     
  2878                           ; BSR set to: 0
  2879  0020EE  0012               	return		;funcret
  2880  0020F0                     __end_of_I2C1_Initialize:
  2881                           	opt callstack 0
  2882                           
  2883 ;; *************** function _EUSART1_Initialize *****************
  2884 ;; Defined at:
  2885 ;;		line 66 in file "mcc_generated_files/eusart1.c"
  2886 ;; Parameters:    Size  Location     Type
  2887 ;;		None
  2888 ;; Auto vars:     Size  Location     Type
  2889 ;;		None
  2890 ;; Return value:  Size  Location     Type
  2891 ;;                  1    wreg      void 
  2892 ;; Registers used:
  2893 ;;		wreg, status,2, status,0, cstack
  2894 ;; Tracked objects:
  2895 ;;		On entry : 0/0
  2896 ;;		On exit  : 0/0
  2897 ;;		Unchanged: 0/0
  2898 ;; Data sizes:     COMRAM   BANK0   BANK1   BANK2   BANK3   BANK4   BANK5   BANK6   BANK7   BANK8   BANK9  BANK10  BANK1
      +1  BANK12  BANK13  BANK14  BANK15
  2899 ;;      Params:         0       0       0       0       0       0       0       0       0       0       0       0       
      +0       0       0       0       0
  2900 ;;      Locals:         0       0       0       0       0       0       0       0       0       0       0       0       
      +0       0       0       0       0
  2901 ;;      Temps:          0       0       0       0       0       0       0       0       0       0       0       0       
      +0       0       0       0       0
  2902 ;;      Totals:         0       0       0       0       0       0       0       0       0       0       0       0       
      +0       0       0       0       0
  2903 ;;Total ram usage:        0 bytes
  2904 ;; Hardware stack levels used:    1
  2905 ;; Hardware stack levels required when called:    4
  2906 ;; This function calls:
  2907 ;;		_EUSART1_SetErrorHandler
  2908 ;;		_EUSART1_SetFramingErrorHandler
  2909 ;;		_EUSART1_SetOverrunErrorHandler
  2910 ;; This function is called by:
  2911 ;;		_SYSTEM_Initialize
  2912 ;; This function uses a non-reentrant model
  2913 ;;
  2914                           
  2915                           	psect	text19
  2916  002008                     __ptext19:
  2917                           	opt callstack 0
  2918  002008                     _EUSART1_Initialize:
  2919                           	opt callstack 25
  2920  002008                     
  2921                           ;mcc_generated_files/eusart1.c: 71:     BAUDCON1 = 0x08;
  2922  002008  0E08               	movlw	8
  2923  00200A  6EB8               	movwf	184,c	;volatile
  2924                           
  2925                           ;mcc_generated_files/eusart1.c: 74:     RCSTA1 = 0x90;
  2926  00200C  0E90               	movlw	144
  2927  00200E  6EAB               	movwf	171,c	;volatile
  2928                           
  2929                           ;mcc_generated_files/eusart1.c: 77:     TXSTA1 = 0x24;
  2930  002010  0E24               	movlw	36
  2931  002012  6EAC               	movwf	172,c	;volatile
  2932                           
  2933                           ;mcc_generated_files/eusart1.c: 80:     SPBRG1 = 0xCF;
  2934  002014  0ECF               	movlw	207
  2935  002016  6EAF               	movwf	175,c	;volatile
  2936                           
  2937                           ;mcc_generated_files/eusart1.c: 83:     SPBRGH1 = 0x00;
  2938  002018  0E00               	movlw	0
  2939  00201A  6EB0               	movwf	176,c	;volatile
  2940  00201C                     
  2941                           ;mcc_generated_files/eusart1.c: 86:     EUSART1_SetFramingErrorHandler(EUSART1_DefaultFr
      +                          amingErrorHandler);
  2942  00201C  0E00               	movlw	0
  2943  00201E  6E08               	movwf	EUSART1_SetFramingErrorHandler@interruptHandler^0,c
  2944  002020  0E00               	movlw	0
  2945  002022  6E09               	movwf	(EUSART1_SetFramingErrorHandler@interruptHandler+1)^0,c
  2946  002024  ECDC  F010         	call	_EUSART1_SetFramingErrorHandler	;wreg free
  2947  002028                     
  2948                           ;mcc_generated_files/eusart1.c: 87:     EUSART1_SetOverrunErrorHandler(EUSART1_DefaultOv
      +                          errunErrorHandler);
  2949  002028  0E00               	movlw	0
  2950  00202A  6E08               	movwf	EUSART1_SetOverrunErrorHandler@interruptHandler^0,c
  2951  00202C  0E00               	movlw	0
  2952  00202E  6E09               	movwf	(EUSART1_SetOverrunErrorHandler@interruptHandler+1)^0,c
  2953  002030  ECD7  F010         	call	_EUSART1_SetOverrunErrorHandler	;wreg free
  2954  002034                     
  2955                           ;mcc_generated_files/eusart1.c: 88:     EUSART1_SetErrorHandler(EUSART1_DefaultErrorHand
      +                          ler);
  2956  002034  0E00               	movlw	0
  2957  002036  6E08               	movwf	EUSART1_SetErrorHandler@interruptHandler^0,c
  2958  002038  0E00               	movlw	0
  2959  00203A  6E09               	movwf	(EUSART1_SetErrorHandler@interruptHandler+1)^0,c
  2960  00203C  ECE1  F010         	call	_EUSART1_SetErrorHandler	;wreg free
  2961  002040                     
  2962                           ;mcc_generated_files/eusart1.c: 90:     eusart1RxLastError.status = 0;
  2963  002040  0E00               	movlw	0
  2964  002042  0100               	movlb	0	; () banked
  2965  002044  6F73               	movwf	_eusart1RxLastError& (0+255),b	;volatile
  2966  002046                     
  2967                           ; BSR set to: 0
  2968  002046  0012               	return		;funcret
  2969  002048                     __end_of_EUSART1_Initialize:
  2970                           	opt callstack 0
  2971                           
  2972 ;; *************** function _EUSART1_SetOverrunErrorHandler *****************
  2973 ;; Defined at:
  2974 ;;		line 170 in file "mcc_generated_files/eusart1.c"
  2975 ;; Parameters:    Size  Location     Type
  2976 ;;  interruptHan    2    7[COMRAM] PTR FTN()void 
  2977 ;;		 -> EUSART1_DefaultOverrunErrorHandler(1), 
  2978 ;; Auto vars:     Size  Location     Type
  2979 ;;		None
  2980 ;; Return value:  Size  Location     Type
  2981 ;;                  1    wreg      void 
  2982 ;; Registers used:
  2983 ;;		wreg, status,2, status,0
  2984 ;; Tracked objects:
  2985 ;;		On entry : 0/0
  2986 ;;		On exit  : 0/0
  2987 ;;		Unchanged: 0/0
  2988 ;; Data sizes:     COMRAM   BANK0   BANK1   BANK2   BANK3   BANK4   BANK5   BANK6   BANK7   BANK8   BANK9  BANK10  BANK1
      +1  BANK12  BANK13  BANK14  BANK15
  2989 ;;      Params:         2       0       0       0       0       0       0       0       0       0       0       0       
      +0       0       0       0       0
  2990 ;;      Locals:         0       0       0       0       0       0       0       0       0       0       0       0       
      +0       0       0       0       0
  2991 ;;      Temps:          0       0       0       0       0       0       0       0       0       0       0       0       
      +0       0       0       0       0
  2992 ;;      Totals:         2       0       0       0       0       0       0       0       0       0       0       0       
      +0       0       0       0       0
  2993 ;;Total ram usage:        2 bytes
  2994 ;; Hardware stack levels used:    1
  2995 ;; Hardware stack levels required when called:    3
  2996 ;; This function calls:
  2997 ;;		Nothing
  2998 ;; This function is called by:
  2999 ;;		_EUSART1_Initialize
  3000 ;; This function uses a non-reentrant model
  3001 ;;
  3002                           
  3003                           	psect	text20
  3004  0021AE                     __ptext20:
  3005                           	opt callstack 0
  3006  0021AE                     _EUSART1_SetOverrunErrorHandler:
  3007                           	opt callstack 25
  3008  0021AE                     
  3009                           ;mcc_generated_files/eusart1.c: 171:     EUSART1_OverrunErrorHandler = interruptHandler;
  3010  0021AE  C008  F0C2         	movff	EUSART1_SetOverrunErrorHandler@interruptHandler,_EUSART1_OverrunErrorHandler
  3011  0021B2  C009  F0C3         	movff	EUSART1_SetOverrunErrorHandler@interruptHandler+1,_EUSART1_OverrunErrorHandler+1
  3012  0021B6  0012               	return		;funcret
  3013  0021B8                     __end_of_EUSART1_SetOverrunErrorHandler:
  3014                           	opt callstack 0
  3015                           
  3016 ;; *************** function _EUSART1_SetFramingErrorHandler *****************
  3017 ;; Defined at:
  3018 ;;		line 166 in file "mcc_generated_files/eusart1.c"
  3019 ;; Parameters:    Size  Location     Type
  3020 ;;  interruptHan    2    7[COMRAM] PTR FTN()void 
  3021 ;;		 -> EUSART1_DefaultFramingErrorHandler(1), 
  3022 ;; Auto vars:     Size  Location     Type
  3023 ;;		None
  3024 ;; Return value:  Size  Location     Type
  3025 ;;                  1    wreg      void 
  3026 ;; Registers used:
  3027 ;;		wreg, status,2, status,0
  3028 ;; Tracked objects:
  3029 ;;		On entry : 0/0
  3030 ;;		On exit  : 0/0
  3031 ;;		Unchanged: 0/0
  3032 ;; Data sizes:     COMRAM   BANK0   BANK1   BANK2   BANK3   BANK4   BANK5   BANK6   BANK7   BANK8   BANK9  BANK10  BANK1
      +1  BANK12  BANK13  BANK14  BANK15
  3033 ;;      Params:         2       0       0       0       0       0       0       0       0       0       0       0       
      +0       0       0       0       0
  3034 ;;      Locals:         0       0       0       0       0       0       0       0       0       0       0       0       
      +0       0       0       0       0
  3035 ;;      Temps:          0       0       0       0       0       0       0       0       0       0       0       0       
      +0       0       0       0       0
  3036 ;;      Totals:         2       0       0       0       0       0       0       0       0       0       0       0       
      +0       0       0       0       0
  3037 ;;Total ram usage:        2 bytes
  3038 ;; Hardware stack levels used:    1
  3039 ;; Hardware stack levels required when called:    3
  3040 ;; This function calls:
  3041 ;;		Nothing
  3042 ;; This function is called by:
  3043 ;;		_EUSART1_Initialize
  3044 ;; This function uses a non-reentrant model
  3045 ;;
  3046                           
  3047                           	psect	text21
  3048  0021B8                     __ptext21:
  3049                           	opt callstack 0
  3050  0021B8                     _EUSART1_SetFramingErrorHandler:
  3051                           	opt callstack 25
  3052  0021B8                     
  3053                           ;mcc_generated_files/eusart1.c: 167:     EUSART1_FramingErrorHandler = interruptHandler;
  3054  0021B8  C008  F0C4         	movff	EUSART1_SetFramingErrorHandler@interruptHandler,_EUSART1_FramingErrorHandler
  3055  0021BC  C009  F0C5         	movff	EUSART1_SetFramingErrorHandler@interruptHandler+1,_EUSART1_FramingErrorHandler+1
  3056  0021C0  0012               	return		;funcret
  3057  0021C2                     __end_of_EUSART1_SetFramingErrorHandler:
  3058                           	opt callstack 0
  3059                           
  3060 ;; *************** function _EUSART1_SetErrorHandler *****************
  3061 ;; Defined at:
  3062 ;;		line 174 in file "mcc_generated_files/eusart1.c"
  3063 ;; Parameters:    Size  Location     Type
  3064 ;;  interruptHan    2    7[COMRAM] PTR FTN()void 
  3065 ;;		 -> EUSART1_DefaultErrorHandler(1), 
  3066 ;; Auto vars:     Size  Location     Type
  3067 ;;		None
  3068 ;; Return value:  Size  Location     Type
  3069 ;;                  1    wreg      void 
  3070 ;; Registers used:
  3071 ;;		wreg, status,2, status,0
  3072 ;; Tracked objects:
  3073 ;;		On entry : 0/0
  3074 ;;		On exit  : 0/0
  3075 ;;		Unchanged: 0/0
  3076 ;; Data sizes:     COMRAM   BANK0   BANK1   BANK2   BANK3   BANK4   BANK5   BANK6   BANK7   BANK8   BANK9  BANK10  BANK1
      +1  BANK12  BANK13  BANK14  BANK15
  3077 ;;      Params:         2       0       0       0       0       0       0       0       0       0       0       0       
      +0       0       0       0       0
  3078 ;;      Locals:         0       0       0       0       0       0       0       0       0       0       0       0       
      +0       0       0       0       0
  3079 ;;      Temps:          0       0       0       0       0       0       0       0       0       0       0       0       
      +0       0       0       0       0
  3080 ;;      Totals:         2       0       0       0       0       0       0       0       0       0       0       0       
      +0       0       0       0       0
  3081 ;;Total ram usage:        2 bytes
  3082 ;; Hardware stack levels used:    1
  3083 ;; Hardware stack levels required when called:    3
  3084 ;; This function calls:
  3085 ;;		Nothing
  3086 ;; This function is called by:
  3087 ;;		_EUSART1_Initialize
  3088 ;; This function uses a non-reentrant model
  3089 ;;
  3090                           
  3091                           	psect	text22
  3092  0021C2                     __ptext22:
  3093                           	opt callstack 0
  3094  0021C2                     _EUSART1_SetErrorHandler:
  3095                           	opt callstack 25
  3096  0021C2                     
  3097                           ;mcc_generated_files/eusart1.c: 175:     EUSART1_ErrorHandler = interruptHandler;
  3098  0021C2  C008  F0C0         	movff	EUSART1_SetErrorHandler@interruptHandler,_EUSART1_ErrorHandler
  3099  0021C6  C009  F0C1         	movff	EUSART1_SetErrorHandler@interruptHandler+1,_EUSART1_ErrorHandler+1
  3100  0021CA  0012               	return		;funcret
  3101  0021CC                     __end_of_EUSART1_SetErrorHandler:
  3102                           	opt callstack 0
  3103                           
  3104 ;; *************** function _ReadTemperature *****************
  3105 ;; Defined at:
  3106 ;;		line 51 in file "main.c"
  3107 ;; Parameters:    Size  Location     Type
  3108 ;;		None
  3109 ;; Auto vars:     Size  Location     Type
  3110 ;;  status          1   25[COMRAM] enum E5998
  3111 ;;  readtemp        1   24[COMRAM] unsigned char 
  3112 ;;  TC_74           1   23[COMRAM] unsigned char 
  3113 ;; Return value:  Size  Location     Type
  3114 ;;                  1    wreg      unsigned char 
  3115 ;; Registers used:
  3116 ;;		wreg, fsr2l, fsr2h, status,2, status,0, cstack
  3117 ;; Tracked objects:
  3118 ;;		On entry : 0/0
  3119 ;;		On exit  : 0/0
  3120 ;;		Unchanged: 0/0
  3121 ;; Data sizes:     COMRAM   BANK0   BANK1   BANK2   BANK3   BANK4   BANK5   BANK6   BANK7   BANK8   BANK9  BANK10  BANK1
      +1  BANK12  BANK13  BANK14  BANK15
  3122 ;;      Params:         0       0       0       0       0       0       0       0       0       0       0       0       
      +0       0       0       0       0
  3123 ;;      Locals:         3       0       0       0       0       0       0       0       0       0       0       0       
      +0       0       0       0       0
  3124 ;;      Temps:          0       0       0       0       0       0       0       0       0       0       0       0       
      +0       0       0       0       0
  3125 ;;      Totals:         3       0       0       0       0       0       0       0       0       0       0       0       
      +0       0       0       0       0
  3126 ;;Total ram usage:        3 bytes
  3127 ;; Hardware stack levels used:    1
  3128 ;; Hardware stack levels required when called:    6
  3129 ;; This function calls:
  3130 ;;		_I2C1_MasterRead
  3131 ;;		_I2C1_MasterWrite
  3132 ;; This function is called by:
  3133 ;;		_main
  3134 ;; This function uses a non-reentrant model
  3135 ;;
  3136                           
  3137                           	psect	text23
  3138  001CDC                     __ptext23:
  3139                           	opt callstack 0
  3140  001CDC                     _ReadTemperature:
  3141                           	opt callstack 24
  3142  001CDC                     
  3143                           ;main.c: 53:     uint8_t readtemp;;main.c: 54:     uint8_t TC_74=0;
  3144  001CDC  0E00               	movlw	0
  3145  001CDE  6E18               	movwf	ReadTemperature@TC_74^0,c
  3146  001CE0                     
  3147                           ;main.c: 55:     I2C1_MESSAGE_STATUS status;;main.c: 57:     I2C1_MasterWrite(&TC_74, 1,
      +                           0x4D, &status);
  3148  001CE0  0E18               	movlw	low ReadTemperature@TC_74
  3149  001CE2  6E11               	movwf	I2C1_MasterWrite@pdata^0,c
  3150  001CE4  0E00               	movlw	high ReadTemperature@TC_74
  3151  001CE6  6E12               	movwf	(I2C1_MasterWrite@pdata+1)^0,c
  3152  001CE8  0E01               	movlw	1
  3153  001CEA  6E13               	movwf	I2C1_MasterWrite@length^0,c
  3154  001CEC  0E00               	movlw	0
  3155  001CEE  6E15               	movwf	(I2C1_MasterWrite@address+1)^0,c
  3156  001CF0  0E4D               	movlw	77
  3157  001CF2  6E14               	movwf	I2C1_MasterWrite@address^0,c
  3158  001CF4  0E1A               	movlw	low ReadTemperature@status
  3159  001CF6  6E16               	movwf	I2C1_MasterWrite@pflag^0,c
  3160  001CF8  0E00               	movlw	high ReadTemperature@status
  3161  001CFA  6E17               	movwf	(I2C1_MasterWrite@pflag+1)^0,c
  3162  001CFC  ECD6  F00E         	call	_I2C1_MasterWrite	;wreg free
  3163  001D00                     l2177:
  3164  001D00  0E02               	movlw	2
  3165  001D02  181A               	xorwf	ReadTemperature@status^0,w,c
  3166  001D04  B4D8               	btfsc	status,2,c
  3167  001D06  EF87  F00E         	goto	u1311
  3168  001D0A  EF89  F00E         	goto	u1310
  3169  001D0E                     u1311:
  3170  001D0E  EF80  F00E         	goto	l2177
  3171  001D12                     u1310:
  3172  001D12                     
  3173                           ;main.c: 60:     I2C1_MasterRead(&readtemp, 1, 0x4D, &status);
  3174  001D12  0E19               	movlw	low ReadTemperature@readtemp
  3175  001D14  6E11               	movwf	I2C1_MasterRead@pdata^0,c
  3176  001D16  0E00               	movlw	high ReadTemperature@readtemp
  3177  001D18  6E12               	movwf	(I2C1_MasterRead@pdata+1)^0,c
  3178  001D1A  0E01               	movlw	1
  3179  001D1C  6E13               	movwf	I2C1_MasterRead@length^0,c
  3180  001D1E  0E00               	movlw	0
  3181  001D20  6E15               	movwf	(I2C1_MasterRead@address+1)^0,c
  3182  001D22  0E4D               	movlw	77
  3183  001D24  6E14               	movwf	I2C1_MasterRead@address^0,c
  3184  001D26  0E1A               	movlw	low ReadTemperature@status
  3185  001D28  6E16               	movwf	I2C1_MasterRead@pflag^0,c
  3186  001D2A  0E00               	movlw	high ReadTemperature@status
  3187  001D2C  6E17               	movwf	(I2C1_MasterRead@pflag+1)^0,c
  3188  001D2E  EC02  F00F         	call	_I2C1_MasterRead	;wreg free
  3189  001D32                     l2181:
  3190  001D32  0E02               	movlw	2
  3191  001D34  181A               	xorwf	ReadTemperature@status^0,w,c
  3192  001D36  B4D8               	btfsc	status,2,c
  3193  001D38  EFA0  F00E         	goto	u1321
  3194  001D3C  EFA2  F00E         	goto	u1320
  3195  001D40                     u1321:
  3196  001D40  EF99  F00E         	goto	l2181
  3197  001D44                     u1320:
  3198  001D44                     
  3199                           ;main.c: 72:     return readtemp;
  3200  001D44  5019               	movf	ReadTemperature@readtemp^0,w,c
  3201  001D46  0012               	return		;funcret
  3202  001D48                     __end_of_ReadTemperature:
  3203                           	opt callstack 0
  3204                           
  3205 ;; *************** function _I2C1_MasterWrite *****************
  3206 ;; Defined at:
  3207 ;;		line 600 in file "mcc_generated_files/i2c1.c"
  3208 ;; Parameters:    Size  Location     Type
  3209 ;;  pdata           2   16[COMRAM] PTR unsigned char 
  3210 ;;		 -> ReadTemperature@TC_74(1), 
  3211 ;;  length          1   18[COMRAM] unsigned char 
  3212 ;;  address         2   19[COMRAM] unsigned short 
  3213 ;;  pflag           2   21[COMRAM] PTR enum E5995
  3214 ;;		 -> ReadTemperature@status(1), 
  3215 ;; Auto vars:     Size  Location     Type
  3216 ;;		None
  3217 ;; Return value:  Size  Location     Type
  3218 ;;                  1    wreg      void 
  3219 ;; Registers used:
  3220 ;;		wreg, fsr2l, fsr2h, status,2, status,0, cstack
  3221 ;; Tracked objects:
  3222 ;;		On entry : 0/0
  3223 ;;		On exit  : 0/0
  3224 ;;		Unchanged: 0/0
  3225 ;; Data sizes:     COMRAM   BANK0   BANK1   BANK2   BANK3   BANK4   BANK5   BANK6   BANK7   BANK8   BANK9  BANK10  BANK1
      +1  BANK12  BANK13  BANK14  BANK15
  3226 ;;      Params:         7       0       0       0       0       0       0       0       0       0       0       0       
      +0       0       0       0       0
  3227 ;;      Locals:         0       0       0       0       0       0       0       0       0       0       0       0       
      +0       0       0       0       0
  3228 ;;      Temps:          0       0       0       0       0       0       0       0       0       0       0       0       
      +0       0       0       0       0
  3229 ;;      Totals:         7       0       0       0       0       0       0       0       0       0       0       0       
      +0       0       0       0       0
  3230 ;;Total ram usage:        7 bytes
  3231 ;; Hardware stack levels used:    1
  3232 ;; Hardware stack levels required when called:    5
  3233 ;; This function calls:
  3234 ;;		_I2C1_MasterTRBInsert
  3235 ;;		_I2C1_MasterWriteTRBBuild
  3236 ;; This function is called by:
  3237 ;;		_ReadTemperature
  3238 ;; This function uses a non-reentrant model
  3239 ;;
  3240                           
  3241                           	psect	text24
  3242  001DAC                     __ptext24:
  3243                           	opt callstack 0
  3244  001DAC                     _I2C1_MasterWrite:
  3245                           	opt callstack 24
  3246  001DAC                     
  3247                           ;mcc_generated_files/i2c1.c: 601:                                 uint8_t *pdata,;mcc_ge
      +                          nerated_files/i2c1.c: 602:                                 uint8_t length,;mcc_generated
      +                          _files/i2c1.c: 603:                                 uint16_t address,;mcc_generated_file
      +                          s/i2c1.c: 604:                                 I2C1_MESSAGE_STATUS *pflag);mcc_generated
      +                          _files/i2c1.c: 605: {;mcc_generated_files/i2c1.c: 606:     static I2C1_TRANSACTION_REQUE
      +                          ST_BLOCK trBlock;;mcc_generated_files/i2c1.c: 609:     if (i2c1_object.trStatus.s.full !
      +                          = 1)
  3248  001DAC  0100               	movlb	0	; () banked
  3249  001DAE  B164               	btfsc	(_i2c1_object+4)& (0+255),0,b
  3250  001DB0  EFDC  F00E         	goto	u1271
  3251  001DB4  EFDE  F00E         	goto	u1270
  3252  001DB8                     u1271:
  3253  001DB8  EFFB  F00E         	goto	l2107
  3254  001DBC                     u1270:
  3255  001DBC                     
  3256                           ; BSR set to: 0
  3257                           ;mcc_generated_files/i2c1.c: 610:     {;mcc_generated_files/i2c1.c: 611:         I2C1_Ma
      +                          sterWriteTRBBuild(&trBlock, pdata, length, address);
  3258  001DBC  0E9A               	movlw	low I2C1_MasterWrite@trBlock
  3259  001DBE  6E08               	movwf	I2C1_MasterWriteTRBBuild@ptrb^0,c
  3260  001DC0  0E00               	movlw	high I2C1_MasterWrite@trBlock
  3261  001DC2  6E09               	movwf	(I2C1_MasterWriteTRBBuild@ptrb+1)^0,c
  3262  001DC4  C011  F00A         	movff	I2C1_MasterWrite@pdata,I2C1_MasterWriteTRBBuild@pdata
  3263  001DC8  C012  F00B         	movff	I2C1_MasterWrite@pdata+1,I2C1_MasterWriteTRBBuild@pdata+1
  3264  001DCC  C013  F00C         	movff	I2C1_MasterWrite@length,I2C1_MasterWriteTRBBuild@length
  3265  001DD0  C014  F00D         	movff	I2C1_MasterWrite@address,I2C1_MasterWriteTRBBuild@address
  3266  001DD4  C015  F00E         	movff	I2C1_MasterWrite@address+1,I2C1_MasterWriteTRBBuild@address+1
  3267  001DD8  ECC2  F00F         	call	_I2C1_MasterWriteTRBBuild	;wreg free
  3268                           
  3269                           ;mcc_generated_files/i2c1.c: 612:         I2C1_MasterTRBInsert(1, &trBlock, pflag);
  3270  001DDC  0E9A               	movlw	low I2C1_MasterWrite@trBlock
  3271  001DDE  6E08               	movwf	I2C1_MasterTRBInsert@ptrb_list^0,c
  3272  001DE0  0E00               	movlw	high I2C1_MasterWrite@trBlock
  3273  001DE2  6E09               	movwf	(I2C1_MasterTRBInsert@ptrb_list+1)^0,c
  3274  001DE4  C016  F00A         	movff	I2C1_MasterWrite@pflag,I2C1_MasterTRBInsert@pflag
  3275  001DE8  C017  F00B         	movff	I2C1_MasterWrite@pflag+1,I2C1_MasterTRBInsert@pflag+1
  3276  001DEC  0E01               	movlw	1
  3277  001DEE  EC5E  F00D         	call	_I2C1_MasterTRBInsert
  3278                           
  3279                           ;mcc_generated_files/i2c1.c: 613:     }
  3280  001DF2  EF01  F00F         	goto	l201
  3281  001DF6                     l2107:
  3282                           
  3283                           ; BSR set to: 0
  3284                           ;mcc_generated_files/i2c1.c: 615:     {;mcc_generated_files/i2c1.c: 616:         *pflag 
      +                          = I2C1_MESSAGE_FAIL;
  3285  001DF6  C016  FFD9         	movff	I2C1_MasterWrite@pflag,fsr2l
  3286  001DFA  C017  FFDA         	movff	I2C1_MasterWrite@pflag+1,fsr2h
  3287  001DFE  0E01               	movlw	1
  3288  001E00  6EDF               	movwf	indf2,c
  3289  001E02                     l201:
  3290  001E02  0012               	return		;funcret
  3291  001E04                     __end_of_I2C1_MasterWrite:
  3292                           	opt callstack 0
  3293                           
  3294 ;; *************** function _I2C1_MasterWriteTRBBuild *****************
  3295 ;; Defined at:
  3296 ;;		line 721 in file "mcc_generated_files/i2c1.c"
  3297 ;; Parameters:    Size  Location     Type
  3298 ;;  ptrb            2    7[COMRAM] PTR struct .
  3299 ;;		 -> I2C1_MasterWrite@trBlock(5), 
  3300 ;;  pdata           2    9[COMRAM] PTR unsigned char 
  3301 ;;		 -> ReadTemperature@TC_74(1), 
  3302 ;;  length          1   11[COMRAM] unsigned char 
  3303 ;;  address         2   12[COMRAM] unsigned short 
  3304 ;; Auto vars:     Size  Location     Type
  3305 ;;		None
  3306 ;; Return value:  Size  Location     Type
  3307 ;;                  1    wreg      void 
  3308 ;; Registers used:
  3309 ;;		wreg, fsr2l, fsr2h, status,2, status,0
  3310 ;; Tracked objects:
  3311 ;;		On entry : 0/0
  3312 ;;		On exit  : 0/0
  3313 ;;		Unchanged: 0/0
  3314 ;; Data sizes:     COMRAM   BANK0   BANK1   BANK2   BANK3   BANK4   BANK5   BANK6   BANK7   BANK8   BANK9  BANK10  BANK1
      +1  BANK12  BANK13  BANK14  BANK15
  3315 ;;      Params:         7       0       0       0       0       0       0       0       0       0       0       0       
      +0       0       0       0       0
  3316 ;;      Locals:         0       0       0       0       0       0       0       0       0       0       0       0       
      +0       0       0       0       0
  3317 ;;      Temps:          2       0       0       0       0       0       0       0       0       0       0       0       
      +0       0       0       0       0
  3318 ;;      Totals:         9       0       0       0       0       0       0       0       0       0       0       0       
      +0       0       0       0       0
  3319 ;;Total ram usage:        9 bytes
  3320 ;; Hardware stack levels used:    1
  3321 ;; Hardware stack levels required when called:    3
  3322 ;; This function calls:
  3323 ;;		Nothing
  3324 ;; This function is called by:
  3325 ;;		_I2C1_MasterWrite
  3326 ;; This function uses a non-reentrant model
  3327 ;;
  3328                           
  3329                           	psect	text25
  3330  001F84                     __ptext25:
  3331                           	opt callstack 0
  3332  001F84                     _I2C1_MasterWriteTRBBuild:
  3333                           	opt callstack 25
  3334  001F84                     
  3335                           ;mcc_generated_files/i2c1.c: 722:                                 I2C1_TRANSACTION_REQUE
      +                          ST_BLOCK *ptrb,;mcc_generated_files/i2c1.c: 723:                                 uint8_t
      +                           *pdata,;mcc_generated_files/i2c1.c: 724:                                 uint8_t length
      +                          ,;mcc_generated_files/i2c1.c: 725:                                 uint16_t address);mcc
      +                          _generated_files/i2c1.c: 726: {;mcc_generated_files/i2c1.c: 727:     ptrb->address = add
      +                          ress << 1;
  3336  001F84  C00D  F00F         	movff	I2C1_MasterWriteTRBBuild@address,??_I2C1_MasterWriteTRBBuild
  3337  001F88  C00E  F010         	movff	I2C1_MasterWriteTRBBuild@address+1,??_I2C1_MasterWriteTRBBuild+1
  3338  001F8C  90D8               	bcf	status,0,c
  3339  001F8E  360F               	rlcf	??_I2C1_MasterWriteTRBBuild^0,f,c
  3340  001F90  3610               	rlcf	(??_I2C1_MasterWriteTRBBuild+1)^0,f,c
  3341  001F92  C008  FFD9         	movff	I2C1_MasterWriteTRBBuild@ptrb,fsr2l
  3342  001F96  C009  FFDA         	movff	I2C1_MasterWriteTRBBuild@ptrb+1,fsr2h
  3343  001F9A  C00F  FFDE         	movff	??_I2C1_MasterWriteTRBBuild,postinc2
  3344  001F9E  C010  FFDD         	movff	??_I2C1_MasterWriteTRBBuild+1,postdec2
  3345  001FA2                     
  3346                           ;mcc_generated_files/i2c1.c: 728:     ptrb->length = length;
  3347  001FA2  EE20 F002          	lfsr	2,2
  3348  001FA6  5008               	movf	I2C1_MasterWriteTRBBuild@ptrb^0,w,c
  3349  001FA8  26D9               	addwf	fsr2l,f,c
  3350  001FAA  5009               	movf	(I2C1_MasterWriteTRBBuild@ptrb+1)^0,w,c
  3351  001FAC  22DA               	addwfc	fsr2h,f,c
  3352  001FAE  C00C  FFDF         	movff	I2C1_MasterWriteTRBBuild@length,indf2
  3353  001FB2                     
  3354                           ;mcc_generated_files/i2c1.c: 729:     ptrb->pbuffer = pdata;
  3355  001FB2  EE20 F003          	lfsr	2,3
  3356  001FB6  5008               	movf	I2C1_MasterWriteTRBBuild@ptrb^0,w,c
  3357  001FB8  26D9               	addwf	fsr2l,f,c
  3358  001FBA  5009               	movf	(I2C1_MasterWriteTRBBuild@ptrb+1)^0,w,c
  3359  001FBC  22DA               	addwfc	fsr2h,f,c
  3360  001FBE  C00A  FFDE         	movff	I2C1_MasterWriteTRBBuild@pdata,postinc2
  3361  001FC2  C00B  FFDD         	movff	I2C1_MasterWriteTRBBuild@pdata+1,postdec2
  3362  001FC6  0012               	return		;funcret
  3363  001FC8                     __end_of_I2C1_MasterWriteTRBBuild:
  3364                           	opt callstack 0
  3365                           
  3366 ;; *************** function _I2C1_MasterRead *****************
  3367 ;; Defined at:
  3368 ;;		line 621 in file "mcc_generated_files/i2c1.c"
  3369 ;; Parameters:    Size  Location     Type
  3370 ;;  pdata           2   16[COMRAM] PTR unsigned char 
  3371 ;;		 -> ReadTemperature@readtemp(1), 
  3372 ;;  length          1   18[COMRAM] unsigned char 
  3373 ;;  address         2   19[COMRAM] unsigned short 
  3374 ;;  pflag           2   21[COMRAM] PTR enum E5995
  3375 ;;		 -> ReadTemperature@status(1), 
  3376 ;; Auto vars:     Size  Location     Type
  3377 ;;		None
  3378 ;; Return value:  Size  Location     Type
  3379 ;;                  1    wreg      void 
  3380 ;; Registers used:
  3381 ;;		wreg, fsr2l, fsr2h, status,2, status,0, cstack
  3382 ;; Tracked objects:
  3383 ;;		On entry : 0/0
  3384 ;;		On exit  : 0/0
  3385 ;;		Unchanged: 0/0
  3386 ;; Data sizes:     COMRAM   BANK0   BANK1   BANK2   BANK3   BANK4   BANK5   BANK6   BANK7   BANK8   BANK9  BANK10  BANK1
      +1  BANK12  BANK13  BANK14  BANK15
  3387 ;;      Params:         7       0       0       0       0       0       0       0       0       0       0       0       
      +0       0       0       0       0
  3388 ;;      Locals:         0       0       0       0       0       0       0       0       0       0       0       0       
      +0       0       0       0       0
  3389 ;;      Temps:          0       0       0       0       0       0       0       0       0       0       0       0       
      +0       0       0       0       0
  3390 ;;      Totals:         7       0       0       0       0       0       0       0       0       0       0       0       
      +0       0       0       0       0
  3391 ;;Total ram usage:        7 bytes
  3392 ;; Hardware stack levels used:    1
  3393 ;; Hardware stack levels required when called:    5
  3394 ;; This function calls:
  3395 ;;		_I2C1_MasterReadTRBBuild
  3396 ;;		_I2C1_MasterTRBInsert
  3397 ;; This function is called by:
  3398 ;;		_ReadTemperature
  3399 ;; This function uses a non-reentrant model
  3400 ;;
  3401                           
  3402                           	psect	text26
  3403  001E04                     __ptext26:
  3404                           	opt callstack 0
  3405  001E04                     _I2C1_MasterRead:
  3406                           	opt callstack 24
  3407  001E04                     
  3408                           ;mcc_generated_files/i2c1.c: 622:                                 uint8_t *pdata,;mcc_ge
      +                          nerated_files/i2c1.c: 623:                                 uint8_t length,;mcc_generated
      +                          _files/i2c1.c: 624:                                 uint16_t address,;mcc_generated_file
      +                          s/i2c1.c: 625:                                 I2C1_MESSAGE_STATUS *pflag);mcc_generated
      +                          _files/i2c1.c: 626: {;mcc_generated_files/i2c1.c: 627:     static I2C1_TRANSACTION_REQUE
      +                          ST_BLOCK trBlock;;mcc_generated_files/i2c1.c: 631:     if (i2c1_object.trStatus.s.full !
      +                          = 1)
  3409  001E04  0100               	movlb	0	; () banked
  3410  001E06  B164               	btfsc	(_i2c1_object+4)& (0+255),0,b
  3411  001E08  EF08  F00F         	goto	u1281
  3412  001E0C  EF0A  F00F         	goto	u1280
  3413  001E10                     u1281:
  3414  001E10  EF27  F00F         	goto	l2113
  3415  001E14                     u1280:
  3416  001E14                     
  3417                           ; BSR set to: 0
  3418                           ;mcc_generated_files/i2c1.c: 632:     {;mcc_generated_files/i2c1.c: 633:         I2C1_Ma
      +                          sterReadTRBBuild(&trBlock, pdata, length, address);
  3419  001E14  0E95               	movlw	low I2C1_MasterRead@trBlock
  3420  001E16  6E08               	movwf	I2C1_MasterReadTRBBuild@ptrb^0,c
  3421  001E18  0E00               	movlw	high I2C1_MasterRead@trBlock
  3422  001E1A  6E09               	movwf	(I2C1_MasterReadTRBBuild@ptrb+1)^0,c
  3423  001E1C  C011  F00A         	movff	I2C1_MasterRead@pdata,I2C1_MasterReadTRBBuild@pdata
  3424  001E20  C012  F00B         	movff	I2C1_MasterRead@pdata+1,I2C1_MasterReadTRBBuild@pdata+1
  3425  001E24  C013  F00C         	movff	I2C1_MasterRead@length,I2C1_MasterReadTRBBuild@length
  3426  001E28  C014  F00D         	movff	I2C1_MasterRead@address,I2C1_MasterReadTRBBuild@address
  3427  001E2C  C015  F00E         	movff	I2C1_MasterRead@address+1,I2C1_MasterReadTRBBuild@address+1
  3428  001E30  EC2E  F00F         	call	_I2C1_MasterReadTRBBuild	;wreg free
  3429                           
  3430                           ;mcc_generated_files/i2c1.c: 634:         I2C1_MasterTRBInsert(1, &trBlock, pflag);
  3431  001E34  0E95               	movlw	low I2C1_MasterRead@trBlock
  3432  001E36  6E08               	movwf	I2C1_MasterTRBInsert@ptrb_list^0,c
  3433  001E38  0E00               	movlw	high I2C1_MasterRead@trBlock
  3434  001E3A  6E09               	movwf	(I2C1_MasterTRBInsert@ptrb_list+1)^0,c
  3435  001E3C  C016  F00A         	movff	I2C1_MasterRead@pflag,I2C1_MasterTRBInsert@pflag
  3436  001E40  C017  F00B         	movff	I2C1_MasterRead@pflag+1,I2C1_MasterTRBInsert@pflag+1
  3437  001E44  0E01               	movlw	1
  3438  001E46  EC5E  F00D         	call	_I2C1_MasterTRBInsert
  3439                           
  3440                           ;mcc_generated_files/i2c1.c: 635:     }
  3441  001E4A  EF2D  F00F         	goto	l208
  3442  001E4E                     l2113:
  3443                           
  3444                           ; BSR set to: 0
  3445                           ;mcc_generated_files/i2c1.c: 637:     {;mcc_generated_files/i2c1.c: 638:         *pflag 
      +                          = I2C1_MESSAGE_FAIL;
  3446  001E4E  C016  FFD9         	movff	I2C1_MasterRead@pflag,fsr2l
  3447  001E52  C017  FFDA         	movff	I2C1_MasterRead@pflag+1,fsr2h
  3448  001E56  0E01               	movlw	1
  3449  001E58  6EDF               	movwf	indf2,c
  3450  001E5A                     l208:
  3451  001E5A  0012               	return		;funcret
  3452  001E5C                     __end_of_I2C1_MasterRead:
  3453                           	opt callstack 0
  3454                           
  3455 ;; *************** function _I2C1_MasterTRBInsert *****************
  3456 ;; Defined at:
  3457 ;;		line 654 in file "mcc_generated_files/i2c1.c"
  3458 ;; Parameters:    Size  Location     Type
  3459 ;;  count           1    wreg     unsigned char 
  3460 ;;  ptrb_list       2    7[COMRAM] PTR struct .
  3461 ;;		 -> I2C1_MasterRead@trBlock(5), I2C1_MasterWrite@trBlock(5), 
  3462 ;;  pflag           2    9[COMRAM] PTR enum E5995
  3463 ;;		 -> ReadTemperature@status(1), 
  3464 ;; Auto vars:     Size  Location     Type
  3465 ;;  count           1   12[COMRAM] unsigned char 
  3466 ;; Return value:  Size  Location     Type
  3467 ;;                  1    wreg      void 
  3468 ;; Registers used:
  3469 ;;		wreg, fsr2l, fsr2h, status,2, status,0, cstack
  3470 ;; Tracked objects:
  3471 ;;		On entry : 0/0
  3472 ;;		On exit  : 0/0
  3473 ;;		Unchanged: 0/0
  3474 ;; Data sizes:     COMRAM   BANK0   BANK1   BANK2   BANK3   BANK4   BANK5   BANK6   BANK7   BANK8   BANK9  BANK10  BANK1
      +1  BANK12  BANK13  BANK14  BANK15
  3475 ;;      Params:         4       0       0       0       0       0       0       0       0       0       0       0       
      +0       0       0       0       0
  3476 ;;      Locals:         1       0       0       0       0       0       0       0       0       0       0       0       
      +0       0       0       0       0
  3477 ;;      Temps:          1       0       0       0       0       0       0       0       0       0       0       0       
      +0       0       0       0       0
  3478 ;;      Totals:         6       0       0       0       0       0       0       0       0       0       0       0       
      +0       0       0       0       0
  3479 ;;Total ram usage:        6 bytes
  3480 ;; Hardware stack levels used:    1
  3481 ;; Hardware stack levels required when called:    4
  3482 ;; This function calls:
  3483 ;;		_I2C1_WaitForLastPacketToComplete
  3484 ;; This function is called by:
  3485 ;;		_I2C1_MasterWrite
  3486 ;;		_I2C1_MasterRead
  3487 ;; This function uses a non-reentrant model
  3488 ;;
  3489                           
  3490                           	psect	text27
  3491  001ABC                     __ptext27:
  3492                           	opt callstack 0
  3493  001ABC                     _I2C1_MasterTRBInsert:
  3494                           	opt callstack 24
  3495                           
  3496                           ;incstack = 0
  3497                           ;I2C1_MasterTRBInsert@count stored from wreg
  3498  001ABC  6E0D               	movwf	I2C1_MasterTRBInsert@count^0,c
  3499  001ABE                     
  3500                           ;mcc_generated_files/i2c1.c: 655:                                 uint8_t count,;mcc_gen
      +                          erated_files/i2c1.c: 656:                                 I2C1_TRANSACTION_REQUEST_BLOCK
      +                           *ptrb_list,;mcc_generated_files/i2c1.c: 657:                                 I2C1_MESSA
      +                          GE_STATUS *pflag);mcc_generated_files/i2c1.c: 658: {;mcc_generated_files/i2c1.c: 661:   
      +                            if (i2c1_object.trStatus.s.full != 1)
  3501  001ABE  0100               	movlb	0	; () banked
  3502  001AC0  B164               	btfsc	(_i2c1_object+4)& (0+255),0,b
  3503  001AC2  EF65  F00D         	goto	u1191
  3504  001AC6  EF67  F00D         	goto	u1190
  3505  001ACA                     u1191:
  3506  001ACA  EFAB  F00D         	goto	l2039
  3507  001ACE                     u1190:
  3508  001ACE                     
  3509                           ; BSR set to: 0
  3510                           ;mcc_generated_files/i2c1.c: 662:     {;mcc_generated_files/i2c1.c: 663:         *pflag 
      +                          = I2C1_MESSAGE_PENDING;
  3511  001ACE  C00A  FFD9         	movff	I2C1_MasterTRBInsert@pflag,fsr2l
  3512  001AD2  C00B  FFDA         	movff	I2C1_MasterTRBInsert@pflag+1,fsr2h
  3513  001AD6  0E02               	movlw	2
  3514  001AD8  6EDF               	movwf	indf2,c
  3515  001ADA                     
  3516                           ; BSR set to: 0
  3517                           ;mcc_generated_files/i2c1.c: 665:         i2c1_object.pTrTail->ptrb_list = ptrb_list;
  3518  001ADA  EE20 F001          	lfsr	2,1
  3519  001ADE  5160               	movf	_i2c1_object& (0+255),w,b
  3520  001AE0  26D9               	addwf	fsr2l,f,c
  3521  001AE2  5161               	movf	(_i2c1_object+1)& (0+255),w,b
  3522  001AE4  22DA               	addwfc	fsr2h,f,c
  3523  001AE6  C008  FFDE         	movff	I2C1_MasterTRBInsert@ptrb_list,postinc2
  3524  001AEA  C009  FFDD         	movff	I2C1_MasterTRBInsert@ptrb_list+1,postdec2
  3525  001AEE                     
  3526                           ; BSR set to: 0
  3527                           ;mcc_generated_files/i2c1.c: 666:         i2c1_object.pTrTail->count = count;
  3528  001AEE  C060  FFD9         	movff	_i2c1_object,fsr2l
  3529  001AF2  C061  FFDA         	movff	_i2c1_object+1,fsr2h
  3530  001AF6  C00D  FFDF         	movff	I2C1_MasterTRBInsert@count,indf2
  3531  001AFA                     
  3532                           ; BSR set to: 0
  3533                           ;mcc_generated_files/i2c1.c: 667:         i2c1_object.pTrTail->pTrFlag = pflag;
  3534  001AFA  EE20 F003          	lfsr	2,3
  3535  001AFE  5160               	movf	_i2c1_object& (0+255),w,b
  3536  001B00  26D9               	addwf	fsr2l,f,c
  3537  001B02  5161               	movf	(_i2c1_object+1)& (0+255),w,b
  3538  001B04  22DA               	addwfc	fsr2h,f,c
  3539  001B06  C00A  FFDE         	movff	I2C1_MasterTRBInsert@pflag,postinc2
  3540  001B0A  C00B  FFDD         	movff	I2C1_MasterTRBInsert@pflag+1,postdec2
  3541  001B0E                     
  3542                           ; BSR set to: 0
  3543                           ;mcc_generated_files/i2c1.c: 668:         i2c1_object.pTrTail++;
  3544  001B0E  0E05               	movlw	5
  3545  001B10  2760               	addwf	_i2c1_object& (0+255),f,b
  3546  001B12  0E00               	movlw	0
  3547  001B14  2361               	addwfc	(_i2c1_object+1)& (0+255),f,b
  3548  001B16                     
  3549                           ; BSR set to: 0
  3550                           ;mcc_generated_files/i2c1.c: 671:         if (i2c1_object.pTrTail == (i2c1_tr_queue + 1)
      +                          )
  3551  001B16  0EA4               	movlw	low (_i2c1_tr_queue+5)
  3552  001B18  1960               	xorwf	_i2c1_object& (0+255),w,b
  3553  001B1A  E107               	bnz	u1201
  3554  001B1C  0E00               	movlw	high (_i2c1_tr_queue+5)
  3555  001B1E  1961               	xorwf	(_i2c1_object+1)& (0+255),w,b
  3556  001B20  A4D8               	btfss	status,2,c
  3557  001B22  EF95  F00D         	goto	u1201
  3558  001B26  EF97  F00D         	goto	u1200
  3559  001B2A                     u1201:
  3560  001B2A  EF9B  F00D         	goto	l2035
  3561  001B2E                     u1200:
  3562  001B2E                     
  3563                           ; BSR set to: 0
  3564                           ;mcc_generated_files/i2c1.c: 672:         {;mcc_generated_files/i2c1.c: 674:            
      +                           i2c1_object.pTrTail = i2c1_tr_queue;
  3565  001B2E  0E9F               	movlw	low _i2c1_tr_queue
  3566  001B30  6F60               	movwf	_i2c1_object& (0+255),b
  3567  001B32  0E00               	movlw	high _i2c1_tr_queue
  3568  001B34  6F61               	movwf	(_i2c1_object+1)& (0+255),b
  3569  001B36                     l2035:
  3570                           
  3571                           ; BSR set to: 0
  3572                           ;mcc_generated_files/i2c1.c: 679:         i2c1_object.trStatus.s.empty = 0;
  3573  001B36  9364               	bcf	(_i2c1_object+4)& (0+255),1,b
  3574                           
  3575                           ;mcc_generated_files/i2c1.c: 682:         if (i2c1_object.pTrHead == i2c1_object.pTrTail
      +                          )
  3576  001B38  5160               	movf	_i2c1_object& (0+255),w,b
  3577  001B3A  1962               	xorwf	(_i2c1_object+2)& (0+255),w,b
  3578  001B3C  E107               	bnz	u1211
  3579  001B3E  5161               	movf	(_i2c1_object+1)& (0+255),w,b
  3580  001B40  1963               	xorwf	(_i2c1_object+3)& (0+255),w,b
  3581  001B42  A4D8               	btfss	status,2,c
  3582  001B44  EFA6  F00D         	goto	u1211
  3583  001B48  EFA8  F00D         	goto	u1210
  3584  001B4C                     u1211:
  3585  001B4C  EFB1  F00D         	goto	l2041
  3586  001B50                     u1210:
  3587  001B50                     
  3588                           ; BSR set to: 0
  3589                           ;mcc_generated_files/i2c1.c: 683:         {;mcc_generated_files/i2c1.c: 685:            
      +                           i2c1_object.trStatus.s.full = 1;
  3590  001B50  8164               	bsf	(_i2c1_object+4)& (0+255),0,b
  3591  001B52  EFB1  F00D         	goto	l2041
  3592  001B56                     l2039:
  3593                           
  3594                           ; BSR set to: 0
  3595                           ;mcc_generated_files/i2c1.c: 690:     {;mcc_generated_files/i2c1.c: 691:         *pflag 
      +                          = I2C1_MESSAGE_FAIL;
  3596  001B56  C00A  FFD9         	movff	I2C1_MasterTRBInsert@pflag,fsr2l
  3597  001B5A  C00B  FFDA         	movff	I2C1_MasterTRBInsert@pflag+1,fsr2h
  3598  001B5E  0E01               	movlw	1
  3599  001B60  6EDF               	movwf	indf2,c
  3600  001B62                     l2041:
  3601                           
  3602                           ; BSR set to: 0
  3603                           ;mcc_generated_files/i2c1.c: 695:     if (*pflag == I2C1_MESSAGE_PENDING)
  3604  001B62  C00A  FFD9         	movff	I2C1_MasterTRBInsert@pflag,fsr2l
  3605  001B66  C00B  FFDA         	movff	I2C1_MasterTRBInsert@pflag+1,fsr2h
  3606  001B6A  0E02               	movlw	2
  3607  001B6C  18DE               	xorwf	postinc2,w,c
  3608  001B6E  A4D8               	btfss	status,2,c
  3609  001B70  EFBC  F00D         	goto	u1221
  3610  001B74  EFBE  F00D         	goto	u1220
  3611  001B78                     u1221:
  3612  001B78  EFC1  F00D         	goto	l222
  3613  001B7C                     u1220:
  3614  001B7C                     
  3615                           ; BSR set to: 0
  3616                           ;mcc_generated_files/i2c1.c: 696:     {;mcc_generated_files/i2c1.c: 697:         I2C1_Wa
      +                          itForLastPacketToComplete();
  3617  001B7C  ECC2  F010         	call	_I2C1_WaitForLastPacketToComplete	;wreg free
  3618  001B80                     
  3619                           ;mcc_generated_files/i2c1.c: 702:         PIR1bits.SSP1IF = 1;
  3620  001B80  869E               	bsf	158,3,c	;volatile
  3621  001B82                     l222:
  3622  001B82  0012               	return		;funcret
  3623  001B84                     __end_of_I2C1_MasterTRBInsert:
  3624                           	opt callstack 0
  3625                           
  3626 ;; *************** function _I2C1_WaitForLastPacketToComplete *****************
  3627 ;; Defined at:
  3628 ;;		line 644 in file "mcc_generated_files/i2c1.c"
  3629 ;; Parameters:    Size  Location     Type
  3630 ;;		None
  3631 ;; Auto vars:     Size  Location     Type
  3632 ;;		None
  3633 ;; Return value:  Size  Location     Type
  3634 ;;                  1    wreg      void 
  3635 ;; Registers used:
  3636 ;;		wreg, status,2
  3637 ;; Tracked objects:
  3638 ;;		On entry : 0/0
  3639 ;;		On exit  : 0/0
  3640 ;;		Unchanged: 0/0
  3641 ;; Data sizes:     COMRAM   BANK0   BANK1   BANK2   BANK3   BANK4   BANK5   BANK6   BANK7   BANK8   BANK9  BANK10  BANK1
      +1  BANK12  BANK13  BANK14  BANK15
  3642 ;;      Params:         0       0       0       0       0       0       0       0       0       0       0       0       
      +0       0       0       0       0
  3643 ;;      Locals:         0       0       0       0       0       0       0       0       0       0       0       0       
      +0       0       0       0       0
  3644 ;;      Temps:          0       0       0       0       0       0       0       0       0       0       0       0       
      +0       0       0       0       0
  3645 ;;      Totals:         0       0       0       0       0       0       0       0       0       0       0       0       
      +0       0       0       0       0
  3646 ;;Total ram usage:        0 bytes
  3647 ;; Hardware stack levels used:    1
  3648 ;; Hardware stack levels required when called:    3
  3649 ;; This function calls:
  3650 ;;		Nothing
  3651 ;; This function is called by:
  3652 ;;		_I2C1_MasterTRBInsert
  3653 ;; This function uses a non-reentrant model
  3654 ;;
  3655                           
  3656                           	psect	text28
  3657  002184                     __ptext28:
  3658                           	opt callstack 0
  3659  002184                     _I2C1_WaitForLastPacketToComplete:
  3660                           	opt callstack 24
  3661  002184                     l1949:
  3662                           
  3663                           ;mcc_generated_files/i2c1.c: 646:     while(i2c1_state != S_MASTER_IDLE)
  3664  002184  5054               	movf	_i2c1_state^0,w,c
  3665  002186  A4D8               	btfss	status,2,c
  3666  002188  EFC8  F010         	goto	u1031
  3667  00218C  EFCA  F010         	goto	u1030
  3668  002190                     u1031:
  3669  002190  EFC2  F010         	goto	l1949
  3670  002194                     u1030:
  3671  002194  0012               	return		;funcret
  3672  002196                     __end_of_I2C1_WaitForLastPacketToComplete:
  3673                           	opt callstack 0
  3674                           
  3675 ;; *************** function _I2C1_MasterReadTRBBuild *****************
  3676 ;; Defined at:
  3677 ;;		line 708 in file "mcc_generated_files/i2c1.c"
  3678 ;; Parameters:    Size  Location     Type
  3679 ;;  ptrb            2    7[COMRAM] PTR struct .
  3680 ;;		 -> I2C1_MasterRead@trBlock(5), 
  3681 ;;  pdata           2    9[COMRAM] PTR unsigned char 
  3682 ;;		 -> ReadTemperature@readtemp(1), 
  3683 ;;  length          1   11[COMRAM] unsigned char 
  3684 ;;  address         2   12[COMRAM] unsigned short 
  3685 ;; Auto vars:     Size  Location     Type
  3686 ;;		None
  3687 ;; Return value:  Size  Location     Type
  3688 ;;                  1    wreg      void 
  3689 ;; Registers used:
  3690 ;;		wreg, fsr2l, fsr2h, status,2, status,0
  3691 ;; Tracked objects:
  3692 ;;		On entry : 0/0
  3693 ;;		On exit  : 0/0
  3694 ;;		Unchanged: 0/0
  3695 ;; Data sizes:     COMRAM   BANK0   BANK1   BANK2   BANK3   BANK4   BANK5   BANK6   BANK7   BANK8   BANK9  BANK10  BANK1
      +1  BANK12  BANK13  BANK14  BANK15
  3696 ;;      Params:         7       0       0       0       0       0       0       0       0       0       0       0       
      +0       0       0       0       0
  3697 ;;      Locals:         0       0       0       0       0       0       0       0       0       0       0       0       
      +0       0       0       0       0
  3698 ;;      Temps:          2       0       0       0       0       0       0       0       0       0       0       0       
      +0       0       0       0       0
  3699 ;;      Totals:         9       0       0       0       0       0       0       0       0       0       0       0       
      +0       0       0       0       0
  3700 ;;Total ram usage:        9 bytes
  3701 ;; Hardware stack levels used:    1
  3702 ;; Hardware stack levels required when called:    3
  3703 ;; This function calls:
  3704 ;;		Nothing
  3705 ;; This function is called by:
  3706 ;;		_I2C1_MasterRead
  3707 ;; This function uses a non-reentrant model
  3708 ;;
  3709                           
  3710                           	psect	text29
  3711  001E5C                     __ptext29:
  3712                           	opt callstack 0
  3713  001E5C                     _I2C1_MasterReadTRBBuild:
  3714                           	opt callstack 25
  3715  001E5C                     
  3716                           ;mcc_generated_files/i2c1.c: 709:                                 I2C1_TRANSACTION_REQUE
      +                          ST_BLOCK *ptrb,;mcc_generated_files/i2c1.c: 710:                                 uint8_t
      +                           *pdata,;mcc_generated_files/i2c1.c: 711:                                 uint8_t length
      +                          ,;mcc_generated_files/i2c1.c: 712:                                 uint16_t address);mcc
      +                          _generated_files/i2c1.c: 713: {;mcc_generated_files/i2c1.c: 714:     ptrb->address = add
      +                          ress << 1;
  3717  001E5C  C00D  F00F         	movff	I2C1_MasterReadTRBBuild@address,??_I2C1_MasterReadTRBBuild
  3718  001E60  C00E  F010         	movff	I2C1_MasterReadTRBBuild@address+1,??_I2C1_MasterReadTRBBuild+1
  3719  001E64  90D8               	bcf	status,0,c
  3720  001E66  360F               	rlcf	??_I2C1_MasterReadTRBBuild^0,f,c
  3721  001E68  3610               	rlcf	(??_I2C1_MasterReadTRBBuild+1)^0,f,c
  3722  001E6A  C008  FFD9         	movff	I2C1_MasterReadTRBBuild@ptrb,fsr2l
  3723  001E6E  C009  FFDA         	movff	I2C1_MasterReadTRBBuild@ptrb+1,fsr2h
  3724  001E72  C00F  FFDE         	movff	??_I2C1_MasterReadTRBBuild,postinc2
  3725  001E76  C010  FFDD         	movff	??_I2C1_MasterReadTRBBuild+1,postdec2
  3726  001E7A                     
  3727                           ;mcc_generated_files/i2c1.c: 716:     ptrb->address |= 0x01;
  3728  001E7A  C008  FFD9         	movff	I2C1_MasterReadTRBBuild@ptrb,fsr2l
  3729  001E7E  C009  FFDA         	movff	I2C1_MasterReadTRBBuild@ptrb+1,fsr2h
  3730  001E82  0E00               	movlw	0
  3731  001E84  80DB               	bsf	plusw2,0,c
  3732  001E86                     
  3733                           ;mcc_generated_files/i2c1.c: 717:     ptrb->length = length;
  3734  001E86  EE20 F002          	lfsr	2,2
  3735  001E8A  5008               	movf	I2C1_MasterReadTRBBuild@ptrb^0,w,c
  3736  001E8C  26D9               	addwf	fsr2l,f,c
  3737  001E8E  5009               	movf	(I2C1_MasterReadTRBBuild@ptrb+1)^0,w,c
  3738  001E90  22DA               	addwfc	fsr2h,f,c
  3739  001E92  C00C  FFDF         	movff	I2C1_MasterReadTRBBuild@length,indf2
  3740  001E96                     
  3741                           ;mcc_generated_files/i2c1.c: 718:     ptrb->pbuffer = pdata;
  3742  001E96  EE20 F003          	lfsr	2,3
  3743  001E9A  5008               	movf	I2C1_MasterReadTRBBuild@ptrb^0,w,c
  3744  001E9C  26D9               	addwf	fsr2l,f,c
  3745  001E9E  5009               	movf	(I2C1_MasterReadTRBBuild@ptrb+1)^0,w,c
  3746  001EA0  22DA               	addwfc	fsr2h,f,c
  3747  001EA2  C00A  FFDE         	movff	I2C1_MasterReadTRBBuild@pdata,postinc2
  3748  001EA6  C00B  FFDD         	movff	I2C1_MasterReadTRBBuild@pdata+1,postdec2
  3749  001EAA  0012               	return		;funcret
  3750  001EAC                     __end_of_I2C1_MasterReadTRBBuild:
  3751                           	opt callstack 0
  3752                           
  3753 ;; *************** function _INTERRUPT_InterruptManager *****************
  3754 ;; Defined at:
  3755 ;;		line 58 in file "mcc_generated_files/interrupt_manager.c"
  3756 ;; Parameters:    Size  Location     Type
  3757 ;;		None
  3758 ;; Auto vars:     Size  Location     Type
  3759 ;;		None
  3760 ;; Return value:  Size  Location     Type
  3761 ;;                  1    wreg      void 
  3762 ;; Registers used:
  3763 ;;		wreg, fsr2l, fsr2h, status,2, status,0, cstack
  3764 ;; Tracked objects:
  3765 ;;		On entry : 0/0
  3766 ;;		On exit  : 0/0
  3767 ;;		Unchanged: 0/0
  3768 ;; Data sizes:     COMRAM   BANK0   BANK1   BANK2   BANK3   BANK4   BANK5   BANK6   BANK7   BANK8   BANK9  BANK10  BANK1
      +1  BANK12  BANK13  BANK14  BANK15
  3769 ;;      Params:         0       0       0       0       0       0       0       0       0       0       0       0       
      +0       0       0       0       0
  3770 ;;      Locals:         0       0       0       0       0       0       0       0       0       0       0       0       
      +0       0       0       0       0
  3771 ;;      Temps:          2       0       0       0       0       0       0       0       0       0       0       0       
      +0       0       0       0       0
  3772 ;;      Totals:         2       0       0       0       0       0       0       0       0       0       0       0       
      +0       0       0       0       0
  3773 ;;Total ram usage:        2 bytes
  3774 ;; Hardware stack levels used:    1
  3775 ;; Hardware stack levels required when called:    2
  3776 ;; This function calls:
  3777 ;;		_I2C1_BusCollisionISR
  3778 ;;		_I2C1_ISR
  3779 ;; This function is called by:
  3780 ;;		Interrupt level 2
  3781 ;; This function uses a non-reentrant model
  3782 ;;
  3783                           
  3784                           	psect	intcode
  3785  000008                     __pintcode:
  3786                           	opt callstack 0
  3787  000008                     _INTERRUPT_InterruptManager:
  3788                           	opt callstack 19
  3789                           
  3790                           ;incstack = 0
  3791  000008  8257               	bsf	int$flags,1,c	;set compiler interrupt flag (level 2)
  3792  00000A  CFD9 F006          	movff	fsr2l,??_INTERRUPT_InterruptManager
  3793  00000E  CFDA F007          	movff	fsr2h,??_INTERRUPT_InterruptManager+1
  3794  000012                     
  3795                           ;mcc_generated_files/interrupt_manager.c: 61:     if(INTCONbits.PEIE == 1)
  3796  000012  ACF2               	btfss	242,6,c	;volatile
  3797  000014  EF0E  F000         	goto	i2u148_41
  3798  000018  EF10  F000         	goto	i2u148_40
  3799  00001C                     i2u148_41:
  3800  00001C  EF34  F000         	goto	i2l61
  3801  000020                     i2u148_40:
  3802  000020                     
  3803                           ;mcc_generated_files/interrupt_manager.c: 62:     {;mcc_generated_files/interrupt_manage
      +                          r.c: 63:         if(PIE2bits.BCL1IE == 1 && PIR2bits.BCL1IF == 1)
  3804  000020  A6A0               	btfss	160,3,c	;volatile
  3805  000022  EF15  F000         	goto	i2u149_41
  3806  000026  EF17  F000         	goto	i2u149_40
  3807  00002A                     i2u149_41:
  3808  00002A  EF22  F000         	goto	i2l56
  3809  00002E                     i2u149_40:
  3810  00002E  A6A1               	btfss	161,3,c	;volatile
  3811  000030  EF1C  F000         	goto	i2u150_41
  3812  000034  EF1E  F000         	goto	i2u150_40
  3813  000038                     i2u150_41:
  3814  000038  EF22  F000         	goto	i2l56
  3815  00003C                     i2u150_40:
  3816  00003C                     
  3817                           ;mcc_generated_files/interrupt_manager.c: 64:         {;mcc_generated_files/interrupt_ma
      +                          nager.c: 65:             I2C1_BusCollisionISR();
  3818  00003C  ECE8  F010         	call	_I2C1_BusCollisionISR	;wreg free
  3819                           
  3820                           ;mcc_generated_files/interrupt_manager.c: 66:         }
  3821  000040  EF34  F000         	goto	i2l61
  3822  000044                     i2l56:
  3823  000044  A69D               	btfss	157,3,c	;volatile
  3824  000046  EF27  F000         	goto	i2u151_41
  3825  00004A  EF29  F000         	goto	i2u151_40
  3826  00004E                     i2u151_41:
  3827  00004E  EF34  F000         	goto	i2l57
  3828  000052                     i2u151_40:
  3829  000052  A69E               	btfss	158,3,c	;volatile
  3830  000054  EF2E  F000         	goto	i2u152_41
  3831  000058  EF30  F000         	goto	i2u152_40
  3832  00005C                     i2u152_41:
  3833  00005C  EF34  F000         	goto	i2l57
  3834  000060                     i2u152_40:
  3835  000060                     
  3836                           ;mcc_generated_files/interrupt_manager.c: 68:         {;mcc_generated_files/interrupt_ma
      +                          nager.c: 69:             I2C1_ISR();
  3837  000060  EC0B  F008         	call	_I2C1_ISR	;wreg free
  3838                           
  3839                           ;mcc_generated_files/interrupt_manager.c: 70:         }
  3840  000064  EF34  F000         	goto	i2l61
  3841  000068                     i2l57:
  3842  000068                     i2l61:
  3843  000068  C007  FFDA         	movff	??_INTERRUPT_InterruptManager+1,fsr2h
  3844  00006C  C006  FFD9         	movff	??_INTERRUPT_InterruptManager,fsr2l
  3845  000070  9257               	bcf	int$flags,1,c	;clear compiler interrupt flag (level 2)
  3846  000072  0011               	retfie		f
  3847  000074                     __end_of_INTERRUPT_InterruptManager:
  3848                           	opt callstack 0
  3849                           
  3850 ;; *************** function _I2C1_ISR *****************
  3851 ;; Defined at:
  3852 ;;		line 235 in file "mcc_generated_files/i2c1.c"
  3853 ;; Parameters:    Size  Location     Type
  3854 ;;		None
  3855 ;; Auto vars:     Size  Location     Type
  3856 ;;		None
  3857 ;; Return value:  Size  Location     Type
  3858 ;;                  1    wreg      void 
  3859 ;; Registers used:
  3860 ;;		wreg, fsr2l, fsr2h, status,2, status,0, cstack
  3861 ;; Tracked objects:
  3862 ;;		On entry : 0/0
  3863 ;;		On exit  : 0/0
  3864 ;;		Unchanged: 0/0
  3865 ;; Data sizes:     COMRAM   BANK0   BANK1   BANK2   BANK3   BANK4   BANK5   BANK6   BANK7   BANK8   BANK9  BANK10  BANK1
      +1  BANK12  BANK13  BANK14  BANK15
  3866 ;;      Params:         0       0       0       0       0       0       0       0       0       0       0       0       
      +0       0       0       0       0
  3867 ;;      Locals:         0       0       0       0       0       0       0       0       0       0       0       0       
      +0       0       0       0       0
  3868 ;;      Temps:          2       0       0       0       0       0       0       0       0       0       0       0       
      +0       0       0       0       0
  3869 ;;      Totals:         2       0       0       0       0       0       0       0       0       0       0       0       
      +0       0       0       0       0
  3870 ;;Total ram usage:        2 bytes
  3871 ;; Hardware stack levels used:    1
  3872 ;; Hardware stack levels required when called:    1
  3873 ;; This function calls:
  3874 ;;		_I2C1_FunctionComplete
  3875 ;;		_I2C1_Stop
  3876 ;; This function is called by:
  3877 ;;		_INTERRUPT_InterruptManager
  3878 ;; This function uses a non-reentrant model
  3879 ;;
  3880                           
  3881                           	psect	text31
  3882  001016                     __ptext31:
  3883                           	opt callstack 0
  3884  001016                     _I2C1_ISR:
  3885                           	opt callstack 19
  3886  001016                     
  3887                           ;mcc_generated_files/i2c1.c: 238:     static uint8_t *pi2c_buf_ptr;;mcc_generated_files/
      +                          i2c1.c: 239:     static uint16_t i2c_address = 0;;mcc_generated_files/i2c1.c: 240:     s
      +                          tatic uint8_t i2c_bytes_left = 0;;mcc_generated_files/i2c1.c: 241:     static uint8_t i2
      +                          c_10bit_address_restart = 0;;mcc_generated_files/i2c1.c: 243:     PIR1bits.SSP1IF = 0;
  3888  001016  969E               	bcf	158,3,c	;volatile
  3889                           
  3890                           ;mcc_generated_files/i2c1.c: 247:     if(SSP1CON1bits.WCOL)
  3891  001018  AEC6               	btfss	198,7,c	;volatile
  3892  00101A  EF11  F008         	goto	i2u133_41
  3893  00101E  EF13  F008         	goto	i2u133_40
  3894  001022                     i2u133_41:
  3895  001022  EF60  F009         	goto	i2l2335
  3896  001026                     i2u133_40:
  3897  001026                     
  3898                           ;mcc_generated_files/i2c1.c: 248:     {;mcc_generated_files/i2c1.c: 250:         SSP1CON
      +                          1bits.WCOL = 0;
  3899  001026  9EC6               	bcf	198,7,c	;volatile
  3900  001028                     
  3901                           ;mcc_generated_files/i2c1.c: 251:         i2c1_state = S_MASTER_IDLE;
  3902  001028  0E00               	movlw	0
  3903  00102A  6E54               	movwf	_i2c1_state^0,c
  3904  00102C                     
  3905                           ;mcc_generated_files/i2c1.c: 252:         *(p_i2c1_current->pTrFlag) = I2C1_MESSAGE_FAIL
      +                          ;
  3906  00102C  0100               	movlb	0	; () banked
  3907  00102E  EE20 F003          	lfsr	2,3
  3908  001032  516F               	movf	_p_i2c1_current& (0+255),w,b
  3909  001034  26D9               	addwf	fsr2l,f,c
  3910  001036  5170               	movf	(_p_i2c1_current+1)& (0+255),w,b
  3911  001038  22DA               	addwfc	fsr2h,f,c
  3912  00103A  CFDE F004          	movff	postinc2,??_I2C1_ISR
  3913  00103E  CFDD F005          	movff	postdec2,??_I2C1_ISR+1
  3914  001042  C004  FFD9         	movff	??_I2C1_ISR,fsr2l
  3915  001046  C005  FFDA         	movff	??_I2C1_ISR+1,fsr2h
  3916  00104A  0E01               	movlw	1
  3917  00104C  6EDF               	movwf	indf2,c
  3918  00104E                     
  3919                           ; BSR set to: 0
  3920                           ;mcc_generated_files/i2c1.c: 255:         p_i2c1_current = ((void*)0);
  3921  00104E  0E00               	movlw	0
  3922  001050  6F6F               	movwf	_p_i2c1_current& (0+255),b
  3923  001052  0E00               	movlw	0
  3924  001054  6F70               	movwf	(_p_i2c1_current+1)& (0+255),b
  3925  001056  EF99  F009         	goto	i2l145
  3926  00105A                     i2l147:
  3927                           
  3928                           ;mcc_generated_files/i2c1.c: 265:             if(i2c1_object.trStatus.s.empty != 1)
  3929  00105A  0100               	movlb	0	; () banked
  3930  00105C  B364               	btfsc	(_i2c1_object+4)& (0+255),1,b
  3931  00105E  EF33  F008         	goto	i2u134_41
  3932  001062  EF35  F008         	goto	i2u134_40
  3933  001066                     i2u134_41:
  3934  001066  EF99  F009         	goto	i2l145
  3935  00106A                     i2u134_40:
  3936  00106A                     
  3937                           ; BSR set to: 0
  3938                           ;mcc_generated_files/i2c1.c: 266:             {;mcc_generated_files/i2c1.c: 268:        
      +                                   p_i2c1_current = i2c1_object.pTrHead;
  3939  00106A  C062  F06F         	movff	_i2c1_object+2,_p_i2c1_current
  3940  00106E  C063  F070         	movff	_i2c1_object+3,_p_i2c1_current+1
  3941  001072                     
  3942                           ; BSR set to: 0
  3943                           ;mcc_generated_files/i2c1.c: 269:                 i2c1_trb_count = i2c1_object.pTrHead->
      +                          count;
  3944  001072  C062  FFD9         	movff	_i2c1_object+2,fsr2l
  3945  001076  C063  FFDA         	movff	_i2c1_object+3,fsr2h
  3946  00107A  50DF               	movf	indf2,w,c
  3947  00107C  6E53               	movwf	_i2c1_trb_count^0,c
  3948  00107E                     
  3949                           ; BSR set to: 0
  3950                           ;mcc_generated_files/i2c1.c: 270:                 p_i2c1_trb_current = i2c1_object.pTrHe
      +                          ad->ptrb_list;
  3951  00107E  EE20 F001          	lfsr	2,1
  3952  001082  5162               	movf	(_i2c1_object+2)& (0+255),w,b
  3953  001084  26D9               	addwf	fsr2l,f,c
  3954  001086  5163               	movf	(_i2c1_object+3)& (0+255),w,b
  3955  001088  22DA               	addwfc	fsr2h,f,c
  3956  00108A  CFDE F071          	movff	postinc2,_p_i2c1_trb_current
  3957  00108E  CFDD F072          	movff	postdec2,_p_i2c1_trb_current+1
  3958  001092                     
  3959                           ; BSR set to: 0
  3960                           ;mcc_generated_files/i2c1.c: 272:                 i2c1_object.pTrHead++;
  3961  001092  0E05               	movlw	5
  3962  001094  2762               	addwf	(_i2c1_object+2)& (0+255),f,b
  3963  001096  0E00               	movlw	0
  3964  001098  2363               	addwfc	(_i2c1_object+3)& (0+255),f,b
  3965  00109A                     
  3966                           ; BSR set to: 0
  3967                           ;mcc_generated_files/i2c1.c: 275:                 if(i2c1_object.pTrHead == (i2c1_tr_que
      +                          ue + 1))
  3968  00109A  0EA4               	movlw	low (_i2c1_tr_queue+5)
  3969  00109C  1962               	xorwf	(_i2c1_object+2)& (0+255),w,b
  3970  00109E  E107               	bnz	i2u135_41
  3971  0010A0  0E00               	movlw	high (_i2c1_tr_queue+5)
  3972  0010A2  1963               	xorwf	(_i2c1_object+3)& (0+255),w,b
  3973  0010A4  A4D8               	btfss	status,2,c
  3974  0010A6  EF57  F008         	goto	i2u135_41
  3975  0010AA  EF59  F008         	goto	i2u135_40
  3976  0010AE                     i2u135_41:
  3977  0010AE  EF5D  F008         	goto	i2l2227
  3978  0010B2                     i2u135_40:
  3979  0010B2                     
  3980                           ; BSR set to: 0
  3981                           ;mcc_generated_files/i2c1.c: 276:                 {;mcc_generated_files/i2c1.c: 278:    
      +                                           i2c1_object.pTrHead = i2c1_tr_queue;
  3982  0010B2  0E9F               	movlw	low _i2c1_tr_queue
  3983  0010B4  6F62               	movwf	(_i2c1_object+2)& (0+255),b
  3984  0010B6  0E00               	movlw	high _i2c1_tr_queue
  3985  0010B8  6F63               	movwf	(_i2c1_object+3)& (0+255),b
  3986  0010BA                     i2l2227:
  3987                           
  3988                           ; BSR set to: 0
  3989                           ;mcc_generated_files/i2c1.c: 283:                 i2c1_object.trStatus.s.full = 0;
  3990  0010BA  9164               	bcf	(_i2c1_object+4)& (0+255),0,b
  3991                           
  3992                           ;mcc_generated_files/i2c1.c: 286:                 if(i2c1_object.pTrHead == i2c1_object.
      +                          pTrTail)
  3993  0010BC  5160               	movf	_i2c1_object& (0+255),w,b
  3994  0010BE  1962               	xorwf	(_i2c1_object+2)& (0+255),w,b
  3995  0010C0  E107               	bnz	i2u136_41
  3996  0010C2  5161               	movf	(_i2c1_object+1)& (0+255),w,b
  3997  0010C4  1963               	xorwf	(_i2c1_object+3)& (0+255),w,b
  3998  0010C6  A4D8               	btfss	status,2,c
  3999  0010C8  EF68  F008         	goto	i2u136_41
  4000  0010CC  EF6A  F008         	goto	i2u136_40
  4001  0010D0                     i2u136_41:
  4002  0010D0  EF6B  F008         	goto	i2l150
  4003  0010D4                     i2u136_40:
  4004  0010D4                     
  4005                           ; BSR set to: 0
  4006                           ;mcc_generated_files/i2c1.c: 287:                 {;mcc_generated_files/i2c1.c: 289:    
      +                                           i2c1_object.trStatus.s.empty = 1;
  4007  0010D4  8364               	bsf	(_i2c1_object+4)& (0+255),1,b
  4008  0010D6                     i2l150:
  4009                           
  4010                           ; BSR set to: 0
  4011                           ;mcc_generated_files/i2c1.c: 293:                 SSP1CON2bits.SEN = 1;
  4012  0010D6  80C5               	bsf	197,0,c	;volatile
  4013  0010D8                     i2l2231:
  4014                           
  4015                           ;mcc_generated_files/i2c1.c: 296:                 i2c1_state = S_MASTER_SEND_ADDR;
  4016  0010D8  0E02               	movlw	2
  4017  0010DA  6E54               	movwf	_i2c1_state^0,c
  4018  0010DC  EF99  F009         	goto	i2l145
  4019  0010E0                     i2l152:
  4020                           
  4021                           ;mcc_generated_files/i2c1.c: 306:             SSP1CON2bits.RSEN = 1;
  4022  0010E0  82C5               	bsf	197,1,c	;volatile
  4023  0010E2  EF6C  F008         	goto	i2l2231
  4024  0010E6                     i2l153:
  4025                           
  4026                           ;mcc_generated_files/i2c1.c: 315:             if(SSP1CON2bits.ACKSTAT)
  4027  0010E6  ACC5               	btfss	197,6,c	;volatile
  4028  0010E8  EF78  F008         	goto	i2u137_41
  4029  0010EC  EF7A  F008         	goto	i2u137_40
  4030  0010F0                     i2u137_41:
  4031  0010F0  EF81  F008         	goto	i2l2239
  4032  0010F4                     i2u137_40:
  4033  0010F4                     
  4034                           ;mcc_generated_files/i2c1.c: 316:             {;mcc_generated_files/i2c1.c: 317:        
      +                                   i2c1_object.i2cErrors++;
  4035  0010F4  0100               	movlb	0	; () banked
  4036  0010F6  2B66               	incf	(_i2c1_object+6)& (0+255),f,b
  4037  0010F8                     
  4038                           ; BSR set to: 0
  4039                           ;mcc_generated_files/i2c1.c: 318:                 I2C1_Stop(I2C1_MESSAGE_ADDRESS_NO_ACK)
      +                          ;
  4040  0010F8  0E04               	movlw	4
  4041  0010FA  EC7B  F00F         	call	_I2C1_Stop
  4042                           
  4043                           ;mcc_generated_files/i2c1.c: 319:             }
  4044  0010FE  EF99  F009         	goto	i2l145
  4045  001102                     i2l2239:
  4046                           
  4047                           ;mcc_generated_files/i2c1.c: 321:             {;mcc_generated_files/i2c1.c: 323:        
      +                                   SSP1BUF = (i2c_address >> 1) & 0x00FF;
  4048  001102  90D8               	bcf	status,0,c
  4049  001104  3056               	rrcf	(I2C1_ISR@i2c_address+1)^0,w,c
  4050  001106  6E05               	movwf	(??_I2C1_ISR+1)^0,c
  4051  001108  3055               	rrcf	I2C1_ISR@i2c_address^0,w,c
  4052  00110A  6E04               	movwf	??_I2C1_ISR^0,c
  4053  00110C  5004               	movf	??_I2C1_ISR^0,w,c
  4054  00110E  6EC9               	movwf	201,c	;volatile
  4055  001110                     
  4056                           ;mcc_generated_files/i2c1.c: 326:                 if(i2c_address & 0x01)
  4057  001110  A055               	btfss	I2C1_ISR@i2c_address^0,0,c
  4058  001112  EF8D  F008         	goto	i2u138_41
  4059  001116  EF8F  F008         	goto	i2u138_40
  4060  00111A                     i2u138_41:
  4061  00111A  EF93  F008         	goto	i2l2245
  4062  00111E                     i2u138_40:
  4063  00111E                     
  4064                           ;mcc_generated_files/i2c1.c: 327:                 {;mcc_generated_files/i2c1.c: 330:    
      +                                           i2c1_state = S_MASTER_10BIT_RESTART;
  4065  00111E  0E0B               	movlw	11
  4066  001120  6E54               	movwf	_i2c1_state^0,c
  4067                           
  4068                           ;mcc_generated_files/i2c1.c: 331:                 }
  4069  001122  EF99  F009         	goto	i2l145
  4070  001126                     i2l2245:
  4071                           
  4072                           ;mcc_generated_files/i2c1.c: 333:                 {;mcc_generated_files/i2c1.c: 335:    
      +                                           i2c1_state = S_MASTER_SEND_DATA;
  4073  001126  0E03               	movlw	3
  4074  001128  6E54               	movwf	_i2c1_state^0,c
  4075  00112A  EF99  F009         	goto	i2l145
  4076  00112E                     i2l158:
  4077                           
  4078                           ;mcc_generated_files/i2c1.c: 343:             if(SSP1CON2bits.ACKSTAT)
  4079  00112E  ACC5               	btfss	197,6,c	;volatile
  4080  001130  EF9C  F008         	goto	i2u139_41
  4081  001134  EF9E  F008         	goto	i2u139_40
  4082  001138                     i2u139_41:
  4083  001138  EFA5  F008         	goto	i2l159
  4084  00113C                     i2u139_40:
  4085  00113C                     
  4086                           ;mcc_generated_files/i2c1.c: 344:             {;mcc_generated_files/i2c1.c: 345:        
      +                                   i2c1_object.i2cErrors++;
  4087  00113C  0100               	movlb	0	; () banked
  4088  00113E  2B66               	incf	(_i2c1_object+6)& (0+255),f,b
  4089  001140                     
  4090                           ; BSR set to: 0
  4091                           ;mcc_generated_files/i2c1.c: 346:                 I2C1_Stop(I2C1_MESSAGE_ADDRESS_NO_ACK)
      +                          ;
  4092  001140  0E04               	movlw	4
  4093  001142  EC7B  F00F         	call	_I2C1_Stop
  4094                           
  4095                           ;mcc_generated_files/i2c1.c: 347:             }
  4096  001146  EF99  F009         	goto	i2l145
  4097  00114A                     i2l159:
  4098                           
  4099                           ;mcc_generated_files/i2c1.c: 349:             {;mcc_generated_files/i2c1.c: 352:        
      +                                   SSP1CON2bits.RSEN = 1;
  4100  00114A  82C5               	bsf	197,1,c	;volatile
  4101  00114C                     
  4102                           ;mcc_generated_files/i2c1.c: 356:                 i2c_address = 0x00F0 | ((i2c_address >
      +                          > 8) & 0x0006);
  4103  00114C  C055  F004         	movff	I2C1_ISR@i2c_address,??_I2C1_ISR
  4104  001150  C056  F005         	movff	I2C1_ISR@i2c_address+1,??_I2C1_ISR+1
  4105  001154  C005  F004         	movff	??_I2C1_ISR+1,??_I2C1_ISR
  4106  001158  6A05               	clrf	(??_I2C1_ISR+1)^0,c
  4107  00115A  0E06               	movlw	6
  4108  00115C  1604               	andwf	??_I2C1_ISR^0,f,c
  4109  00115E  0E00               	movlw	0
  4110  001160  1605               	andwf	(??_I2C1_ISR+1)^0,f,c
  4111  001162  0EF0               	movlw	240
  4112  001164  1004               	iorwf	??_I2C1_ISR^0,w,c
  4113  001166  6E55               	movwf	I2C1_ISR@i2c_address^0,c
  4114  001168  5005               	movf	(??_I2C1_ISR+1)^0,w,c
  4115  00116A  6E56               	movwf	(I2C1_ISR@i2c_address+1)^0,c
  4116  00116C                     
  4117                           ;mcc_generated_files/i2c1.c: 359:                 i2c_address |= 0x0001;
  4118  00116C  8055               	bsf	I2C1_ISR@i2c_address^0,0,c
  4119  00116E                     
  4120                           ;mcc_generated_files/i2c1.c: 362:                 i2c_10bit_address_restart = 1;
  4121  00116E  0E01               	movlw	1
  4122  001170  6E51               	movwf	I2C1_ISR@i2c_10bit_address_restart^0,c
  4123  001172  EF6C  F008         	goto	i2l2231
  4124  001176                     i2l2259:
  4125                           
  4126                           ;mcc_generated_files/i2c1.c: 383:             if(i2c_10bit_address_restart != 1)
  4127  001176  0451               	decf	I2C1_ISR@i2c_10bit_address_restart^0,w,c
  4128  001178  B4D8               	btfsc	status,2,c
  4129  00117A  EFC1  F008         	goto	i2u140_41
  4130  00117E  EFC3  F008         	goto	i2u140_40
  4131  001182                     i2u140_41:
  4132  001182  EFDE  F008         	goto	i2l163
  4133  001186                     i2u140_40:
  4134  001186                     
  4135                           ;mcc_generated_files/i2c1.c: 384:             {;mcc_generated_files/i2c1.c: 386:        
      +                                   i2c_address = p_i2c1_trb_current->address;
  4136  001186  C071  FFD9         	movff	_p_i2c1_trb_current,fsr2l
  4137  00118A  C072  FFDA         	movff	_p_i2c1_trb_current+1,fsr2h
  4138  00118E  CFDE F055          	movff	postinc2,I2C1_ISR@i2c_address
  4139  001192  CFDD F056          	movff	postdec2,I2C1_ISR@i2c_address+1
  4140  001196                     
  4141                           ;mcc_generated_files/i2c1.c: 387:                 pi2c_buf_ptr = p_i2c1_trb_current->pbu
      +                          ffer;
  4142  001196  0100               	movlb	0	; () banked
  4143  001198  EE20 F003          	lfsr	2,3
  4144  00119C  5171               	movf	_p_i2c1_trb_current& (0+255),w,b
  4145  00119E  26D9               	addwf	fsr2l,f,c
  4146  0011A0  5172               	movf	(_p_i2c1_trb_current+1)& (0+255),w,b
  4147  0011A2  22DA               	addwfc	fsr2h,f,c
  4148  0011A4  CFDE F06D          	movff	postinc2,I2C1_ISR@pi2c_buf_ptr
  4149  0011A8  CFDD F06E          	movff	postdec2,I2C1_ISR@pi2c_buf_ptr+1
  4150  0011AC                     
  4151                           ; BSR set to: 0
  4152                           ;mcc_generated_files/i2c1.c: 388:                 i2c_bytes_left = p_i2c1_trb_current->l
      +                          ength;
  4153  0011AC  EE20 F002          	lfsr	2,2
  4154  0011B0  5171               	movf	_p_i2c1_trb_current& (0+255),w,b
  4155  0011B2  26D9               	addwf	fsr2l,f,c
  4156  0011B4  5172               	movf	(_p_i2c1_trb_current+1)& (0+255),w,b
  4157  0011B6  22DA               	addwfc	fsr2h,f,c
  4158  0011B8  50DF               	movf	indf2,w,c
  4159  0011BA  6E52               	movwf	I2C1_ISR@i2c_bytes_left^0,c
  4160  0011BC                     i2l163:
  4161                           
  4162                           ;mcc_generated_files/i2c1.c: 412:             {;mcc_generated_files/i2c1.c: 414:        
      +                                   SSP1BUF = i2c_address;
  4163  0011BC  C055  FFC9         	movff	I2C1_ISR@i2c_address,4041	;volatile
  4164                           
  4165                           ;mcc_generated_files/i2c1.c: 415:                 if(i2c_address & 0x01)
  4166  0011C0  A055               	btfss	I2C1_ISR@i2c_address^0,0,c
  4167  0011C2  EFE5  F008         	goto	i2u141_41
  4168  0011C6  EFE7  F008         	goto	i2u141_40
  4169  0011CA                     i2u141_41:
  4170  0011CA  EF93  F008         	goto	i2l2245
  4171  0011CE                     i2u141_40:
  4172  0011CE                     
  4173                           ;mcc_generated_files/i2c1.c: 416:                 {;mcc_generated_files/i2c1.c: 418:    
      +                                           i2c1_state = S_MASTER_ACK_ADDR;
  4174  0011CE  0E05               	movlw	5
  4175  0011D0  6E54               	movwf	_i2c1_state^0,c
  4176                           
  4177                           ;mcc_generated_files/i2c1.c: 419:                 }
  4178  0011D2  EF99  F009         	goto	i2l145
  4179  0011D6                     i2l169:
  4180                           
  4181                           ;mcc_generated_files/i2c1.c: 431:             if(SSP1CON2bits.ACKSTAT)
  4182  0011D6  ACC5               	btfss	197,6,c	;volatile
  4183  0011D8  EFF0  F008         	goto	i2u142_41
  4184  0011DC  EFF2  F008         	goto	i2u142_40
  4185  0011E0                     i2u142_41:
  4186  0011E0  EFFA  F008         	goto	i2l2287
  4187  0011E4                     i2u142_40:
  4188  0011E4                     
  4189                           ;mcc_generated_files/i2c1.c: 432:             {;mcc_generated_files/i2c1.c: 434:        
      +                                   i2c1_object.i2cErrors++;
  4190  0011E4  0100               	movlb	0	; () banked
  4191  0011E6  2B66               	incf	(_i2c1_object+6)& (0+255),f,b
  4192  0011E8                     
  4193                           ; BSR set to: 0
  4194                           ;mcc_generated_files/i2c1.c: 437:                 SSP1CON2bits.ACKSTAT = 0;
  4195  0011E8  9CC5               	bcf	197,6,c	;volatile
  4196  0011EA                     
  4197                           ; BSR set to: 0
  4198                           ;mcc_generated_files/i2c1.c: 440:                 I2C1_Stop(I2C1_DATA_NO_ACK);
  4199  0011EA  0E05               	movlw	5
  4200  0011EC  EC7B  F00F         	call	_I2C1_Stop
  4201                           
  4202                           ;mcc_generated_files/i2c1.c: 442:             }
  4203  0011F0  EF99  F009         	goto	i2l145
  4204  0011F4                     i2l2287:
  4205                           
  4206                           ;mcc_generated_files/i2c1.c: 444:             {;mcc_generated_files/i2c1.c: 446:        
      +                                   if(i2c_bytes_left-- == 0U)
  4207  0011F4  0652               	decf	I2C1_ISR@i2c_bytes_left^0,f,c
  4208  0011F6  2852               	incf	I2C1_ISR@i2c_bytes_left^0,w,c
  4209  0011F8  A4D8               	btfss	status,2,c
  4210  0011FA  EF01  F009         	goto	i2u143_41
  4211  0011FE  EF03  F009         	goto	i2u143_40
  4212  001202                     i2u143_41:
  4213  001202  EF13  F009         	goto	i2l2297
  4214  001206                     i2u143_40:
  4215  001206                     
  4216                           ;mcc_generated_files/i2c1.c: 447:                 {;mcc_generated_files/i2c1.c: 451:    
      +                                           p_i2c1_trb_current++;
  4217  001206  0E05               	movlw	5
  4218  001208  0100               	movlb	0	; () banked
  4219  00120A  2771               	addwf	_p_i2c1_trb_current& (0+255),f,b
  4220  00120C  0E00               	movlw	0
  4221  00120E  2372               	addwfc	(_p_i2c1_trb_current+1)& (0+255),f,b
  4222  001210                     
  4223                           ; BSR set to: 0
  4224                           ;mcc_generated_files/i2c1.c: 454:                     if(--i2c1_trb_count == 0)
  4225  001210  2E53               	decfsz	_i2c1_trb_count^0,f,c
  4226  001212  EF10  F009         	goto	i2l173
  4227  001216                     
  4228                           ; BSR set to: 0
  4229                           ;mcc_generated_files/i2c1.c: 455:                     {;mcc_generated_files/i2c1.c: 456:
      +                                                   I2C1_Stop(I2C1_MESSAGE_COMPLETE);
  4230  001216  0E00               	movlw	0
  4231  001218  EC7B  F00F         	call	_I2C1_Stop
  4232                           
  4233                           ;mcc_generated_files/i2c1.c: 457:                     }
  4234  00121C  EF99  F009         	goto	i2l145
  4235  001220                     i2l173:
  4236                           
  4237                           ; BSR set to: 0
  4238                           ;mcc_generated_files/i2c1.c: 459:                     {;mcc_generated_files/i2c1.c: 466:
      +                                                   SSP1CON2bits.RSEN = 1;
  4239  001220  82C5               	bsf	197,1,c	;volatile
  4240  001222  EF6C  F008         	goto	i2l2231
  4241  001226                     i2l2297:
  4242                           
  4243                           ;mcc_generated_files/i2c1.c: 474:                 {;mcc_generated_files/i2c1.c: 476:    
      +                                           SSP1BUF = *pi2c_buf_ptr++;
  4244  001226  C06D  FFD9         	movff	I2C1_ISR@pi2c_buf_ptr,fsr2l
  4245  00122A  C06E  FFDA         	movff	I2C1_ISR@pi2c_buf_ptr+1,fsr2h
  4246  00122E  50DF               	movf	indf2,w,c
  4247  001230  6EC9               	movwf	201,c	;volatile
  4248  001232  0100               	movlb	0	; () banked
  4249  001234  4B6D               	infsnz	I2C1_ISR@pi2c_buf_ptr& (0+255),f,b
  4250  001236  2B6E               	incf	(I2C1_ISR@pi2c_buf_ptr+1)& (0+255),f,b
  4251  001238  EF99  F009         	goto	i2l145
  4252  00123C                     i2l176:
  4253                           
  4254                           ;mcc_generated_files/i2c1.c: 484:             if(SSP1CON2bits.ACKSTAT)
  4255  00123C  ACC5               	btfss	197,6,c	;volatile
  4256  00123E  EF23  F009         	goto	i2u144_41
  4257  001242  EF25  F009         	goto	i2u144_40
  4258  001246                     i2u144_41:
  4259  001246  EF2D  F009         	goto	i2l177
  4260  00124A                     i2u144_40:
  4261  00124A                     
  4262                           ;mcc_generated_files/i2c1.c: 485:             {;mcc_generated_files/i2c1.c: 488:        
      +                                   i2c1_object.i2cErrors++;
  4263  00124A  0100               	movlb	0	; () banked
  4264  00124C  2B66               	incf	(_i2c1_object+6)& (0+255),f,b
  4265  00124E                     
  4266                           ; BSR set to: 0
  4267                           ;mcc_generated_files/i2c1.c: 491:                 I2C1_Stop(I2C1_MESSAGE_ADDRESS_NO_ACK)
      +                          ;
  4268  00124E  0E04               	movlw	4
  4269  001250  EC7B  F00F         	call	_I2C1_Stop
  4270  001254                     
  4271                           ;mcc_generated_files/i2c1.c: 494:                 SSP1CON2bits.ACKSTAT = 0;
  4272  001254  9CC5               	bcf	197,6,c	;volatile
  4273                           
  4274                           ;mcc_generated_files/i2c1.c: 495:             }
  4275  001256  EF99  F009         	goto	i2l145
  4276  00125A                     i2l177:
  4277                           
  4278                           ;mcc_generated_files/i2c1.c: 497:             {;mcc_generated_files/i2c1.c: 498:        
      +                                   SSP1CON2bits.RCEN = 1;
  4279  00125A  86C5               	bsf	197,3,c	;volatile
  4280  00125C                     
  4281                           ;mcc_generated_files/i2c1.c: 499:                 i2c1_state = S_MASTER_ACK_RCV_DATA;
  4282  00125C  0E08               	movlw	8
  4283  00125E  6E54               	movwf	_i2c1_state^0,c
  4284  001260  EF99  F009         	goto	i2l145
  4285  001264                     i2l2309:
  4286                           
  4287                           ;mcc_generated_files/i2c1.c: 508:             i2c1_state = S_MASTER_ACK_RCV_DATA;
  4288  001264  0E08               	movlw	8
  4289  001266  6E54               	movwf	_i2c1_state^0,c
  4290  001268                     
  4291                           ;mcc_generated_files/i2c1.c: 511:             SSP1CON2bits.RCEN = 1;
  4292  001268  86C5               	bsf	197,3,c	;volatile
  4293                           
  4294                           ;mcc_generated_files/i2c1.c: 513:             break;
  4295  00126A  EF99  F009         	goto	i2l145
  4296  00126E                     i2l2313:
  4297                           
  4298                           ;mcc_generated_files/i2c1.c: 518:             *pi2c_buf_ptr++ = SSP1BUF;
  4299  00126E  C06D  FFD9         	movff	I2C1_ISR@pi2c_buf_ptr,fsr2l
  4300  001272  C06E  FFDA         	movff	I2C1_ISR@pi2c_buf_ptr+1,fsr2h
  4301  001276  CFC9 FFDF          	movff	4041,indf2	;volatile
  4302  00127A  0100               	movlb	0	; () banked
  4303  00127C  4B6D               	infsnz	I2C1_ISR@pi2c_buf_ptr& (0+255),f,b
  4304  00127E  2B6E               	incf	(I2C1_ISR@pi2c_buf_ptr+1)& (0+255),f,b
  4305  001280                     
  4306                           ; BSR set to: 0
  4307                           ;mcc_generated_files/i2c1.c: 521:             if(--i2c_bytes_left)
  4308  001280  0E01               	movlw	1
  4309  001282  5E52               	subwf	I2C1_ISR@i2c_bytes_left^0,f,c
  4310  001284  B4D8               	btfsc	status,2,c
  4311  001286  EF47  F009         	goto	i2u145_41
  4312  00128A  EF49  F009         	goto	i2u145_40
  4313  00128E                     i2u145_41:
  4314  00128E  EF4E  F009         	goto	i2l181
  4315  001292                     i2u145_40:
  4316  001292                     
  4317                           ; BSR set to: 0
  4318                           ;mcc_generated_files/i2c1.c: 522:             {;mcc_generated_files/i2c1.c: 528:        
      +                                   SSP1CON2bits.ACKDT = 0;
  4319  001292  9AC5               	bcf	197,5,c	;volatile
  4320  001294                     
  4321                           ; BSR set to: 0
  4322                           ;mcc_generated_files/i2c1.c: 531:                 i2c1_state = S_MASTER_RCV_DATA;
  4323  001294  0E06               	movlw	6
  4324  001296  6E54               	movwf	_i2c1_state^0,c
  4325                           
  4326                           ;mcc_generated_files/i2c1.c: 532:             }
  4327  001298  EF51  F009         	goto	i2l2325
  4328  00129C                     i2l181:
  4329                           
  4330                           ; BSR set to: 0
  4331                           ;mcc_generated_files/i2c1.c: 534:             {;mcc_generated_files/i2c1.c: 538:        
      +                                   SSP1CON2bits.ACKDT = 1;
  4332  00129C  8AC5               	bsf	197,5,c	;volatile
  4333  00129E                     
  4334                           ; BSR set to: 0
  4335                           ;mcc_generated_files/i2c1.c: 540:                 I2C1_FunctionComplete();
  4336  00129E  EC9D  F010         	call	_I2C1_FunctionComplete	;wreg free
  4337  0012A2                     i2l2325:
  4338                           
  4339                           ;mcc_generated_files/i2c1.c: 544:             SSP1CON2bits.ACKEN = 1;
  4340  0012A2  88C5               	bsf	197,4,c	;volatile
  4341                           
  4342                           ;mcc_generated_files/i2c1.c: 545:             break;
  4343  0012A4  EF99  F009         	goto	i2l145
  4344  0012A8                     i2l2327:
  4345                           
  4346                           ;mcc_generated_files/i2c1.c: 551:             I2C1_Stop(I2C1_MESSAGE_COMPLETE);
  4347  0012A8  0E00               	movlw	0
  4348  0012AA  EC7B  F00F         	call	_I2C1_Stop
  4349                           
  4350                           ;mcc_generated_files/i2c1.c: 552:             break;
  4351  0012AE  EF99  F009         	goto	i2l145
  4352  0012B2                     i2l2329:
  4353                           
  4354                           ;mcc_generated_files/i2c1.c: 558:             i2c1_object.i2cErrors++;
  4355  0012B2  0100               	movlb	0	; () banked
  4356  0012B4  2B66               	incf	(_i2c1_object+6)& (0+255),f,b
  4357  0012B6                     
  4358                           ; BSR set to: 0
  4359                           ;mcc_generated_files/i2c1.c: 559:             I2C1_Stop(I2C1_LOST_STATE);
  4360  0012B6  0E06               	movlw	6
  4361  0012B8  EC7B  F00F         	call	_I2C1_Stop
  4362                           
  4363                           ;mcc_generated_files/i2c1.c: 560:             break;
  4364  0012BC  EF99  F009         	goto	i2l145
  4365  0012C0                     i2l2335:
  4366  0012C0  5054               	movf	_i2c1_state^0,w,c
  4367  0012C2  6E04               	movwf	??_I2C1_ISR^0,c
  4368  0012C4  6A05               	clrf	(??_I2C1_ISR+1)^0,c
  4369                           
  4370                           ; Switch on 2 bytes has been partitioned into a top level switch of size 1, and 1 sub-sw
      +                          itches
  4371                           ; Switch size 1, requested type "simple"
  4372                           ; Number of cases is 1, Range of values is 0 to 0
  4373                           ; switch strategies available:
  4374                           ; Name         Instructions Cycles
  4375                           ; simple_byte            4     3 (average)
  4376                           ;	Chosen strategy is simple_byte
  4377  0012C6  5005               	movf	(??_I2C1_ISR+1)^0,w,c
  4378  0012C8  0A00               	xorlw	0	; case 0
  4379  0012CA  B4D8               	btfsc	status,2,c
  4380  0012CC  EF6A  F009         	goto	i2l2491
  4381  0012D0  EF59  F009         	goto	i2l2329
  4382  0012D4                     i2l2491:
  4383                           
  4384                           ; Switch size 1, requested type "simple"
  4385                           ; Number of cases is 11, Range of values is 0 to 11
  4386                           ; switch strategies available:
  4387                           ; Name         Instructions Cycles
  4388                           ; simple_byte           34    18 (average)
  4389                           ;	Chosen strategy is simple_byte
  4390  0012D4  5004               	movf	??_I2C1_ISR^0,w,c
  4391  0012D6  0A00               	xorlw	0	; case 0
  4392  0012D8  B4D8               	btfsc	status,2,c
  4393  0012DA  EF2D  F008         	goto	i2l147
  4394  0012DE  0A01               	xorlw	1	; case 1
  4395  0012E0  B4D8               	btfsc	status,2,c
  4396  0012E2  EF70  F008         	goto	i2l152
  4397  0012E6  0A03               	xorlw	3	; case 2
  4398  0012E8  B4D8               	btfsc	status,2,c
  4399  0012EA  EFBB  F008         	goto	i2l2259
  4400  0012EE  0A01               	xorlw	1	; case 3
  4401  0012F0  B4D8               	btfsc	status,2,c
  4402  0012F2  EFEB  F008         	goto	i2l169
  4403  0012F6  0A07               	xorlw	7	; case 4
  4404  0012F8  B4D8               	btfsc	status,2,c
  4405  0012FA  EF54  F009         	goto	i2l2327
  4406  0012FE  0A01               	xorlw	1	; case 5
  4407  001300  B4D8               	btfsc	status,2,c
  4408  001302  EF1E  F009         	goto	i2l176
  4409  001306  0A03               	xorlw	3	; case 6
  4410  001308  B4D8               	btfsc	status,2,c
  4411  00130A  EF32  F009         	goto	i2l2309
  4412  00130E  0A01               	xorlw	1	; case 7
  4413  001310  B4D8               	btfsc	status,2,c
  4414  001312  EF54  F009         	goto	i2l2327
  4415  001316  0A0F               	xorlw	15	; case 8
  4416  001318  B4D8               	btfsc	status,2,c
  4417  00131A  EF37  F009         	goto	i2l2313
  4418  00131E  0A02               	xorlw	2	; case 10
  4419  001320  B4D8               	btfsc	status,2,c
  4420  001322  EF73  F008         	goto	i2l153
  4421  001326  0A01               	xorlw	1	; case 11
  4422  001328  B4D8               	btfsc	status,2,c
  4423  00132A  EF97  F008         	goto	i2l158
  4424  00132E  EF59  F009         	goto	i2l2329
  4425  001332                     i2l145:
  4426  001332  0012               	return		;funcret
  4427  001334                     __end_of_I2C1_ISR:
  4428                           	opt callstack 0
  4429                           
  4430 ;; *************** function _I2C1_Stop *****************
  4431 ;; Defined at:
  4432 ;;		line 583 in file "mcc_generated_files/i2c1.c"
  4433 ;; Parameters:    Size  Location     Type
  4434 ;;  completion_c    1    wreg     enum E5995
  4435 ;; Auto vars:     Size  Location     Type
  4436 ;;  completion_c    1    2[COMRAM] enum E5995
  4437 ;; Return value:  Size  Location     Type
  4438 ;;                  1    wreg      void 
  4439 ;; Registers used:
  4440 ;;		wreg, fsr2l, fsr2h, status,2, status,0
  4441 ;; Tracked objects:
  4442 ;;		On entry : 0/0
  4443 ;;		On exit  : 0/0
  4444 ;;		Unchanged: 0/0
  4445 ;; Data sizes:     COMRAM   BANK0   BANK1   BANK2   BANK3   BANK4   BANK5   BANK6   BANK7   BANK8   BANK9  BANK10  BANK1
      +1  BANK12  BANK13  BANK14  BANK15
  4446 ;;      Params:         0       0       0       0       0       0       0       0       0       0       0       0       
      +0       0       0       0       0
  4447 ;;      Locals:         1       0       0       0       0       0       0       0       0       0       0       0       
      +0       0       0       0       0
  4448 ;;      Temps:          2       0       0       0       0       0       0       0       0       0       0       0       
      +0       0       0       0       0
  4449 ;;      Totals:         3       0       0       0       0       0       0       0       0       0       0       0       
      +0       0       0       0       0
  4450 ;;Total ram usage:        3 bytes
  4451 ;; Hardware stack levels used:    1
  4452 ;; This function calls:
  4453 ;;		Nothing
  4454 ;; This function is called by:
  4455 ;;		_I2C1_ISR
  4456 ;; This function uses a non-reentrant model
  4457 ;;
  4458                           
  4459                           	psect	text32
  4460  001EF6                     __ptext32:
  4461                           	opt callstack 0
  4462  001EF6                     _I2C1_Stop:
  4463                           	opt callstack 19
  4464                           
  4465                           ;incstack = 0
  4466                           ;I2C1_Stop@completion_code stored from wreg
  4467  001EF6  6E03               	movwf	I2C1_Stop@completion_code^0,c
  4468  001EF8                     
  4469                           ;mcc_generated_files/i2c1.c: 583: void I2C1_Stop(I2C1_MESSAGE_STATUS completion_code);mc
      +                          c_generated_files/i2c1.c: 584: {;mcc_generated_files/i2c1.c: 586:     SSP1CON2bits.PEN =
      +                           1;
  4470  001EF8  84C5               	bsf	197,2,c	;volatile
  4471  001EFA                     
  4472                           ;mcc_generated_files/i2c1.c: 589:     if (p_i2c1_current->pTrFlag != ((void*)0))
  4473  001EFA  0100               	movlb	0	; () banked
  4474  001EFC  EE20 F003          	lfsr	2,3
  4475  001F00  516F               	movf	_p_i2c1_current& (0+255),w,b
  4476  001F02  26D9               	addwf	fsr2l,f,c
  4477  001F04  5170               	movf	(_p_i2c1_current+1)& (0+255),w,b
  4478  001F06  22DA               	addwfc	fsr2h,f,c
  4479  001F08  50DE               	movf	postinc2,w,c
  4480  001F0A  10DE               	iorwf	postinc2,w,c
  4481  001F0C  B4D8               	btfsc	status,2,c
  4482  001F0E  EF8B  F00F         	goto	i2u129_41
  4483  001F12  EF8D  F00F         	goto	i2u129_40
  4484  001F16                     i2u129_41:
  4485  001F16  EF9D  F00F         	goto	i2l2155
  4486  001F1A                     i2u129_40:
  4487  001F1A                     
  4488                           ; BSR set to: 0
  4489                           ;mcc_generated_files/i2c1.c: 590:     {;mcc_generated_files/i2c1.c: 592:         *(p_i2c
      +                          1_current->pTrFlag) = completion_code;
  4490  001F1A  EE20 F003          	lfsr	2,3
  4491  001F1E  516F               	movf	_p_i2c1_current& (0+255),w,b
  4492  001F20  26D9               	addwf	fsr2l,f,c
  4493  001F22  5170               	movf	(_p_i2c1_current+1)& (0+255),w,b
  4494  001F24  22DA               	addwfc	fsr2h,f,c
  4495  001F26  CFDE F001          	movff	postinc2,??_I2C1_Stop
  4496  001F2A  CFDD F002          	movff	postdec2,??_I2C1_Stop+1
  4497  001F2E  C001  FFD9         	movff	??_I2C1_Stop,fsr2l
  4498  001F32  C002  FFDA         	movff	??_I2C1_Stop+1,fsr2h
  4499  001F36  C003  FFDF         	movff	I2C1_Stop@completion_code,indf2
  4500  001F3A                     i2l2155:
  4501                           
  4502                           ; BSR set to: 0
  4503                           ;mcc_generated_files/i2c1.c: 596:     i2c1_state = S_MASTER_IDLE;
  4504  001F3A  0E00               	movlw	0
  4505  001F3C  6E54               	movwf	_i2c1_state^0,c
  4506  001F3E                     
  4507                           ; BSR set to: 0
  4508  001F3E  0012               	return		;funcret
  4509  001F40                     __end_of_I2C1_Stop:
  4510                           	opt callstack 0
  4511                           
  4512 ;; *************** function _I2C1_FunctionComplete *****************
  4513 ;; Defined at:
  4514 ;;		line 565 in file "mcc_generated_files/i2c1.c"
  4515 ;; Parameters:    Size  Location     Type
  4516 ;;		None
  4517 ;; Auto vars:     Size  Location     Type
  4518 ;;		None
  4519 ;; Return value:  Size  Location     Type
  4520 ;;                  1    wreg      void 
  4521 ;; Registers used:
  4522 ;;		wreg, status,2, status,0
  4523 ;; Tracked objects:
  4524 ;;		On entry : 0/0
  4525 ;;		On exit  : 0/0
  4526 ;;		Unchanged: 0/0
  4527 ;; Data sizes:     COMRAM   BANK0   BANK1   BANK2   BANK3   BANK4   BANK5   BANK6   BANK7   BANK8   BANK9  BANK10  BANK1
      +1  BANK12  BANK13  BANK14  BANK15
  4528 ;;      Params:         0       0       0       0       0       0       0       0       0       0       0       0       
      +0       0       0       0       0
  4529 ;;      Locals:         0       0       0       0       0       0       0       0       0       0       0       0       
      +0       0       0       0       0
  4530 ;;      Temps:          0       0       0       0       0       0       0       0       0       0       0       0       
      +0       0       0       0       0
  4531 ;;      Totals:         0       0       0       0       0       0       0       0       0       0       0       0       
      +0       0       0       0       0
  4532 ;;Total ram usage:        0 bytes
  4533 ;; Hardware stack levels used:    1
  4534 ;; This function calls:
  4535 ;;		Nothing
  4536 ;; This function is called by:
  4537 ;;		_I2C1_ISR
  4538 ;; This function uses a non-reentrant model
  4539 ;;
  4540                           
  4541                           	psect	text33
  4542  00213A                     __ptext33:
  4543                           	opt callstack 0
  4544  00213A                     _I2C1_FunctionComplete:
  4545                           	opt callstack 19
  4546  00213A                     
  4547                           ;mcc_generated_files/i2c1.c: 569:     p_i2c1_trb_current++;
  4548  00213A  0E05               	movlw	5
  4549  00213C  0100               	movlb	0	; () banked
  4550  00213E  2771               	addwf	_p_i2c1_trb_current& (0+255),f,b
  4551  002140  0E00               	movlw	0
  4552  002142  2372               	addwfc	(_p_i2c1_trb_current+1)& (0+255),f,b
  4553  002144                     
  4554                           ; BSR set to: 0
  4555                           ;mcc_generated_files/i2c1.c: 572:     if(--i2c1_trb_count == 0)
  4556  002144  2E53               	decfsz	_i2c1_trb_count^0,f,c
  4557  002146  EFA9  F010         	goto	i2l2163
  4558  00214A                     
  4559                           ; BSR set to: 0
  4560                           ;mcc_generated_files/i2c1.c: 573:     {;mcc_generated_files/i2c1.c: 574:         i2c1_st
      +                          ate = S_MASTER_SEND_STOP;
  4561  00214A  0E04               	movlw	4
  4562  00214C  6E54               	movwf	_i2c1_state^0,c
  4563                           
  4564                           ;mcc_generated_files/i2c1.c: 575:     }
  4565  00214E  EFAB  F010         	goto	i2l190
  4566  002152                     i2l2163:
  4567                           
  4568                           ; BSR set to: 0
  4569                           ;mcc_generated_files/i2c1.c: 577:     {;mcc_generated_files/i2c1.c: 578:         i2c1_st
      +                          ate = S_MASTER_RESTART;
  4570  002152  0E01               	movlw	1
  4571  002154  6E54               	movwf	_i2c1_state^0,c
  4572  002156                     i2l190:
  4573                           
  4574                           ; BSR set to: 0
  4575  002156  0012               	return		;funcret
  4576  002158                     __end_of_I2C1_FunctionComplete:
  4577                           	opt callstack 0
  4578                           
  4579 ;; *************** function _I2C1_BusCollisionISR *****************
  4580 ;; Defined at:
  4581 ;;		line 742 in file "mcc_generated_files/i2c1.c"
  4582 ;; Parameters:    Size  Location     Type
  4583 ;;		None
  4584 ;; Auto vars:     Size  Location     Type
  4585 ;;		None
  4586 ;; Return value:  Size  Location     Type
  4587 ;;                  1    wreg      void 
  4588 ;; Registers used:
  4589 ;;		None
  4590 ;; Tracked objects:
  4591 ;;		On entry : 0/0
  4592 ;;		On exit  : 0/0
  4593 ;;		Unchanged: 0/0
  4594 ;; Data sizes:     COMRAM   BANK0   BANK1   BANK2   BANK3   BANK4   BANK5   BANK6   BANK7   BANK8   BANK9  BANK10  BANK1
      +1  BANK12  BANK13  BANK14  BANK15
  4595 ;;      Params:         0       0       0       0       0       0       0       0       0       0       0       0       
      +0       0       0       0       0
  4596 ;;      Locals:         0       0       0       0       0       0       0       0       0       0       0       0       
      +0       0       0       0       0
  4597 ;;      Temps:          0       0       0       0       0       0       0       0       0       0       0       0       
      +0       0       0       0       0
  4598 ;;      Totals:         0       0       0       0       0       0       0       0       0       0       0       0       
      +0       0       0       0       0
  4599 ;;Total ram usage:        0 bytes
  4600 ;; Hardware stack levels used:    1
  4601 ;; This function calls:
  4602 ;;		Nothing
  4603 ;; This function is called by:
  4604 ;;		_INTERRUPT_InterruptManager
  4605 ;; This function uses a non-reentrant model
  4606 ;;
  4607                           
  4608                           	psect	text34
  4609  0021D0                     __ptext34:
  4610                           	opt callstack 0
  4611  0021D0                     _I2C1_BusCollisionISR:
  4612                           	opt callstack 20
  4613  0021D0                     
  4614                           ;mcc_generated_files/i2c1.c: 745:  PIR2bits.BCL1IF = 0;
  4615  0021D0  96A1               	bcf	161,3,c	;volatile
  4616  0021D2  0012               	return		;funcret
  4617  0021D4                     __end_of_I2C1_BusCollisionISR:
  4618                           	opt callstack 0
  4619                           
  4620                           	psect	rparam
  4621  0000                     
  4622                           	psect	temp
  4623  000057                     btemp:
  4624                           	opt callstack 0
  4625  000057                     	ds	1
  4626  0000                     int$flags	set	btemp
  4627  0000                     wtemp8	set	btemp+1
  4628  0000                     ttemp5	set	btemp+1
  4629  0000                     ttemp6	set	btemp+4
  4630  0000                     ttemp7	set	btemp+8
  4631                           tosu	equ	0xFFF
  4632                           tosh	equ	0xFFE
  4633                           tosl	equ	0xFFD
  4634                           stkptr	equ	0xFFC
  4635                           pclatu	equ	0xFFB
  4636                           pclath	equ	0xFFA
  4637                           pcl	equ	0xFF9
  4638                           tblptru	equ	0xFF8
  4639                           tblptrh	equ	0xFF7
  4640                           tblptrl	equ	0xFF6
  4641                           tablat	equ	0xFF5
  4642                           prodh	equ	0xFF4
  4643                           prodl	equ	0xFF3
  4644                           indf0	equ	0xFEF
  4645                           postinc0	equ	0xFEE
  4646                           postdec0	equ	0xFED
  4647                           preinc0	equ	0xFEC
  4648                           plusw0	equ	0xFEB
  4649                           fsr0h	equ	0xFEA
  4650                           fsr0l	equ	0xFE9
  4651                           wreg	equ	0xFE8
  4652                           indf1	equ	0xFE7
  4653                           postinc1	equ	0xFE6
  4654                           postdec1	equ	0xFE5
  4655                           preinc1	equ	0xFE4
  4656                           plusw1	equ	0xFE3
  4657                           fsr1h	equ	0xFE2
  4658                           fsr1l	equ	0xFE1
  4659                           bsr	equ	0xFE0
  4660                           indf2	equ	0xFDF
  4661                           postinc2	equ	0xFDE
  4662                           postdec2	equ	0xFDD
  4663                           preinc2	equ	0xFDC
  4664                           plusw2	equ	0xFDB
  4665                           fsr2h	equ	0xFDA
  4666                           fsr2l	equ	0xFD9
  4667                           status	equ	0xFD8


Data Sizes:
    Strings     20
    Constant    0
    Data        0
    BSS         76
    Persistent  6
    Stack       0

Auto Spaces:
    Space          Size  Autos    Used
    COMRAM           94     78      86
    BANK0           160     28     102
    BANK1           256      0       0
    BANK2           256      0       0
    BANK3           256      0       0
    BANK4           256      0       0
    BANK5           256      0       0
    BANK6           256      0       0
    BANK7           256      0       0
    BANK8           256      0       0
    BANK9           256      0       0
    BANK10          256      0       0
    BANK11          256      0       0
    BANK12          256      0       0
    BANK13          256      0       0
    BANK14          256      0       0
    BANK15           56      0       0

Pointer List with Targets:

    i2c1_tr_queue.ptrb_list.pbuffer	PTR unsigned char  size(2) Largest target is 0
		 -> ReadTemperature@readtemp(COMRAM[1]), ReadTemperature@status(COMRAM[1]), ReadTemperature@TC_74(COMRAM[1]), 

    i2c1_tr_queue.pTrFlag	PTR enum E5995 size(2) Largest target is 0
		 -> ReadTemperature@readtemp(COMRAM[1]), ReadTemperature@status(COMRAM[1]), ReadTemperature@TC_74(COMRAM[1]), 

    i2c1_tr_queue.ptrb_list	PTR struct . size(2) Largest target is 0
		 -> I2C1_MasterRead@trBlock(BANK0[5]), I2C1_MasterWrite@trBlock(BANK0[5]), 

    strlen@s	PTR const unsigned char  size(2) Largest target is 32
		 -> dbuf(BANK0[32]), 

    strlen@a	PTR const unsigned char  size(2) Largest target is 32
		 -> dbuf(BANK0[32]), 

    printf@fmt	PTR const unsigned char  size(2) Largest target is 20
		 -> STR_1(CODE[20]), 

    printf@ap	PTR void [1] size(2) Largest target is 2
		 -> ?_printf(BANK0[2]), 

    fputs@s	PTR const unsigned char  size(2) Largest target is 32
		 -> dbuf(BANK0[32]), 

    fputs@fp	PTR struct _IO_FILE size(2) Largest target is 0
		 -> NULL(NULL[0]), 

    S1654_IO_FILE$buffer	PTR unsigned char  size(2) Largest target is 0

    fputc@fp.buffer	PTR unsigned char  size(2) Largest target is 0

    fputc@fp	PTR struct _IO_FILE size(2) Largest target is 0
		 -> NULL(NULL[0]), 

    vfprintf@ap	PTR PTR void  size(2) Largest target is 2
		 -> printf@ap(BANK0[2]), 

    vfprintf@fp	PTR struct _IO_FILE size(2) Largest target is 0
		 -> NULL(NULL[0]), 

    vfprintf@fmt	PTR const unsigned char  size(2) Largest target is 20
		 -> STR_1(CODE[20]), 

    vfprintf@cfmt	PTR unsigned char  size(2) Largest target is 20
		 -> STR_1(CODE[20]), 

    vfpfcnvrt@fp	PTR struct _IO_FILE size(2) Largest target is 0
		 -> NULL(NULL[0]), 

    vfpfcnvrt@ap	PTR PTR void  size(2) Largest target is 2
		 -> printf@ap(BANK0[2]), 

    vfpfcnvrt@fmt	PTR PTR unsigned char  size(2) Largest target is 2
		 -> vfprintf@cfmt(BANK0[2]), 

    dtoa@fp	PTR struct _IO_FILE size(2) Largest target is 0
		 -> NULL(NULL[0]), 

    pad@fp	PTR struct _IO_FILE size(2) Largest target is 0
		 -> NULL(NULL[0]), 

    pad@buf	PTR unsigned char  size(2) Largest target is 32
		 -> dbuf(BANK0[32]), 

    EUSART1_SetErrorHandler@interruptHandler	PTR FTN()void  size(2) Largest target is 1
		 -> EUSART1_DefaultErrorHandler(), 

    EUSART1_ErrorHandler	PTR FTN()void  size(2) Largest target is 1
		 -> Absolute function(), EUSART1_DefaultErrorHandler(), 

    EUSART1_SetOverrunErrorHandler@interruptHandler	PTR FTN()void  size(2) Largest target is 1
		 -> EUSART1_DefaultOverrunErrorHandler(), 

    EUSART1_OverrunErrorHandler	PTR FTN()void  size(2) Largest target is 1
		 -> Absolute function(), EUSART1_DefaultOverrunErrorHandler(), 

    EUSART1_SetFramingErrorHandler@interruptHandler	PTR FTN()void  size(2) Largest target is 1
		 -> EUSART1_DefaultFramingErrorHandler(), 

    EUSART1_FramingErrorHandler	PTR FTN()void  size(2) Largest target is 1
		 -> Absolute function(), EUSART1_DefaultFramingErrorHandler(), 

    I2C1_MasterWriteTRBBuild@pdata	PTR unsigned char  size(2) Largest target is 1
		 -> ReadTemperature@TC_74(COMRAM[1]), 

    I2C1_MasterWriteTRBBuild@ptrb.pbuffer	PTR unsigned char  size(2) Largest target is 1
		 -> ReadTemperature@readtemp(COMRAM[1]), ReadTemperature@status(COMRAM[1]), ReadTemperature@TC_74(COMRAM[1]), 

    I2C1_MasterWriteTRBBuild@ptrb	PTR struct . size(2) Largest target is 6
		 -> I2C1_MasterWrite@trBlock(BANK0[5]), 

    I2C1_MasterReadTRBBuild@pdata	PTR unsigned char  size(2) Largest target is 1
		 -> ReadTemperature@readtemp(COMRAM[1]), 

    I2C1_MasterReadTRBBuild@ptrb.pbuffer	PTR unsigned char  size(2) Largest target is 1
		 -> ReadTemperature@readtemp(COMRAM[1]), ReadTemperature@status(COMRAM[1]), ReadTemperature@TC_74(COMRAM[1]), 

    I2C1_MasterReadTRBBuild@ptrb	PTR struct . size(2) Largest target is 6
		 -> I2C1_MasterRead@trBlock(BANK0[5]), 

    i2c1_object.pTrTail.ptrb_list.pbuffer	PTR unsigned char  size(2) Largest target is 1
		 -> ReadTemperature@readtemp(COMRAM[1]), ReadTemperature@status(COMRAM[1]), ReadTemperature@TC_74(COMRAM[1]), 

    i2c1_object.pTrTail.pTrFlag	PTR enum E5995 size(2) Largest target is 1
		 -> ReadTemperature@readtemp(COMRAM[1]), ReadTemperature@status(COMRAM[1]), ReadTemperature@TC_74(COMRAM[1]), 

    i2c1_object.pTrTail.ptrb_list	PTR struct . size(2) Largest target is 6
		 -> I2C1_MasterRead@trBlock(BANK0[5]), I2C1_MasterWrite@trBlock(BANK0[5]), 

    I2C1_MasterTRBInsert@ptrb_list	PTR struct . size(2) Largest target is 6
		 -> I2C1_MasterRead@trBlock(BANK0[5]), I2C1_MasterWrite@trBlock(BANK0[5]), 

    I2C1_MasterTRBInsert@pflag	PTR enum E5995 size(2) Largest target is 1
		 -> ReadTemperature@status(COMRAM[1]), 

    I2C1_MasterRead@pflag	PTR enum E5995 size(2) Largest target is 1
		 -> ReadTemperature@status(COMRAM[1]), 

    I2C1_MasterRead@pdata	PTR unsigned char  size(2) Largest target is 1
		 -> ReadTemperature@readtemp(COMRAM[1]), 

    F6106.pbuffer	PTR unsigned char  size(2) Largest target is 1
		 -> ReadTemperature@readtemp(COMRAM[1]), ReadTemperature@status(COMRAM[1]), ReadTemperature@TC_74(COMRAM[1]), 

    I2C1_MasterWrite@pflag	PTR enum E5995 size(2) Largest target is 1
		 -> ReadTemperature@status(COMRAM[1]), 

    I2C1_MasterWrite@pdata	PTR unsigned char  size(2) Largest target is 1
		 -> ReadTemperature@TC_74(COMRAM[1]), 

    F6100.pbuffer	PTR unsigned char  size(2) Largest target is 1
		 -> ReadTemperature@readtemp(COMRAM[1]), ReadTemperature@status(COMRAM[1]), ReadTemperature@TC_74(COMRAM[1]), 

    I2C1_ISR@pi2c_buf_ptr	PTR unsigned char  size(2) Largest target is 1
		 -> NULL(NULL[0]), ReadTemperature@readtemp(COMRAM[1]), ReadTemperature@status(COMRAM[1]), ReadTemperature@TC_74(COMRAM[1]), 

    p_i2c1_trb_current.pbuffer	PTR unsigned char  size(2) Largest target is 1
		 -> ReadTemperature@readtemp(COMRAM[1]), ReadTemperature@status(COMRAM[1]), ReadTemperature@TC_74(COMRAM[1]), 

    p_i2c1_trb_current	PTR struct . size(2) Largest target is 6
		 -> I2C1_MasterRead@trBlock(BANK0[5]), I2C1_MasterWrite@trBlock(BANK0[5]), NULL(NULL[0]), 

    i2c1_object.pTrHead.pTrFlag	PTR enum E5995 size(2) Largest target is 1
		 -> ReadTemperature@readtemp(COMRAM[1]), ReadTemperature@status(COMRAM[1]), ReadTemperature@TC_74(COMRAM[1]), 

    i2c1_object.pTrHead.ptrb_list	PTR struct . size(2) Largest target is 6
		 -> I2C1_MasterRead@trBlock(BANK0[5]), I2C1_MasterWrite@trBlock(BANK0[5]), 

    S435$pbuffer	PTR unsigned char  size(2) Largest target is 1
		 -> ReadTemperature@readtemp(COMRAM[1]), ReadTemperature@status(COMRAM[1]), ReadTemperature@TC_74(COMRAM[1]), 

    p_i2c1_current.pbuffer	PTR unsigned char  size(2) Largest target is 1
		 -> ReadTemperature@readtemp(COMRAM[1]), ReadTemperature@status(COMRAM[1]), ReadTemperature@TC_74(COMRAM[1]), 

    S447$pTrFlag	PTR enum E5995 size(2) Largest target is 1
		 -> ReadTemperature@readtemp(COMRAM[1]), ReadTemperature@status(COMRAM[1]), ReadTemperature@TC_74(COMRAM[1]), 

    p_i2c1_current.pTrFlag	PTR enum E5995 size(2) Largest target is 1
		 -> ReadTemperature@readtemp(COMRAM[1]), ReadTemperature@status(COMRAM[1]), ReadTemperature@TC_74(COMRAM[1]), 

    S447$ptrb_list	PTR struct . size(2) Largest target is 6
		 -> I2C1_MasterRead@trBlock(BANK0[5]), I2C1_MasterWrite@trBlock(BANK0[5]), 

    p_i2c1_current.ptrb_list	PTR struct . size(2) Largest target is 6
		 -> I2C1_MasterRead@trBlock(BANK0[5]), I2C1_MasterWrite@trBlock(BANK0[5]), 

    p_i2c1_current	PTR volatile struct . size(2) Largest target is 7
		 -> i2c1_tr_queue(BANK0[5]), NULL(NULL[0]), 

    S458$pTrHead	PTR struct . size(2) Largest target is 7
		 -> i2c1_tr_queue(BANK0[5]), 

    i2c1_object.pTrHead	PTR struct . size(2) Largest target is 7
		 -> i2c1_tr_queue(BANK0[5]), 

    S458$pTrTail	PTR struct . size(2) Largest target is 7
		 -> i2c1_tr_queue(BANK0[5]), 

    i2c1_object.pTrTail	PTR struct . size(2) Largest target is 7
		 -> i2c1_tr_queue(BANK0[5]), 


Critical Paths under _main in COMRAM

    _vfprintf->_vfpfcnvrt
    _vfpfcnvrt->_dtoa
    _dtoa->_pad
    _pad->_fputs
    _fputs->_fputc
    _fputc->_putch
    _putch->_EUSART1_Write
    _abs->___aomod
    _EUSART1_Initialize->_EUSART1_SetErrorHandler
    _EUSART1_Initialize->_EUSART1_SetFramingErrorHandler
    _EUSART1_Initialize->_EUSART1_SetOverrunErrorHandler
    _ReadTemperature->_I2C1_MasterRead
    _ReadTemperature->_I2C1_MasterWrite
    _I2C1_MasterWrite->_I2C1_MasterWriteTRBBuild
    _I2C1_MasterRead->_I2C1_MasterReadTRBBuild

Critical Paths under _INTERRUPT_InterruptManager in COMRAM

    _INTERRUPT_InterruptManager->_I2C1_ISR
    _I2C1_ISR->_I2C1_Stop

Critical Paths under _main in BANK0

    _main->_printf
    _printf->_vfprintf
    _vfprintf->_vfpfcnvrt

Critical Paths under _INTERRUPT_InterruptManager in BANK0

    None.

Critical Paths under _main in BANK1

    None.

Critical Paths under _INTERRUPT_InterruptManager in BANK1

    None.

Critical Paths under _main in BANK2

    None.

Critical Paths under _INTERRUPT_InterruptManager in BANK2

    None.

Critical Paths under _main in BANK3

    None.

Critical Paths under _INTERRUPT_InterruptManager in BANK3

    None.

Critical Paths under _main in BANK4

    None.

Critical Paths under _INTERRUPT_InterruptManager in BANK4

    None.

Critical Paths under _main in BANK5

    None.

Critical Paths under _INTERRUPT_InterruptManager in BANK5

    None.

Critical Paths under _main in BANK6

    None.

Critical Paths under _INTERRUPT_InterruptManager in BANK6

    None.

Critical Paths under _main in BANK7

    None.

Critical Paths under _INTERRUPT_InterruptManager in BANK7

    None.

Critical Paths under _main in BANK8

    None.

Critical Paths under _INTERRUPT_InterruptManager in BANK8

    None.

Critical Paths under _main in BANK9

    None.

Critical Paths under _INTERRUPT_InterruptManager in BANK9

    None.

Critical Paths under _main in BANK10

    None.

Critical Paths under _INTERRUPT_InterruptManager in BANK10

    None.

Critical Paths under _main in BANK11

    None.

Critical Paths under _INTERRUPT_InterruptManager in BANK11

    None.

Critical Paths under _main in BANK12

    None.

Critical Paths under _INTERRUPT_InterruptManager in BANK12

    None.

Critical Paths under _main in BANK13

    None.

Critical Paths under _INTERRUPT_InterruptManager in BANK13

    None.

Critical Paths under _main in BANK14

    None.

Critical Paths under _INTERRUPT_InterruptManager in BANK14

    None.

Critical Paths under _main in BANK15

    None.

Critical Paths under _INTERRUPT_InterruptManager in BANK15

    None.

Call Graph Tables:

 ---------------------------------------------------------------------------------
 (Depth) Function   	        Calls       Base Space   Used Autos Params    Refs
 ---------------------------------------------------------------------------------
 (0) _main                                                 2     2      0    9581
                                             26 BANK0      2     2      0
                    _ReadTemperature
                  _SYSTEM_Initialize
                             _printf
 ---------------------------------------------------------------------------------
 (1) _printf                                               8     4      4    6508
                                             18 BANK0      8     4      4
                    _ReadTemperature (ARG)
                           _vfprintf
 ---------------------------------------------------------------------------------
 (2) _vfprintf                                             8     2      6    6337
                                             10 BANK0      8     2      6
                          _vfpfcnvrt
 ---------------------------------------------------------------------------------
 (3) _vfpfcnvrt                                           42    36      6    5864
                                             72 COMRAM     6     0      6
                                              0 BANK0     10    10      0
                               _dtoa
                              _fputc
 ---------------------------------------------------------------------------------
 (4) _dtoa                                                36    26     10    4314
                                             36 COMRAM    36    26     10
                            ___aodiv
                            ___aomod
                                _abs
                                _pad
 ---------------------------------------------------------------------------------
 (5) _pad                                                 11     5      6    2665
                                             25 COMRAM    11     5      6
                              _fputc
                              _fputs
                             _strlen
 ---------------------------------------------------------------------------------
 (6) _strlen                                               4     2      2     166
                                              7 COMRAM     4     2      2
 ---------------------------------------------------------------------------------
 (6) _fputs                                                7     3      4    1213
                                             18 COMRAM     7     3      4
                              _fputc
 ---------------------------------------------------------------------------------
 (4) _fputc                                                9     5      4     812
                                              9 COMRAM     9     5      4
                              _putch
 ---------------------------------------------------------------------------------
 (5) _putch                                                1     1      0      44
                                              8 COMRAM     1     1      0
                      _EUSART1_Write
 ---------------------------------------------------------------------------------
 (6) _EUSART1_Write                                        1     1      0      22
                                              7 COMRAM     1     1      0
 ---------------------------------------------------------------------------------
 (5) _abs                                                  4     2      2     142
                                             25 COMRAM     4     2      2
                            ___aomod (ARG)
 ---------------------------------------------------------------------------------
 (5) ___aomod                                             18     2     16     448
                                              7 COMRAM    18     2     16
 ---------------------------------------------------------------------------------
 (5) ___aodiv                                             26    10     16     452
                                              7 COMRAM    26    10     16
 ---------------------------------------------------------------------------------
 (1) _SYSTEM_Initialize                                    0     0      0     294
                 _EUSART1_Initialize
                    _I2C1_Initialize
               _INTERRUPT_Initialize
              _OSCILLATOR_Initialize
             _PIN_MANAGER_Initialize
 ---------------------------------------------------------------------------------
 (2) _PIN_MANAGER_Initialize                               0     0      0       0
 ---------------------------------------------------------------------------------
 (2) _OSCILLATOR_Initialize                                0     0      0       0
 ---------------------------------------------------------------------------------
 (2) _INTERRUPT_Initialize                                 0     0      0       0
 ---------------------------------------------------------------------------------
 (2) _I2C1_Initialize                                      0     0      0       0
 ---------------------------------------------------------------------------------
 (2) _EUSART1_Initialize                                   0     0      0     294
            _EUSART1_SetErrorHandler
     _EUSART1_SetFramingErrorHandler
     _EUSART1_SetOverrunErrorHandler
 ---------------------------------------------------------------------------------
 (3) _EUSART1_SetOverrunErrorHandler                       2     0      2      98
                                              7 COMRAM     2     0      2
 ---------------------------------------------------------------------------------
 (3) _EUSART1_SetFramingErrorHandler                       2     0      2      98
                                              7 COMRAM     2     0      2
 ---------------------------------------------------------------------------------
 (3) _EUSART1_SetErrorHandler                              2     0      2      98
                                              7 COMRAM     2     0      2
 ---------------------------------------------------------------------------------
 (1) _ReadTemperature                                      3     3      0    2779
                                             23 COMRAM     3     3      0
                    _I2C1_MasterRead
                   _I2C1_MasterWrite
 ---------------------------------------------------------------------------------
 (2) _I2C1_MasterWrite                                     7     0      7    1286
                                             16 COMRAM     7     0      7
               _I2C1_MasterTRBInsert
           _I2C1_MasterWriteTRBBuild
 ---------------------------------------------------------------------------------
 (3) _I2C1_MasterWriteTRBBuild                             9     2      7     436
                                              7 COMRAM     9     2      7
 ---------------------------------------------------------------------------------
 (2) _I2C1_MasterRead                                      7     0      7    1308
                                             16 COMRAM     7     0      7
            _I2C1_MasterReadTRBBuild
               _I2C1_MasterTRBInsert
 ---------------------------------------------------------------------------------
 (3) _I2C1_MasterTRBInsert                                 6     2      4     436
                                              7 COMRAM     6     2      4
   _I2C1_WaitForLastPacketToComplete
 ---------------------------------------------------------------------------------
 (4) _I2C1_WaitForLastPacketToComplete                     0     0      0       0
 ---------------------------------------------------------------------------------
 (3) _I2C1_MasterReadTRBBuild                              9     2      7     458
                                              7 COMRAM     9     2      7
 ---------------------------------------------------------------------------------
 Estimated maximum stack depth 6
 ---------------------------------------------------------------------------------
 (Depth) Function   	        Calls       Base Space   Used Autos Params    Refs
 ---------------------------------------------------------------------------------
 (10) _INTERRUPT_InterruptManager                          2     2      0      22
                                              5 COMRAM     2     2      0
               _I2C1_BusCollisionISR
                           _I2C1_ISR
 ---------------------------------------------------------------------------------
 (11) _I2C1_ISR                                            2     2      0      22
                                              3 COMRAM     2     2      0
              _I2C1_FunctionComplete
                          _I2C1_Stop
 ---------------------------------------------------------------------------------
 (12) _I2C1_Stop                                           3     3      0      22
                                              0 COMRAM     3     3      0
 ---------------------------------------------------------------------------------
 (12) _I2C1_FunctionComplete                               0     0      0       0
 ---------------------------------------------------------------------------------
 (11) _I2C1_BusCollisionISR                                0     0      0       0
 ---------------------------------------------------------------------------------
 Estimated maximum stack depth 12
 ---------------------------------------------------------------------------------

 Call Graph Graphs:

 _main (ROOT)
   _ReadTemperature
     _I2C1_MasterRead
       _I2C1_MasterReadTRBBuild
       _I2C1_MasterTRBInsert
         _I2C1_WaitForLastPacketToComplete
     _I2C1_MasterWrite
       _I2C1_MasterTRBInsert
         _I2C1_WaitForLastPacketToComplete
       _I2C1_MasterWriteTRBBuild
   _SYSTEM_Initialize
     _EUSART1_Initialize
       _EUSART1_SetErrorHandler
       _EUSART1_SetFramingErrorHandler
       _EUSART1_SetOverrunErrorHandler
     _I2C1_Initialize
     _INTERRUPT_Initialize
     _OSCILLATOR_Initialize
     _PIN_MANAGER_Initialize
   _printf
     _ReadTemperature (ARG)
       _I2C1_MasterRead
         _I2C1_MasterReadTRBBuild
         _I2C1_MasterTRBInsert
           _I2C1_WaitForLastPacketToComplete
       _I2C1_MasterWrite
         _I2C1_MasterTRBInsert
           _I2C1_WaitForLastPacketToComplete
         _I2C1_MasterWriteTRBBuild
     _vfprintf (ARG)
       _vfpfcnvrt
         _dtoa
           ___aodiv
           ___aomod
           _abs
             ___aomod (ARG)
           _pad
             _fputc
               _putch
                 _EUSART1_Write
             _fputs
               _fputc
                 _putch
                   _EUSART1_Write
             _strlen
         _fputc
           _putch
             _EUSART1_Write

 _INTERRUPT_InterruptManager (ROOT)
   _I2C1_BusCollisionISR
   _I2C1_ISR
     _I2C1_FunctionComplete
     _I2C1_Stop

 Address spaces:
Name               Size   Autos  Total    Cost      Usage
BIGRAM             F37      0       0      37        0.0%
EEDATA             400      0       0       0        0.0%
BITBANK14          100      0       0      33        0.0%
BANK14             100      0       0      34        0.0%
BITBANK13          100      0       0      31        0.0%
BANK13             100      0       0      32        0.0%
BITBANK12          100      0       0      29        0.0%
BANK12             100      0       0      30        0.0%
BITBANK11          100      0       0      27        0.0%
BANK11             100      0       0      28        0.0%
BITBANK10          100      0       0      25        0.0%
BANK10             100      0       0      26        0.0%
BITBANK9           100      0       0      23        0.0%
BANK9              100      0       0      24        0.0%
BITBANK8           100      0       0      21        0.0%
BANK8              100      0       0      22        0.0%
BITBANK7           100      0       0      19        0.0%
BANK7              100      0       0      20        0.0%
BITBANK6           100      0       0      17        0.0%
BANK6              100      0       0      18        0.0%
BITBANK5           100      0       0      15        0.0%
BANK5              100      0       0      16        0.0%
BITBANK4           100      0       0      13        0.0%
BANK4              100      0       0      14        0.0%
BITBANK3           100      0       0      10        0.0%
BANK3              100      0       0      11        0.0%
BITBANK2           100      0       0       8        0.0%
BANK2              100      0       0       9        0.0%
BITBANK1           100      0       0       6        0.0%
BANK1              100      0       0       7        0.0%
BITBANK0            A0      0       0       4        0.0%
BANK0               A0     1C      66       5       63.8%
BITCOMRAM           5E      0       0       0        0.0%
COMRAM              5E     4E      56       1       91.5%
BITBANK15           38      0       0      35        0.0%
BANK15              38      0       0      36        0.0%
BITSFR_1             0      0       0     200        0.0%
SFR_1                0      0       0     200        0.0%
BITSFR               0      0       0     200        0.0%
SFR                  0      0       0     200        0.0%
STACK                0      0       0       2        0.0%
NULL                 0      0       0       0        0.0%
ABS                  0      0      BC      12        0.0%
DATA                 0      0      BC       3        0.0%
CODE                 0      0       0       0        0.0%


Microchip Technology PIC18 Macro Assembler V2.10 build 88905656 
Symbol Table                                                                                   Thu Nov 07 11:13:42 2019

                                            l23 1D46                                              l50 21CE  
                                            l80 2182                                              l83 21A2  
                                  __CFG_CP0$OFF 000000                                    __CFG_CP1$OFF 000000  
                                  __CFG_CP2$OFF 000000                                    __CFG_CP3$OFF 000000  
                                           l201 1E02                                             l130 20EE  
                                           l214 2194                                             l222 1B82  
                                           l208 1E5A                                             l400 1BC8  
                                           l225 1EAA                                             l322 2046  
                                           l403 1C0A                                             l411 13D4  
                                           l228 1FC6                                             l405 1C44  
                                           l413 13DC                                             l431 1610  
                                           l370 21B6                                             l346 215A  
                                           l355 21AC                                             l276 2084  
                                           l444 1DA2                                             l373 21CA  
                                           l349 216C                                             l445 1DAA  
                                           l438 17CE                                             l367 21C0  
                                           l562 1956                                             l575 1ABA  
                                  __CFG_CPB$OFF 000000                                    __CFG_CPD$OFF 000000  
                                           u800 1C6A                                             u801 1C66  
                                           u810 1C92                                             u811 1C8E  
                                           u900 17E2                                             u820 1CC8  
                                           u901 17DE                                             u821 1CC4  
                                           u910 1814                                             u830 1F82  
                                           u911 1810                                             u831 1F7E  
                                           u840 20AE                                             u921 183E  
                                           u841 20AA                                             u930 1862  
                                           u850 1B92                                             u931 185E  
                                           u851 1B8E                                             u940 188C  
                                           u780 2168                                             u860 1BB4  
                                           u941 1888                                             u781 2164  
                                           u861 1BB0                                             u950 18CC  
                                           u790 1C58                                             u870 1C0A  
                                           u951 18C8                                             u791 1C54  
                                           u871 1C06                                             u960 1916  
                                           u880 1C18                                             u961 1912  
                                           u881 1C14                                             u970 196A  
                                           u890 1FE2                                             u971 1966  
                                           u891 1FDE                                             u980 199C  
                                           u981 1998                                             u990 19DA  
                                           u991 19D6                                             _abs 1FC8  
                                           _pad 1B84                                             wreg 000FE8  
                                    _TXSTA1bits 000FAC                                    __CFG_LVP$OFF 000000  
                              __end_of_I2C1_ISR 1334                                            l2001 15B2  
                                          l1123 1FFE                                            l2003 15C4  
                                          ?_abs 001A                                            l2021 1ACE  
                                          l2013 1F84                                            l2005 15D0  
                                          l1126 2006                                            l2031 1B16  
                                          l2023 1ADA                                            l2111 1E14  
                                          l2015 1FA2                                            l2103 1DAC  
                                          l2007 15D8                                            l2041 1B62  
                                          l2033 1B2E                                            l2025 1AEE  
                                          l2113 1E4E                                            l2017 1FB2  
                                          l2105 1DBC                                            l2121 20D2  
                                          l2009 15E8                                            l1153 2116  
                                          l1138 1CDA                                            l1146 1F82  
                                          l2051 1E86                                            l2043 1B7C  
                                          l2035 1B36                                            l2027 1AFA  
                                          l2019 1ABE                                            l2107 1DF6  
                                          l2131 20E6                                            l2123 20D6  
                                          l2115 20BC                                            l2053 1E96  
                                          l2045 1B80                                            l2037 1B50  
                                          l2029 1B0E                                            l2109 1E04  
                                          l2141 201C                                            l2133 20E8  
                                          l2125 20DA                                            l2117 20CE  
                                          l2047 1E5C                                            l2039 1B56  
                                          l2055 21B8                                            l2143 2028  
                                          l2135 20EA                                            l2127 20DE  
                                          l2119 20D0                                            l1159 20BA  
                                          l2049 1E7A                                            l2057 21AE  
                                          l2145 2034                                            l2137 20EC  
                                          l2129 20E2                                            l2059 21C2  
                                          l2147 2040                                            l2139 2008  
                                          l2411 165C                                            l2403 1612  
                                          l2181 1D32                                            l2173 1CDC  
                                          l2421 1728                                            l2413 1682  
                                          l2405 1638                                            l2183 1D44  
                                          l2175 1CE0                                            l2191 2176  
                                          l2423 174E                                            l2431 177C  
                                          l2415 16A8                                            l2407 1646  
                                          l2177 1D00                                            l1473 21CC  
                                          l1481 2068                                            l2193 217A  
                                          l2433 178A                                            l2425 175C  
                                          l2417 16F0                                            l2409 1658  
                                          l2179 1D12                                            l1483 206A  
                                          l1475 2048                                            l2195 217E  
                                          l2187 216E                                            l1803 215A  
                                          l1811 1C58                                            l2427 1770  
                                          l2451 1D84                                            l1485 2082  
                                          l1477 2060                                            l2189 2172  
                                          l1901 1900                                            l1805 2168  
                                          l1813 1C6A                                            l2437 1796  
                                          l2445 1D48                                            l2453 20F0  
                                          l2461 1EB0                                            l1487 2196  
                                          l1479 2062                                            l1903 1906  
                                          l1911 1958                                            l1807 21A6  
                                          l1815 1C74                                            l1823 1F40  
                                          l1831 2086                                            l2439 17BC  
                                          l2447 1D50                                            l2455 20FA  
                                          l2463 1EB2                                            l1905 1916  
                                          l1921 199C                                            l1913 195C  
                                          l1817 1C92                                            l1809 1C46  
                                          l1825 1F4C                                            l1833 2092  
                                          l1841 1B84                                            l2449 1D5E  
                                          l2465 1EB4                                            l1907 1936  
                                          l1931 1A04                                            l1923 19BC  
                                          l1915 196A                                            l1819 1CC8  
                                          l1827 1F5E                                            l1835 2096  
                                          l1851 1BD4                                            l1843 1B92  
                                          l2467 1EB8                                            l2459 1EAC  
                                          l1941 1A7A                                            l1933 1A32  
                                          l1925 19DA                                            l1917 198A  
                                          l1829 1F62                                            l1837 20AE  
                                          l1853 1BE8                                            l1845 1BA6  
                                          l2469 1ED4                                            l1871 17E2  
                                          l1943 1A9A                                            l1935 1A52  
                                          l1927 19E2                                            l1919 198E  
                                          l1863 1FC8                                            l1855 1BEC  
                                          l1847 1BB4                                            l1951 1334  
                                          l1881 1838                                            l1873 1802  
                                          l1937 1A64                                            l1929 19F6  
                                          l1865 1FE2                                            l1857 1C18  
                                          l1849 1BC0                                            l1961 13AE  
                                          l1953 1354                                            l1947 2184  
                                          l1891 188C                                            l1883 1844  
                                          l1875 1806                                            l1867 17D0  
                                          l1939 1A6A                                            l1859 1C2C  
                                          l1971 140A                                            l1963 13C8  
                                          l1955 137C                                            l1949 2184  
                                          l1893 189E                                            l1885 1862  
                                          l1877 1814                                            l1869 17D4  
                                          l1981 14A8                                            l1973 1412  
                                          l1965 13E4                                            l1957 139C  
                                          ?_pad 001A                                            l1895 18CC  
                                          l1887 186A                                            l1879 1834  
                                          l1991 1564                                            l1983 14AE  
                                          l1975 141A                                            l1967 13F6  
                                          l1959 13AC                                            l1897 18EC  
                                          l1889 187E                                            l1993 157E  
                                          l1977 1420                                            l1985 1512  
                                          l1969 1404                                            l1899 18EE  
                                          l1987 152C                                            l1995 158C  
                                          l1979 14A2                                            l1997 159E  
                                          l1989 154A                                            l1999 15AC  
                                          STR_1 1001                                            u1000 1A04  
                                          u1001 1A00                                            u1010 1A32  
                                          u1011 1A2E                                            u1020 1A7A  
                                          u1100 1404                                            u1021 1A76  
                                          u1101 1400                                            u1030 2194  
                                          u1110 152C                                            u1031 2190  
                                          u1111 1528                                            u1200 1B2E  
                                          u1120 154A                                            u1040 1364  
                                          u1201 1B2A                                            u1121 1546  
                                          u1041 135E                                            u1210 1B50  
                                          u1130 1564                                            u1050 1366  
                                          u1211 1B4C                                            u1131 1560  
                                          u1220 1B7C                                            u1140 157E  
                                          u1060 137C                                            u1221 1B78  
                                          u1141 157A                                            u1061 1378  
                                          u1310 1D12                                            u1150 158C  
                                          u1070 13AC                                            u1311 1D0E  
                                          u1151 1588                                            u1071 13A8  
                                          u1320 1D44                                            u1160 159E  
                                          u1080 13C8                                            u1321 1D40  
                                          u1161 159A                                            u1081 13C4  
                                          u1170 15AC                                            u1090 13F6  
                                          u1171 15A8                                            u1091 13F2  
                                          u1180 15C4                                            u1181 15C0  
                                          _LATA 000F89                                            u1190 1ACE  
                                          u1270 1DBC                                            _LATB 000F8A  
                                          u1191 1ACA                                            u1271 1DB8  
                                          _LATC 000F8B                                            u1280 1E14  
                                          _LATD 000F8C                                            u1281 1E10  
                                          _LATE 000F8D                                            u1530 1638  
                                          u1531 1634                                            u1540 1682  
                                          u1541 167E                                            u1550 16A8  
                                          u1551 16A4                                            u1560 174E  
                                          u1561 174A                                            u1570 1DA2  
                                          u1571 1D9E                                            u1587 1EE0  
                                          i2l61 0068                                            i2l56 0044  
                                          i2l57 0068                                            _WPUB 000F61  
               __end_of_I2C1_MasterReadTRBBuild 1EAC                                   _EUSART1_Write 2158  
                                          abs@a 001A                                            _dbuf 0075  
                                          _main 1EAC                                            _dtoa 1334  
                                          _prec 006B                                            _nout 0067  
                                          pad@i 0021                                            pad@p 001E  
                                          fsr1h 000FE2                                            fsr2h 000FDA  
                                          indf2 000FDF                                            fsr1l 000FE1  
                                          pad@w 0023                                            fsr2l 000FD9  
                        ??_I2C1_MasterTRBInsert 000C                                            btemp 0057  
                                 __CFG_BORV$190 000000                                            start 0074  
                                 __CFG_IESO$OFF 000000                                    ___param_bank 000000  
                I2C1_MasterWriteTRBBuild@length 000C                                           ??_abs 001C  
                                         ??_pad 0020                                      _i2c1_state 0054  
                __size_of_OSCILLATOR_Initialize 000E                       I2C1_MasterTRBInsert@count 000D  
                 __end_of_OSCILLATOR_Initialize 21A4                       I2C1_MasterTRBInsert@pflag 000A  
                               __end_of___aodiv 1958                                           ?_main 0001  
                                         ?_dtoa 0025                                 __end_of___aomod 1ABC  
                             __end_of_I2C1_Stop 1F40                                  __CFG_DEBUG$OFF 000000  
                                         i2l150 10D6                                           i2l152 10E0  
                                         i2l153 10E6                                           i2l145 1332  
                                         i2l163 11BC                                           i2l147 105A  
                                         i2l237 21D2                                           i2l181 129C  
                                         i2l173 1220                                           i2l190 2156  
                                         i2l158 112E                                           i2l159 114A  
                                         i2l176 123C                                           i2l177 125A  
                                         i2l169 11D6                                           i2l194 1F3E  
                                  vfpfcnvrt@fmt 004B                                           _TRISA 000F92  
                                         _TRISB 000F93                                           _TRISC 000F94  
                                         _TRISD 000F95                                           _TRISE 000F96  
                  __end_of_I2C1_BusCollisionISR 21D4                                   __CFG_WRT0$OFF 000000  
                                 __CFG_WRT1$OFF 000000                                   __CFG_WRT2$OFF 000000  
                                 __CFG_WRT3$OFF 000000                               ??_I2C1_MasterRead 0018  
                                __CFG_EBTR0$OFF 000000                                  __CFG_FCMEN$OFF 000000  
                                __CFG_EBTR1$OFF 000000                                  __CFG_EBTR2$OFF 000000  
                                __CFG_EBTR3$OFF 000000                               ??_I2C1_Initialize 0008  
                                 __CFG_WRTB$OFF 000000                                   __CFG_WRTC$OFF 000000  
                                 __CFG_WRTD$OFF 000000                        __size_of_ReadTemperature 006C  
                                __CFG_EBTRB$OFF 000000                                           _flags 004F  
                                         _fputc 1C46                                           _fputs 1F40  
                            __CFG_MCLRE$EXTMCLR 000000                                           pad@fp 001A  
                                         _width 0069                                           _putch 21A4  
                                         dtoa@d 0027                                           dtoa@i 0047  
                                         dtoa@n 003F                                           dtoa@p 0039  
                                         dtoa@s 003D                                           dtoa@w 003B  
                                ?_EUSART1_Write 0001                                           tablat 000FF5  
                                         plusw2 000FDB                                           ttemp5 0058  
                                         ttemp6 005B                                           ttemp7 005F  
                                         status 000FD8                                           wtemp8 0058  
                                __CFG_HFOFST$ON 000000              _EUSART1_DefaultFramingErrorHandler 000000  
                                __CFG_PBADEN$ON 000000                 I2C1_MasterWriteTRBBuild@address 000D  
                               __initialization 2118                           I2C1_MasterWrite@pdata 0011  
                         I2C1_MasterWrite@pflag 0016                      __end_of_EUSART1_Initialize 2048  
                                  __end_of_main 1EF6                                    __end_of_dtoa 1612  
                   ?_INTERRUPT_InterruptManager 0001                                     _i2c1_object 0060  
                                        ??_main 00BE                                          ??_dtoa 002F  
                                 __activetblptr 000003                                          ?_fputc 000A  
                                        ?_fputs 0013                                          _ANSELA 000F38  
                                        ?_putch 0001                                          _ANSELB 000F39  
                                        _ANSELC 000F3A                                          _ANSELD 000F3B  
                                        _ANSELE 000F3C                                          i2l2211 104E  
                                        i2l2203 1016                                          i2l2301 124A  
                                        i2l2221 1092                                          i2l2205 1026  
                                        i2l2151 1EFA                                          i2l2311 1268  
                                        i2l2303 124E                                          i2l2231 10D8  
                                        i2l2223 109A                                          i2l2215 106A  
                                        i2l2207 1028                                          i2l2161 214A  
                                        i2l2153 1F1A                                          i2l2321 1294  
                                        i2l2313 126E                                          i2l2305 1254  
                                        i2l2241 1110                                          i2l2225 10B2  
                                        i2l2217 1072                                          i2l2209 102C  
                                        i2l2163 2152                                          i2l2155 1F3A  
                                        i2l2331 12B6                                          i2l2323 129E  
                                        i2l2315 127A                                          i2l2307 125C  
                                        i2l2251 114C                                          i2l2243 111E  
                                        i2l2235 10F4                                          i2l2227 10BA  
                                        i2l2219 107E                                          i2l2157 213A  
                                        i2l2149 1EF8                                          i2l2325 12A2  
                                        i2l2317 1280                                          i2l2309 1264  
                                        i2l2261 1186                                          i2l2253 116C  
                                        i2l2245 1126                                          i2l2237 10F8  
                                        i2l2229 10D4                                          i2l2159 2144  
                                        i2l2327 12A8                                          i2l2319 1292  
                                        i2l2263 1196                                          i2l2255 116E  
                                        i2l2247 113C                                          i2l2239 1102  
                                        i2l2335 12C0                                          i2l2329 12B2  
                                        i2l2281 11E4                                          i2l2265 11AC  
                                        i2l2249 1140                                          i2l2291 1210  
                                        i2l2283 11E8                                          i2l2259 1176  
                                        i2l2371 003C                                          i2l2293 1216  
                                        i2l2285 11EA                                          i2l2277 11CE  
                                        i2l2373 0052                                          i2l2365 0012  
                                __CFG_WDTEN$OFF 000000                                          i2l2287 11F4  
                                        i2l2375 0060                                          i2l2367 0020  
                                        i2l1577 21D0                                          i2l2289 1206  
                                        i2l2297 1226                                          i2l2369 002E  
                                        i2l2491 12D4                                          i2l2299 1232  
                                        _RCREG1 000FAE                                          _RCSTA1 000FAB  
                                        _OSCCON 000FD3                                          _SPBRG1 000FAF  
                                        _TXREG1 000FAD                                          _TXSTA1 000FAC  
                             ?_I2C1_MasterWrite 0011                                  __CFG_XINST$OFF 000000  
                            ??_I2C1_MasterWrite 0018                                    vfprintf@cfmt 00B4  
                                _p_i2c1_current 006F                                       ??___aodiv 0018  
                                     ??___aomod 0018                                  __CFG_STVREN$ON 000000  
                      ?_EUSART1_SetErrorHandler 0008                      ??_I2C1_MasterWriteTRBBuild 000F  
                                     ?_I2C1_ISR 0001                                          clear_0 211E  
                                        clear_1 212A                                          _printf 20F0  
                                        pad@buf 001C                ??_EUSART1_SetOverrunErrorHandler 000A  
               ?_EUSART1_SetOverrunErrorHandler 0008                                          dtoa@fp 0025  
                                        _strlen 2086                __size_of_I2C1_MasterReadTRBBuild 0050  
                                        fputc@c 000A                                          fputs@c 0017  
                                        fputs@i 0018                                          fputs@s 0013  
                                  __mediumconst 0000                                          tblptrh 000FF7  
                                        tblptrl 000FF6                                          tblptru 000FF8  
                              __end_of_vfprintf 1DAC                                 ??_EUSART1_Write 0008  
                 I2C1_MasterWriteTRBBuild@pdata 000A                   __size_of_INTERRUPT_Initialize 0004  
                             _SYSTEM_Initialize 216E                                      __accesstop 0060  
                       __end_of__initialization 2130                               ??_ReadTemperature 0018  
                            ?_SYSTEM_Initialize 0001                                   ___rparam_used 000001  
                                _i2c1_trb_count 0053                           _I2C1_FunctionComplete 213A  
                          _I2C1_BusCollisionISR 21D0                                  __pcstackCOMRAM 0001  
                        I2C1_MasterWrite@length 0013                             ??_SYSTEM_Initialize 000A  
                                 __end_of_fputc 1CDC                                   __end_of_fputs 1F84  
                       ReadTemperature@readtemp 0019                                   __end_of_putch 21AE  
                                    ??_I2C1_ISR 0004                  I2C1_MasterReadTRBBuild@address 000D  
                                       ??_fputc 000E                       __end_of_SYSTEM_Initialize 2184  
                                       ??_fputs 0017                                         ??_putch 0009  
                                    __pbssBANK0 0060                                 __CFG_PLLCFG$OFF 000000  
                         ?_I2C1_BusCollisionISR 0001                 __end_of_EUSART1_SetErrorHandler 21CC  
                            __CFG_CCP2MX$PORTC1 000000                              __CFG_CCP3MX$PORTB5 000000  
                               _I2C1_MasterRead 1E04                                 _I2C1_Initialize 20BC  
                                       ?_printf 00B6                                         ?_strlen 0008  
        __end_of_EUSART1_SetFramingErrorHandler 21C2         __size_of_EUSART1_SetFramingErrorHandler 000A  
                _EUSART1_SetFramingErrorHandler 21B8                                         _OSCCON2 000FD2  
                            __size_of_vfpfcnvrt 01BE                                       _I2C1_Stop 1EF6  
                                       _OSCTUNE 000F9B                                         _SPBRGH1 000FB0  
                                       _SSP1ADD 000FC8                                         _SSP1BUF 000FC9  
                 I2C1_MasterTRBInsert@ptrb_list 0008                                 __CFG_PWRTEN$OFF 000000  
                          ReadTemperature@TC_74 0018                          ?_I2C1_FunctionComplete 0001  
                                       __Hparam 0000                   __size_of_I2C1_MasterTRBInsert 00C8  
                                       __Lparam 0000                              _p_i2c1_trb_current 0071  
                                       ___aodiv 17D0                                         ___aomod 1958  
                                     ?_vfprintf 00AE                                    __psmallconst 1000  
                                       __pcinit 2118                                         __ramtop 1000  
                       _I2C1_MasterReadTRBBuild 1E5C                                         __ptext0 1EAC  
                                       __ptext1 20F0                                         __ptext2 1D48  
                                       __ptext3 1612                                         __ptext4 1334  
                                       __ptext5 1B84                                         __ptext6 2086  
                                       __ptext7 1F40                                         __ptext8 1C46  
                                       __ptext9 21A4                                 __size_of_printf 0028  
                               __size_of_strlen 0036                           _OSCILLATOR_Initialize 2196  
                                  __size_of_abs 0040                                    __size_of_pad 00C2  
                  I2C1_MasterReadTRBBuild@pdata 000A                            I2C1_MasterRead@pdata 0011  
                          I2C1_MasterRead@pflag 0016                              _EUSART1_Initialize 2008  
                      ??_PIN_MANAGER_Initialize 0008                                      ?_I2C1_Stop 0001  
                    __size_of_SYSTEM_Initialize 0016                            I2C1_ISR@pi2c_buf_ptr 006D  
                          end_of_initialization 2130                             ?_EUSART1_Initialize 0001  
                                       fputc@fp 000C                     _EUSART1_OverrunErrorHandler 00C2  
                                       fputs@fp 0015                         __end_of_I2C1_MasterRead 1E5C  
                        ??_I2C1_BusCollisionISR 0001                         __end_of_I2C1_Initialize 20F0  
                             __end_of_vfpfcnvrt 17D0                                         postdec2 000FDD  
                                       postinc0 000FEE                                         postinc1 000FE6  
                                       postinc2 000FDE                                      ??_vfprintf 004F  
                          ??_EUSART1_Initialize 000A                                         strlen@a 000A  
                                       strlen@s 0008                       __size_of_I2C1_MasterWrite 0058  
                             __size_of_I2C1_ISR 031E                                 _ReadTemperature 1CDC  
              __size_of_EUSART1_SetErrorHandler 000A                             EUSART1_Write@txData 0008  
             I2C1_ISR@i2c_10bit_address_restart 0051                         I2C1_MasterWrite@address 0014  
                     ??_I2C1_MasterReadTRBBuild 000F                    __end_of_INTERRUPT_Initialize 21D0  
                                   vfpfcnvrt@ap 004D                                     vfpfcnvrt@fp 0049  
                                   vfpfcnvrt@ll 00A6                         I2C1_MasterWrite@trBlock 009A  
                      I2C1_Stop@completion_code 0003                          ?_OSCILLATOR_Initialize 0001  
                                __end_of_printf 2118                                  __end_of_strlen 20BC  
                           start_initialization 2118                                     ??_I2C1_Stop 0001  
               __size_of_PIN_MANAGER_Initialize 003E                                     __end_of_abs 2008  
                                   __end_of_pad 1C46               __size_of_I2C1_MasterWriteTRBBuild 0044  
                                   putch@txData 0009                       ?_I2C1_MasterWriteTRBBuild 0008  
                         __end_of_EUSART1_Write 216E                                ?_I2C1_MasterRead 0011  
                              ?_I2C1_Initialize 0001                                     vfprintf@fmt 00B0  
                       __end_of_ReadTemperature 1D48                                        ??_printf 004F  
                                      ??_strlen 000A                    I2C1_MasterWriteTRBBuild@ptrb 0008  
                                   __pbssCOMRAM 004F                                   __pcstackBANK0 00A4  
                              ___aodiv@dividend 0008                                   _i2c1_tr_queue 009F  
              ??_EUSART1_SetFramingErrorHandler 000A                 ?_EUSART1_SetFramingErrorHandler 0008  
                       ??_I2C1_FunctionComplete 0001                                       __pnvBANK0 00C0  
                        _PIN_MANAGER_Initialize 2048                                       _dtoa$1193 0037  
                                     __pintcode 0008                                        ?___aodiv 0008  
                                      ?___aomod 0008                                ___aodiv@quotient 001A  
                                      _I2C1_ISR 1016                    ??_INTERRUPT_InterruptManager 0006  
                              __CFG_PRICLKEN$ON 000000                               __size_of_vfprintf 0064  
                              _I2C1_MasterWrite 1DAC                                     __smallconst 1000  
                  __end_of_I2C1_MasterTRBInsert 1B84                                        _BAUDCON1 000FB8  
            _EUSART1_DefaultOverrunErrorHandler 000000                            _EUSART1_ErrorHandler 00C0  
                        I2C1_MasterRead@address 0014                         _EUSART1_SetErrorHandler 21C2  
                                __size_of_fputc 0096                                  __size_of_fputs 0044  
                                __size_of_putch 000A                            _INTERRUPT_Initialize 21CC  
                   I2C1_MasterReadTRBBuild@ptrb 0008        __end_of_I2C1_WaitForLastPacketToComplete 2196  
     __size_of_I2C1_WaitForLastPacketToComplete 0012              ??_I2C1_WaitForLastPacketToComplete 0008  
             ?_I2C1_WaitForLastPacketToComplete 0001                _I2C1_WaitForLastPacketToComplete 2184  
                        I2C1_MasterRead@trBlock 0095         EUSART1_SetErrorHandler@interruptHandler 0008  
                                      _PIE1bits 000F9D                                        _PIE2bits 000FA0  
                                      i2u140_40 1186                                        i2u140_41 1182  
                                      i2u141_40 11CE                                        i2u133_40 1026  
                                      i2u141_41 11CA                                        i2u133_41 1022  
                                      i2u142_40 11E4                                        i2u134_40 106A  
                                      i2u150_40 003C                                        i2u142_41 11E0  
                                      i2u134_41 1066                                        i2u150_41 0038  
                                      i2u143_40 1206                                        i2u135_40 10B2  
                                      i2u151_40 0052                                        i2u143_41 1202  
                                      i2u135_41 10AE                                        i2u151_41 004E  
           __size_of_INTERRUPT_InterruptManager 006C                                        i2u144_40 124A  
                                      i2u136_40 10D4                                        i2u152_40 0060  
                                      i2u144_41 1246                                        i2u136_41 10D0  
                                      i2u152_41 005C                                        i2u129_40 1F1A  
                                      i2u145_40 1292                                        i2u137_40 10F4  
                                      i2u129_41 1F16                                        i2u145_41 128E  
                                      i2u137_41 10F0                                        i2u138_40 111E  
                                      i2u138_41 111A                                        i2u139_40 113C  
                                      i2u139_41 1138                                        i2u148_40 0020  
                                      i2u148_41 001C                                        i2u149_40 002E  
                                      i2u149_41 002A                                        _PIR1bits 000F9E  
                                      _PIR2bits 000FA1                                        _RCONbits 000FD0  
                              __CFG_WDTPS$32768 000000                                        _SSP1CON1 000FC6  
                                      _SSP1CON3 000FCB                                        _SSP1STAT 000FC7  
                                     _vfpfcnvrt 1612                                ?_ReadTemperature 0001  
                                   _INTCON2bits 000FF1                           ?_INTERRUPT_Initialize 0001  
                                      __Hrparam 0000                   __size_of_I2C1_BusCollisionISR 0004  
                                    vfprintf@ap 00B2                                        __Lrparam 0000  
                                    vfprintf@fp 00AE                              __CFG_BOREN$SBORDIS 000000  
                        I2C1_ISR@i2c_bytes_left 0052                               __CFG_P2BMX$PORTD2 000000  
                       ??_OSCILLATOR_Initialize 0008                                __size_of___aodiv 0188  
                              __size_of___aomod 0164                     __size_of_EUSART1_Initialize 0040  
                                    ?_vfpfcnvrt 0049                __end_of_I2C1_MasterWriteTRBBuild 1FC8  
                               ___aodiv@divisor 0010                                 ___aodiv@counter 0018  
                     ??_EUSART1_SetErrorHandler 000A                           ReadTemperature@status 001A  
                   _EUSART1_DefaultErrorHandler 000000                             I2C1_ISR@i2c_address 0055  
                                      __ptext10 2158                                        __ptext11 1FC8  
                                      __ptext20 21AE                                        __ptext12 1958  
                                      __ptext21 21B8                                        __ptext13 17D0  
                                      __ptext22 21C2                                        __ptext14 216E  
                                      __ptext31 1016                                        __ptext23 1CDC  
                                      __ptext15 2048                                        __ptext32 1EF6  
                                      __ptext24 1DAC                                        __ptext16 2196  
                                      __ptext33 213A                                        __ptext25 1F84  
                                      __ptext17 21CC                                        __ptext34 21D0  
                                      __ptext26 1E04                                        __ptext18 20BC  
                                      __ptext27 1ABC                                        __ptext19 2008  
                                      __ptext28 2184                                        __ptext29 1E5C  
                                  _SSP1CON1bits 000FC6                                    _SSP1CON2bits 000FC5  
                                 __size_of_main 004A                                   __size_of_dtoa 02DE  
                 I2C1_MasterReadTRBBuild@length 000C                           I2C1_MasterRead@length 0013  
                          _I2C1_MasterTRBInsert 1ABC                                        _tempSign 0074  
EUSART1_SetOverrunErrorHandler@interruptHandler 0008                                        int$flags 0057  
                                      _vfprintf 1D48              __end_of_INTERRUPT_InterruptManager 0074  
                    _INTERRUPT_InterruptManager 0008                                       printf@fmt 00B6  
                   _EUSART1_FramingErrorHandler 00C4                                ___aomod@dividend 0008  
                                    _INTCONbits 000FF2                          ??_INTERRUPT_Initialize 0008  
                                      intlevel2 0000                         ?_PIN_MANAGER_Initialize 0001  
                      __end_of_I2C1_MasterWrite 1E04                  __size_of_I2C1_FunctionComplete 001E  
        __end_of_EUSART1_SetOverrunErrorHandler 21B8         __size_of_EUSART1_SetOverrunErrorHandler 000A  
                _EUSART1_SetOverrunErrorHandler 21AE                                      _RCSTA1bits 000FAB  
                 __end_of_I2C1_FunctionComplete 2158                           ?_I2C1_MasterTRBInsert 0008  
                      ?_I2C1_MasterReadTRBBuild 0008                                        printf@ap 00BC  
EUSART1_SetFramingErrorHandler@interruptHandler 0008                                 ___aomod@divisor 0010  
                                   ??_vfpfcnvrt 00A4                        __size_of_I2C1_MasterRead 0058  
                               ___aomod@counter 0018                        __size_of_I2C1_Initialize 0034  
                        __size_of_EUSART1_Write 0016                              _eusart1RxLastError 0073  
                      _I2C1_MasterWriteTRBBuild 1F84                               __CFG_T3CMX$PORTC0 000000  
                                  ___aodiv@sign 0019                  __end_of_PIN_MANAGER_Initialize 2086  
                            __size_of_I2C1_Stop 004A                               __CFG_FOSC$INTIO67 000000  
                                  ___aomod@sign 0019  
