

Microchip MPLAB XC8 Assembler V2.10 build 88905656 
                                                                                               Wed Nov 13 17:25:57 2019

Microchip MPLAB XC8 C Compiler v2.10 (Free license) build 20190730164152 Og1 
     1                           	processor	18F46K22
     2                           	fnconf	rparam,??,?,0
     3                           	opt	pw 120
     4                           	opt	flic
     5                           	psect	nvBANK1,global,class=BANK1,space=1,delta=1,lowdata,noexec
     6                           	psect	smallconst,global,reloc=2,class=SMALLCONST,delta=1,noexec
     7                           	psect	cinit,global,reloc=2,class=CODE,delta=1
     8                           	psect	bssCOMRAM,global,class=COMRAM,space=1,delta=1,noexec
     9                           	psect	bssBANK0,global,class=BANK0,space=1,delta=1,lowdata,noexec
    10                           	psect	bssBANK1,global,class=BANK1,space=1,delta=1,lowdata,noexec
    11                           	psect	cstackBANK1,global,class=BANK1,space=1,delta=1,noexec
    12                           	psect	cstackBANK0,global,class=BANK0,space=1,delta=1,noexec
    13                           	psect	cstackCOMRAM,global,class=COMRAM,space=1,delta=1,noexec
    14                           	psect	text0,global,reloc=2,class=CODE,delta=1
    15                           	psect	text1,global,reloc=2,class=CODE,delta=1,group=2
    16                           	psect	text2,global,reloc=2,class=CODE,delta=1,group=2
    17                           	psect	text3,global,reloc=2,class=CODE,delta=1
    18                           	psect	text4,global,reloc=2,class=CODE,delta=1
    19                           	psect	text5,global,reloc=2,class=CODE,delta=1,group=2
    20                           	psect	text6,global,reloc=2,class=CODE,delta=1
    21                           	psect	text7,global,reloc=2,class=CODE,delta=1,group=2
    22                           	psect	text8,global,reloc=2,class=CODE,delta=1,group=2
    23                           	psect	text9,global,reloc=2,class=CODE,delta=1,group=2
    24                           	psect	text10,global,reloc=2,class=CODE,delta=1
    25                           	psect	text11,global,reloc=2,class=CODE,delta=1,group=2
    26                           	psect	text12,global,reloc=2,class=CODE,delta=1,group=2
    27                           	psect	text13,global,reloc=2,class=CODE,delta=1,group=2
    28                           	psect	text14,global,reloc=2,class=CODE,delta=1
    29                           	psect	text15,global,reloc=2,class=CODE,delta=1
    30                           	psect	text16,global,reloc=2,class=CODE,delta=1,group=2
    31                           	psect	text17,global,reloc=2,class=CODE,delta=1,group=2
    32                           	psect	text18,global,reloc=2,class=CODE,delta=1,group=1
    33                           	psect	text19,global,reloc=2,class=CODE,delta=1,group=1
    34                           	psect	text20,global,reloc=2,class=CODE,delta=1,group=1
    35                           	psect	text21,global,reloc=2,class=CODE,delta=1,group=1
    36                           	psect	text22,global,reloc=2,class=CODE,delta=1,group=1
    37                           	psect	text23,global,reloc=2,class=CODE,delta=1,group=1
    38                           	psect	text24,global,reloc=2,class=CODE,delta=1,group=1
    39                           	psect	text25,global,reloc=2,class=CODE,delta=1,group=1
    40                           	psect	text26,global,reloc=2,class=CODE,delta=1,group=1
    41                           	psect	text27,global,reloc=2,class=CODE,delta=1,group=1
    42                           	psect	text28,global,reloc=2,class=CODE,delta=1,group=2
    43                           	psect	text29,global,reloc=2,class=CODE,delta=1,group=2
    44                           	psect	text30,global,reloc=2,class=CODE,delta=1,group=2
    45                           	psect	text31,global,reloc=2,class=CODE,delta=1,group=1
    46                           	psect	text32,global,reloc=2,class=CODE,delta=1,group=1
    47                           	psect	text33,global,reloc=2,class=CODE,delta=1
    48                           	psect	text34,global,reloc=2,class=CODE,delta=1
    49                           	psect	text35,global,reloc=2,class=CODE,delta=1
    50                           	psect	text36,global,reloc=2,class=CODE,delta=1
    51                           	psect	text37,global,reloc=2,class=CODE,delta=1
    52                           	psect	text38,global,reloc=2,class=CODE,delta=1
    53                           	psect	text39,global,reloc=2,class=CODE,delta=1
    54                           	psect	text40,global,reloc=2,class=CODE,delta=1
    55                           	psect	text41,global,reloc=2,class=CODE,delta=1
    56                           	psect	text42,global,reloc=2,class=CODE,delta=1
    57                           	psect	text43,global,reloc=2,class=CODE,delta=1
    58                           	psect	text44,global,reloc=2,class=CODE,delta=1
    59                           	psect	text45,global,reloc=2,class=CODE,delta=1
    60                           	psect	text46,global,reloc=2,class=CODE,delta=1
    61                           	psect	text47,global,reloc=2,class=CODE,delta=1
    62                           	psect	text48,global,reloc=2,class=CODE,delta=1
    63                           	psect	text49,global,reloc=2,class=CODE,delta=1
    64                           	psect	text50,global,reloc=2,class=CODE,delta=1
    65                           	psect	text51,global,reloc=2,class=CODE,delta=1
    66                           	psect	text52,global,reloc=2,class=CODE,delta=1
    67                           	psect	text53,global,reloc=2,class=CODE,delta=1
    68                           	psect	text54,global,reloc=2,class=CODE,delta=1
    69                           	psect	intcode,global,reloc=2,class=CODE,delta=1
    70                           	psect	text56,global,reloc=2,class=CODE,delta=1
    71                           	psect	text57,global,reloc=2,class=CODE,delta=1
    72                           	psect	text58,global,reloc=2,class=CODE,delta=1
    73                           	psect	text59,global,reloc=2,class=CODE,delta=1
    74                           	psect	intsave_regs,global,class=BIGRAM,space=1,delta=1,noexec
    75                           	psect	rparam,global,class=COMRAM,space=1,delta=1,noexec
    76                           	psect	temp,global,ovrld,common,class=COMRAM,space=1,delta=1
    77  0000                     
    78                           ; Version 2.10
    79                           ; Generated 31/07/2019 GMT
    80                           ; 
    81                           ; Copyright © 2019, Microchip Technology Inc. and its subsidiaries ("Microchip")
    82                           ; All rights reserved.
    83                           ; 
    84                           ; This software is developed by Microchip Technology Inc. and its subsidiaries ("Microch
      +                          ip").
    85                           ; 
    86                           ; Redistribution and use in source and binary forms, with or without modification, are
    87                           ; permitted provided that the following conditions are met:
    88                           ; 
    89                           ;     1. Redistributions of source code must retain the above copyright notice, this lis
      +                          t of
    90                           ;        conditions and the following disclaimer.
    91                           ; 
    92                           ;     2. Redistributions in binary form must reproduce the above copyright notice, this 
      +                          list
    93                           ;        of conditions and the following disclaimer in the documentation and/or other
    94                           ;        materials provided with the distribution.
    95                           ; 
    96                           ;     3. Microchip's name may not be used to endorse or promote products derived from th
      +                          is
    97                           ;        software without specific prior written permission.
    98                           ; 
    99                           ; THIS SOFTWARE IS PROVIDED BY MICROCHIP "AS IS" AND ANY EXPRESS OR IMPLIED WARRANTIES,
   100                           ; INCLUDING, BUT NOT LIMITED TO, THE IMPLIED WARRANTIES OF MERCHANTABILITY AND FITNESS F
      +                          OR
   101                           ; PURPOSE ARE DISCLAIMED.  IN NO EVENT SHALL MICROCHIP BE LIABLE FOR ANY DIRECT, INDIREC
      +                          T,
   102                           ; INCIDENTAL, SPECIAL, EXEMPLARY, OR CONSEQUENTIAL DAMAGES (INCLUDING BUT NOT LIMITED TO
   103                           ; PROCUREMENT OF SUBSTITUTE GOODS OR SERVICES; LOSS OF USE, DATA OR PROFITS; OR BUSINESS
   104                           ; INTERRUPTION) HOWSOEVER CAUSED AND ON ANY THEORY OF LIABILITY, WHETHER IN CONTRACT, ST
      +                          RICT
   105                           ; LIABILITY, OR TORT (INCLUDING NEGLIGENCE OR OTHERWISE) ARISING IN ANY WAY OUT OF THE U
      +                          SE OF
   106                           ; THIS SOFTWARE, EVEN IF ADVISED OF THE POSSIBILITY OF SUCH DAMAGE.
   107                           ; 
   108                           ; 
   109                           ; Code-generator required, PIC18F46K22 Definitions
   110                           ; 
   111                           ; SFR Addresses
   112  0000                     
   113 ;; Function _EUSART1_DefaultFramingErrorHandler is unused but had its address taken
   114  0000                     
   115 ;; Function _EUSART1_DefaultOverrunErrorHandler is unused but had its address taken
   116  0000                     
   117 ;; Function _EUSART1_DefaultErrorHandler is unused but had its address taken
   118  0000                     
   119                           	psect	nvBANK1
   120  000180                     __pnvBANK1:
   121                           	opt callstack 0
   122  000180                     _EUSART1_ErrorHandler:
   123                           	opt callstack 0
   124  000180                     	ds	2
   125  000182                     _EUSART1_OverrunErrorHandler:
   126                           	opt callstack 0
   127  000182                     	ds	2
   128  000184                     _EUSART1_FramingErrorHandler:
   129                           	opt callstack 0
   130  000184                     	ds	2
   131  0000                     _ANSELA	set	3896
   132  0000                     _ANSELE	set	3900
   133  0000                     _ANSELB	set	3897
   134  0000                     _ANSELC	set	3898
   135  0000                     _ANSELD	set	3899
   136  0000                     _TXREG1	set	4013
   137  0000                     _RCREG1	set	4014
   138  0000                     _RCSTA1bits	set	4011
   139  0000                     _TXSTA1bits	set	4012
   140  0000                     _SPBRGH1	set	4016
   141  0000                     _SPBRG1	set	4015
   142  0000                     _TXSTA1	set	4012
   143  0000                     _RCSTA1	set	4011
   144  0000                     _BAUDCON1	set	4024
   145  0000                     _SSP1ADD	set	4040
   146  0000                     _SSP1CON3	set	4043
   147  0000                     _SSP1CON1	set	4038
   148  0000                     _SSP1STAT	set	4039
   149  0000                     _PIR1bits	set	3998
   150  0000                     _PIE1bits	set	3997
   151  0000                     _PIR2bits	set	4001
   152  0000                     _PIE2bits	set	4000
   153  0000                     _RCONbits	set	4048
   154  0000                     _PORTBbits	set	3969
   155  0000                     _PORTB	set	3969
   156  0000                     _SSPCON2bits	set	4037
   157  0000                     _SSP1CON1bits	set	4038
   158  0000                     _SSP1BUF	set	4041
   159  0000                     _SSP1CON2bits	set	4037
   160  0000                     _SSP1STATbits	set	4039
   161  0000                     _SSP1CON2	set	4037
   162  0000                     _INTCONbits	set	4082
   163  0000                     _INTCON2bits	set	4081
   164  0000                     _WPUB	set	3937
   165  0000                     _TRISD	set	3989
   166  0000                     _TRISC	set	3988
   167  0000                     _TRISB	set	3987
   168  0000                     _TRISA	set	3986
   169  0000                     _TRISE	set	3990
   170  0000                     _LATC	set	3979
   171  0000                     _LATB	set	3978
   172  0000                     _LATA	set	3977
   173  0000                     _LATD	set	3980
   174  0000                     _LATE	set	3981
   175  0000                     _OSCTUNE	set	3995
   176  0000                     _OSCCON2	set	4050
   177  0000                     _OSCCON	set	4051
   178                           
   179                           	psect	smallconst
   180  001000                     __psmallconst:
   181                           	opt callstack 0
   182  001000  00                 	db	0
   183  001001                     STR_5:
   184  001001  41                 	db	65	;'A'
   185  001002  44                 	db	68	;'D'
   186  001003  43                 	db	67	;'C'
   187  001004  20                 	db	32
   188  001005  43                 	db	67	;'C'
   189  001006  6F                 	db	111	;'o'
   190  001007  6E                 	db	110	;'n'
   191  001008  76                 	db	118	;'v'
   192  001009  65                 	db	101	;'e'
   193  00100A  72                 	db	114	;'r'
   194  00100B  73                 	db	115	;'s'
   195  00100C  69                 	db	105	;'i'
   196  00100D  6F                 	db	111	;'o'
   197  00100E  6E                 	db	110	;'n'
   198  00100F  0A                 	db	10
   199  001010  0D                 	db	13
   200  001011  00                 	db	0
   201  001012                     STR_6:
   202  001012  56                 	db	86	;'V'
   203  001013  6F                 	db	111	;'o'
   204  001014  6C                 	db	108	;'l'
   205  001015  74                 	db	116	;'t'
   206  001016  61                 	db	97	;'a'
   207  001017  67                 	db	103	;'g'
   208  001018  65                 	db	101	;'e'
   209  001019  3D                 	db	61	;'='
   210  00101A  20                 	db	32
   211  00101B  25                 	db	37
   212  00101C  66                 	db	102	;'f'
   213  00101D  20                 	db	32
   214  00101E  56                 	db	86	;'V'
   215  00101F  0A                 	db	10
   216  001020  0D                 	db	13
   217  001021  00                 	db	0
   218  001022                     STR_1:
   219  001022  41                 	db	65	;'A'
   220  001023  44                 	db	68	;'D'
   221  001024  43                 	db	67	;'C'
   222  001025  20                 	db	32
   223  001026  43                 	db	67	;'C'
   224  001027  6F                 	db	111	;'o'
   225  001028  6E                 	db	110	;'n'
   226  001029  76                 	db	118	;'v'
   227  00102A  65                 	db	101	;'e'
   228  00102B  72                 	db	114	;'r'
   229  00102C  73                 	db	115	;'s'
   230  00102D  69                 	db	105	;'i'
   231  00102E  6F                 	db	111	;'o'
   232  00102F  6E                 	db	110	;'n'
   233  001030  00                 	db	0
   234  001031                     STR_2:
   235  001031  56                 	db	86	;'V'
   236  001032  6F                 	db	111	;'o'
   237  001033  6C                 	db	108	;'l'
   238  001034  74                 	db	116	;'t'
   239  001035  61                 	db	97	;'a'
   240  001036  67                 	db	103	;'g'
   241  001037  65                 	db	101	;'e'
   242  001038  3D                 	db	61	;'='
   243  001039  20                 	db	32
   244  00103A  00                 	db	0
   245  00103B                     STR_3:
   246  00103B  20                 	db	32
   247  00103C  25                 	db	37
   248  00103D  2E                 	db	46
   249  00103E  33                 	db	51	;'3'
   250  00103F  67                 	db	103	;'g'
   251  001040  00                 	db	0
   252  001041                     STR_7:
   253  001041  49                 	db	73	;'I'
   254  001042  4E                 	db	78	;'N'
   255  001043  46                 	db	70	;'F'
   256  001044  00                 	db	0
   257  001045                     STR_11:
   258  001045  4E                 	db	78	;'N'
   259  001046  41                 	db	65	;'A'
   260  001047  4E                 	db	78	;'N'
   261  001048  00                 	db	0
   262  001049                     STR_8:
   263  001049  69                 	db	105	;'i'
   264  00104A  6E                 	db	110	;'n'
   265  00104B  66                 	db	102	;'f'
   266  00104C  00                 	db	0
   267  00104D                     STR_12:
   268  00104D  6E                 	db	110	;'n'
   269  00104E  61                 	db	97	;'a'
   270  00104F  6E                 	db	110	;'n'
   271  001050  00                 	db	0
   272  001051                     STR_15:
   273  001051  6C                 	db	108	;'l'
   274  001052  66                 	db	102	;'f'
   275  001053  00                 	db	0
   276  001054                     STR_20:
   277  001054  6C                 	db	108	;'l'
   278  001055  67                 	db	103	;'g'
   279  001056  00                 	db	0
   280  001057                     STR_4:
   281  001057  20                 	db	32
   282  001058  20                 	db	32
   283  001059  00                 	db	0
   284  0000                     
   285                           ; #config settings
   286  00105A  00                 	db	0	; dummy byte at the end
   287  0000                     
   288                           	psect	cinit
   289  004612                     __pcinit:
   290                           	opt callstack 0
   291  004612                     start_initialization:
   292                           	opt callstack 0
   293  004612                     __initialization:
   294                           	opt callstack 0
   295                           
   296                           ; Clear objects allocated to BANK1 (118 bytes)
   297  004612  EE01  F000         	lfsr	0,__pbssBANK1
   298  004616  0E76               	movlw	118
   299  004618                     clear_0:
   300  004618  6AEE               	clrf	postinc0,c
   301  00461A  06E8               	decf	wreg,f,c
   302  00461C  E1FD               	bnz	clear_0
   303                           
   304                           ; Clear objects allocated to BANK0 (35 bytes)
   305  00461E  EE00  F0DC         	lfsr	0,__pbssBANK0
   306  004622  0E23               	movlw	35
   307  004624                     clear_1:
   308  004624  6AEE               	clrf	postinc0,c
   309  004626  06E8               	decf	wreg,f,c
   310  004628  E1FD               	bnz	clear_1
   311                           
   312                           ; Clear objects allocated to COMRAM (8 bytes)
   313  00462A  EE00  F050         	lfsr	0,__pbssCOMRAM
   314  00462E  0E08               	movlw	8
   315  004630                     clear_2:
   316  004630  6AEE               	clrf	postinc0,c
   317  004632  06E8               	decf	wreg,f,c
   318  004634  E1FD               	bnz	clear_2
   319  004636                     end_of_initialization:
   320                           	opt callstack 0
   321  004636                     __end_of__initialization:
   322                           	opt callstack 0
   323  004636  9058               	bcf	int$flags,0,c	;clear compiler interrupt flag (level 1)
   324  004638  9258               	bcf	int$flags,1,c	;clear compiler interrupt flag (level 2)
   325  00463A  0100               	movlb	0
   326  00463C  EF91  F01B         	goto	_main	;jump to C main() function
   327                           
   328                           	psect	bssCOMRAM
   329  000050                     __pbssCOMRAM:
   330                           	opt callstack 0
   331  000050                     _flags:
   332                           	opt callstack 0
   333  000050                     	ds	2
   334  000052                     I2C1_ISR@i2c_10bit_address_restart:
   335                           	opt callstack 0
   336  000052                     	ds	1
   337  000053                     I2C1_ISR@i2c_bytes_left:
   338                           	opt callstack 0
   339  000053                     	ds	1
   340  000054                     _i2c1_trb_count:
   341                           	opt callstack 0
   342  000054                     	ds	1
   343  000055                     _i2c1_state:
   344                           	opt callstack 0
   345  000055                     	ds	1
   346  000056                     I2C1_ISR@i2c_address:
   347                           	opt callstack 0
   348  000056                     	ds	2
   349                           
   350                           	psect	bssBANK0
   351  0000DC                     __pbssBANK0:
   352                           	opt callstack 0
   353  0000DC                     _i2c1_object:
   354                           	opt callstack 0
   355  0000DC                     	ds	7
   356  0000E3                     ___fpclassifyf@F463:
   357                           	opt callstack 0
   358  0000E3                     	ds	4
   359  0000E7                     _Voltage:
   360                           	opt callstack 0
   361  0000E7                     	ds	4
   362  0000EB                     _nout:
   363                           	opt callstack 0
   364  0000EB                     	ds	2
   365  0000ED                     _width:
   366                           	opt callstack 0
   367  0000ED                     	ds	2
   368  0000EF                     _prec:
   369                           	opt callstack 0
   370  0000EF                     	ds	2
   371  0000F1                     I2C1_ISR@pi2c_buf_ptr:
   372                           	opt callstack 0
   373  0000F1                     	ds	2
   374  0000F3                     _p_i2c1_current:
   375                           	opt callstack 0
   376  0000F3                     	ds	2
   377  0000F5                     _p_i2c1_trb_current:
   378                           	opt callstack 0
   379  0000F5                     	ds	2
   380  0000F7                     _val:
   381                           	opt callstack 0
   382  0000F7                     	ds	2
   383  0000F9                     _eusart1RxLastError:
   384                           	opt callstack 0
   385  0000F9                     	ds	1
   386  0000FA                     _i2c1_tr_queue:
   387                           	opt callstack 0
   388  0000FA                     	ds	5
   389                           
   390                           	psect	bssBANK1
   391  000100                     __pbssBANK1:
   392                           	opt callstack 0
   393  000100                     floorf@F524:
   394                           	opt callstack 0
   395  000100                     	ds	4
   396  000104                     _converted_Value:
   397                           	opt callstack 0
   398  000104                     	ds	4
   399  000108                     _dbuf:
   400                           	opt callstack 0
   401  000108                     	ds	80
   402  000158                     _Buffer:
   403                           	opt callstack 0
   404  000158                     	ds	20
   405  00016C                     I2C1_MasterRead@trBlock:
   406                           	opt callstack 0
   407  00016C                     	ds	5
   408  000171                     I2C1_MasterWrite@trBlock:
   409                           	opt callstack 0
   410  000171                     	ds	5
   411                           
   412                           	psect	cstackBANK1
   413  000176                     __pcstackBANK1:
   414                           	opt callstack 0
   415  000176                     	ds	2
   416  000178                     sprintf@ap:
   417                           	opt callstack 0
   418                           
   419                           ; 2 bytes @ 0x2
   420  000178                     	ds	2
   421  00017A                     sprintf@f:
   422                           	opt callstack 0
   423                           
   424                           ; 6 bytes @ 0x4
   425  00017A                     	ds	6
   426                           
   427                           	psect	cstackBANK0
   428  000060                     __pcstackBANK0:
   429                           	opt callstack 0
   430  000060                     ??_floorf:
   431                           
   432                           ; 1 bytes @ 0x0
   433  000060                     	ds	6
   434  000066                     floorf@m:
   435                           	opt callstack 0
   436                           
   437                           ; 4 bytes @ 0x6
   438  000066                     	ds	4
   439  00006A                     floorf@e:
   440                           	opt callstack 0
   441                           
   442                           ; 2 bytes @ 0xA
   443  00006A                     	ds	2
   444  00006C                     floorf@u:
   445                           	opt callstack 0
   446                           
   447                           ; 4 bytes @ 0xC
   448  00006C                     	ds	4
   449  000070                     ?_efgtoa:
   450                           	opt callstack 0
   451  000070                     efgtoa@fp:
   452                           	opt callstack 0
   453                           
   454                           ; 2 bytes @ 0x10
   455  000070                     	ds	2
   456  000072                     efgtoa@f:
   457                           	opt callstack 0
   458                           
   459                           ; 4 bytes @ 0x12
   460  000072                     	ds	4
   461  000076                     efgtoa@c:
   462                           	opt callstack 0
   463                           
   464                           ; 1 bytes @ 0x16
   465  000076                     	ds	1
   466  000077                     ??_efgtoa:
   467                           
   468                           ; 1 bytes @ 0x17
   469  000077                     	ds	5
   470  00007C                     efgtoa@ou:
   471                           	opt callstack 0
   472                           
   473                           ; 4 bytes @ 0x1C
   474  00007C                     	ds	4
   475  000080                     _efgtoa$1746:
   476                           	opt callstack 0
   477                           
   478                           ; 2 bytes @ 0x20
   479  000080                     	ds	2
   480  000082                     _efgtoa$1747:
   481                           	opt callstack 0
   482                           
   483                           ; 2 bytes @ 0x22
   484  000082                     	ds	2
   485  000084                     _efgtoa$1752:
   486                           	opt callstack 0
   487                           
   488                           ; 2 bytes @ 0x24
   489  000084                     	ds	2
   490  000086                     _efgtoa$1756:
   491                           	opt callstack 0
   492                           
   493                           ; 2 bytes @ 0x26
   494  000086                     	ds	2
   495  000088                     _efgtoa$1757:
   496                           	opt callstack 0
   497                           
   498                           ; 2 bytes @ 0x28
   499  000088                     	ds	2
   500  00008A                     _efgtoa$1758:
   501                           	opt callstack 0
   502                           
   503                           ; 2 bytes @ 0x2A
   504  00008A                     	ds	2
   505  00008C                     efgtoa@t:
   506                           	opt callstack 0
   507                           
   508                           ; 2 bytes @ 0x2C
   509  00008C                     	ds	2
   510  00008E                     efgtoa@pp:
   511                           	opt callstack 0
   512                           
   513                           ; 2 bytes @ 0x2E
   514  00008E                     	ds	2
   515  000090                     efgtoa@m:
   516                           	opt callstack 0
   517                           
   518                           ; 2 bytes @ 0x30
   519  000090                     	ds	2
   520  000092                     efgtoa@ne:
   521                           	opt callstack 0
   522                           
   523                           ; 2 bytes @ 0x32
   524  000092                     	ds	2
   525  000094                     efgtoa@d:
   526                           	opt callstack 0
   527                           
   528                           ; 2 bytes @ 0x34
   529  000094                     	ds	2
   530  000096                     efgtoa@sign:
   531                           	opt callstack 0
   532                           
   533                           ; 2 bytes @ 0x36
   534  000096                     	ds	2
   535  000098                     efgtoa@p:
   536                           	opt callstack 0
   537                           
   538                           ; 2 bytes @ 0x38
   539  000098                     	ds	2
   540  00009A                     efgtoa@nmode:
   541                           	opt callstack 0
   542                           
   543                           ; 1 bytes @ 0x3A
   544  00009A                     	ds	1
   545  00009B                     efgtoa@w:
   546                           	opt callstack 0
   547                           
   548                           ; 2 bytes @ 0x3B
   549  00009B                     	ds	2
   550  00009D                     efgtoa@mode:
   551                           	opt callstack 0
   552                           
   553                           ; 1 bytes @ 0x3D
   554  00009D                     	ds	1
   555  00009E                     efgtoa@h:
   556                           	opt callstack 0
   557                           
   558                           ; 4 bytes @ 0x3E
   559  00009E                     	ds	4
   560  0000A2                     efgtoa@l:
   561                           	opt callstack 0
   562                           
   563                           ; 4 bytes @ 0x42
   564  0000A2                     	ds	4
   565  0000A6                     efgtoa@i:
   566                           	opt callstack 0
   567                           
   568                           ; 2 bytes @ 0x46
   569  0000A6                     	ds	2
   570  0000A8                     efgtoa@g:
   571                           	opt callstack 0
   572                           
   573                           ; 4 bytes @ 0x48
   574  0000A8                     	ds	4
   575  0000AC                     efgtoa@e:
   576                           	opt callstack 0
   577                           
   578                           ; 2 bytes @ 0x4C
   579  0000AC                     	ds	2
   580  0000AE                     efgtoa@n:
   581                           	opt callstack 0
   582                           
   583                           ; 2 bytes @ 0x4E
   584  0000AE                     	ds	2
   585  0000B0                     efgtoa@u:
   586                           	opt callstack 0
   587                           
   588                           ; 4 bytes @ 0x50
   589  0000B0                     	ds	4
   590  0000B4                     ?_vfpfcnvrt:
   591                           	opt callstack 0
   592  0000B4                     vfpfcnvrt@fp:
   593                           	opt callstack 0
   594                           
   595                           ; 2 bytes @ 0x54
   596  0000B4                     	ds	2
   597  0000B6                     vfpfcnvrt@fmt:
   598                           	opt callstack 0
   599                           
   600                           ; 2 bytes @ 0x56
   601  0000B6                     	ds	2
   602  0000B8                     vfpfcnvrt@ap:
   603                           	opt callstack 0
   604                           
   605                           ; 2 bytes @ 0x58
   606  0000B8                     	ds	2
   607  0000BA                     _vfpfcnvrt$1772:
   608                           	opt callstack 0
   609                           
   610                           ; 2 bytes @ 0x5A
   611  0000BA                     	ds	2
   612  0000BC                     _vfpfcnvrt$1776:
   613                           	opt callstack 0
   614                           
   615                           ; 2 bytes @ 0x5C
   616  0000BC                     	ds	2
   617  0000BE                     _vfpfcnvrt$1780:
   618                           	opt callstack 0
   619                           
   620                           ; 2 bytes @ 0x5E
   621  0000BE                     	ds	2
   622  0000C0                     vfpfcnvrt@ct:
   623                           	opt callstack 0
   624                           
   625                           ; 3 bytes @ 0x60
   626  0000C0                     	ds	3
   627  0000C3                     vfpfcnvrt@c:
   628                           	opt callstack 0
   629                           
   630                           ; 1 bytes @ 0x63
   631  0000C3                     	ds	1
   632  0000C4                     vfpfcnvrt@f:
   633                           	opt callstack 0
   634                           
   635                           ; 4 bytes @ 0x64
   636  0000C4                     	ds	4
   637  0000C8                     ?_vfprintf:
   638                           	opt callstack 0
   639  0000C8                     vfprintf@fp:
   640                           	opt callstack 0
   641                           
   642                           ; 2 bytes @ 0x68
   643  0000C8                     	ds	2
   644  0000CA                     vfprintf@fmt:
   645                           	opt callstack 0
   646                           
   647                           ; 2 bytes @ 0x6A
   648  0000CA                     	ds	2
   649  0000CC                     vfprintf@ap:
   650                           	opt callstack 0
   651                           
   652                           ; 2 bytes @ 0x6C
   653  0000CC                     	ds	2
   654  0000CE                     vfprintf@cfmt:
   655                           	opt callstack 0
   656                           
   657                           ; 2 bytes @ 0x6E
   658  0000CE                     	ds	2
   659  0000D0                     ?_sprintf:
   660                           	opt callstack 0
   661  0000D0                     ?_printf:
   662                           	opt callstack 0
   663  0000D0                     sprintf@s:
   664                           	opt callstack 0
   665  0000D0                     printf@fmt:
   666                           	opt callstack 0
   667                           
   668                           ; 2 bytes @ 0x70
   669  0000D0                     	ds	2
   670  0000D2                     sprintf@fmt:
   671                           	opt callstack 0
   672                           
   673                           ; 2 bytes @ 0x72
   674  0000D2                     	ds	6
   675  0000D8                     printf@ap:
   676                           	opt callstack 0
   677                           
   678                           ; 2 bytes @ 0x78
   679  0000D8                     	ds	2
   680  0000DA                     ??_main:
   681                           
   682                           ; 1 bytes @ 0x7A
   683  0000DA                     	ds	2
   684                           
   685                           	psect	cstackCOMRAM
   686  000001                     __pcstackCOMRAM:
   687                           	opt callstack 0
   688  000001                     ??_I2C1_Stop:
   689  000001                     
   690                           ; 1 bytes @ 0x0
   691  000001                     	ds	2
   692  000003                     I2C1_Stop@completion_code:
   693                           	opt callstack 0
   694                           
   695                           ; 1 bytes @ 0x2
   696  000003                     	ds	1
   697  000004                     ??_I2C1_ISR:
   698                           
   699                           ; 1 bytes @ 0x3
   700  000004                     	ds	2
   701  000006                     ??_INTERRUPT_InterruptManager:
   702                           
   703                           ; 1 bytes @ 0x5
   704  000006                     	ds	2
   705  000008                     ??_i2c_idle:
   706  000008                     ?_strlen:
   707                           	opt callstack 0
   708  000008                     ?___fpclassifyf:
   709                           	opt callstack 0
   710  000008                     ?_isupper:
   711                           	opt callstack 0
   712  000008                     ?_isdigit:
   713                           	opt callstack 0
   714  000008                     ?_strncmp:
   715                           	opt callstack 0
   716  000008                     ?_isspace:
   717                           	opt callstack 0
   718  000008                     ?___wmul:
   719                           	opt callstack 0
   720  000008                     ?___awdiv:
   721                           	opt callstack 0
   722  000008                     ?___awmod:
   723                           	opt callstack 0
   724  000008                     ?___fladd:
   725                           	opt callstack 0
   726  000008                     ?___flneg:
   727                           	opt callstack 0
   728  000008                     ?___fltol:
   729                           	opt callstack 0
   730  000008                     ?___xxtofl:
   731                           	opt callstack 0
   732  000008                     i2c_master_ack@ack_type:
   733                           	opt callstack 0
   734  000008                     LCDWriteNibble@rs:
   735                           	opt callstack 0
   736  000008                     EUSART1_Write@txData:
   737                           	opt callstack 0
   738  000008                     EUSART1_SetFramingErrorHandler@interruptHandler:
   739                           	opt callstack 0
   740  000008                     EUSART1_SetOverrunErrorHandler@interruptHandler:
   741                           	opt callstack 0
   742  000008                     EUSART1_SetErrorHandler@interruptHandler:
   743                           	opt callstack 0
   744  000008                     ___wmul@multiplier:
   745                           	opt callstack 0
   746  000008                     ___awdiv@dividend:
   747                           	opt callstack 0
   748  000008                     ___awmod@dividend:
   749                           	opt callstack 0
   750  000008                     isdigit@c:
   751                           	opt callstack 0
   752  000008                     isspace@c:
   753                           	opt callstack 0
   754  000008                     isupper@c:
   755                           	opt callstack 0
   756  000008                     strcpy@dest:
   757                           	opt callstack 0
   758  000008                     strlen@s:
   759                           	opt callstack 0
   760  000008                     strncmp@_l:
   761                           	opt callstack 0
   762  000008                     ___fleq@ff1:
   763                           	opt callstack 0
   764  000008                     ___flneg@f1:
   765                           	opt callstack 0
   766  000008                     ___fltol@f1:
   767                           	opt callstack 0
   768  000008                     ___fladd@b:
   769                           	opt callstack 0
   770  000008                     ___xxtofl@val:
   771                           	opt callstack 0
   772  000008                     ___fpclassifyf@x:
   773                           	opt callstack 0
   774                           
   775                           ; 4 bytes @ 0x7
   776  000008                     	ds	1
   777  000009                     i2c_start@stype:
   778                           	opt callstack 0
   779  000009                     i2c_write@data45:
   780                           	opt callstack 0
   781  000009                     LCDWriteNibble@ch:
   782                           	opt callstack 0
   783  000009                     putch@txData:
   784                           	opt callstack 0
   785                           
   786                           ; 1 bytes @ 0x8
   787  000009                     	ds	1
   788  00000A                     ??_LCDPutCmd:
   789  00000A                     ??_isupper:
   790  00000A                     ??_isdigit:
   791  00000A                     ??_isspace:
   792  00000A                     ??_LCDPutChar:
   793  00000A                     ?_Read_MCP3221:
   794                           	opt callstack 0
   795  00000A                     ___wmul@multiplicand:
   796                           	opt callstack 0
   797  00000A                     ___awdiv@divisor:
   798                           	opt callstack 0
   799  00000A                     ___awmod@divisor:
   800                           	opt callstack 0
   801  00000A                     fputc@c:
   802                           	opt callstack 0
   803  00000A                     strcpy@src:
   804                           	opt callstack 0
   805  00000A                     strlen@a:
   806                           	opt callstack 0
   807  00000A                     strncmp@_r:
   808                           	opt callstack 0
   809                           
   810                           ; 2 bytes @ 0x9
   811  00000A                     	ds	1
   812  00000B                     LCDPutChar@ch:
   813                           	opt callstack 0
   814  00000B                     LCDPutCmd@ch:
   815                           	opt callstack 0
   816                           
   817                           ; 1 bytes @ 0xA
   818  00000B                     	ds	1
   819  00000C                     ??_LCD_Initialize:
   820  00000C                     ??___fpclassifyf:
   821  00000C                     ??_strcpy:
   822  00000C                     ??___fltol:
   823  00000C                     ??___xxtofl:
   824  00000C                     LCDGoto@ln:
   825                           	opt callstack 0
   826  00000C                     ___awdiv@counter:
   827                           	opt callstack 0
   828  00000C                     ___awmod@counter:
   829                           	opt callstack 0
   830  00000C                     Read_MCP3221@adcdata:
   831                           	opt callstack 0
   832  00000C                     LCDPutStr@str:
   833                           	opt callstack 0
   834  00000C                     ___wmul@product:
   835                           	opt callstack 0
   836  00000C                     fputc@fp:
   837                           	opt callstack 0
   838  00000C                     strncmp@n:
   839                           	opt callstack 0
   840  00000C                     ___fleq@ff2:
   841                           	opt callstack 0
   842  00000C                     ___fladd@a:
   843                           	opt callstack 0
   844                           
   845                           ; 4 bytes @ 0xB
   846  00000C                     	ds	1
   847  00000D                     ??_LCDGoto:
   848  00000D                     ___awdiv@sign:
   849                           	opt callstack 0
   850  00000D                     ___awmod@sign:
   851                           	opt callstack 0
   852                           
   853                           ; 1 bytes @ 0xC
   854  00000D                     	ds	1
   855  00000E                     ??_LCDPutStr:
   856  00000E                     ??_fputc:
   857  00000E                     ??_strncmp:
   858  00000E                     ?_tolower:
   859                           	opt callstack 0
   860  00000E                     Read_MCP3221@hidata:
   861                           	opt callstack 0
   862  00000E                     _isspace$2284:
   863                           	opt callstack 0
   864  00000E                     ___awdiv@quotient:
   865                           	opt callstack 0
   866  00000E                     strcpy@s:
   867                           	opt callstack 0
   868  00000E                     tolower@c:
   869                           	opt callstack 0
   870                           
   871                           ; 2 bytes @ 0xD
   872  00000E                     	ds	1
   873  00000F                     ?_atoi:
   874                           	opt callstack 0
   875  00000F                     Read_MCP3221@lodata:
   876                           	opt callstack 0
   877  00000F                     _LCDGoto$816:
   878                           	opt callstack 0
   879  00000F                     atoi@s:
   880                           	opt callstack 0
   881  00000F                     strncmp@l:
   882                           	opt callstack 0
   883                           
   884                           ; 2 bytes @ 0xE
   885  00000F                     	ds	1
   886  000010                     ??_tolower:
   887  000010                     ??___fladd:
   888  000010                     ??___fleq:
   889  000010                     LCDPutStr@i:
   890                           	opt callstack 0
   891  000010                     ___fltol@sign1:
   892                           	opt callstack 0
   893  000010                     ___xxtofl@sign:
   894                           	opt callstack 0
   895  000010                     ___fpclassifyf@e:
   896                           	opt callstack 0
   897  000010                     strcpy@d:
   898                           	opt callstack 0
   899                           
   900                           ; 2 bytes @ 0xF
   901  000010                     	ds	1
   902  000011                     ??_atoi:
   903  000011                     LCDGoto@pos:
   904                           	opt callstack 0
   905  000011                     ___fltol@exp1:
   906                           	opt callstack 0
   907  000011                     ___xxtofl@exp:
   908                           	opt callstack 0
   909  000011                     strncmp@r:
   910                           	opt callstack 0
   911                           
   912                           ; 2 bytes @ 0x10
   913  000011                     	ds	1
   914  000012                     ___xxtofl@arg:
   915                           	opt callstack 0
   916  000012                     ___fpclassifyf@u:
   917                           	opt callstack 0
   918                           
   919                           ; 4 bytes @ 0x11
   920  000012                     	ds	1
   921  000013                     fputs@s:
   922                           	opt callstack 0
   923                           
   924                           ; 2 bytes @ 0x12
   925  000013                     	ds	1
   926  000014                     ___fladd@signs:
   927                           	opt callstack 0
   928  000014                     _tolower$2374:
   929                           	opt callstack 0
   930                           
   931                           ; 2 bytes @ 0x13
   932  000014                     	ds	1
   933  000015                     ___fladd@aexp:
   934                           	opt callstack 0
   935  000015                     atoi@neg:
   936                           	opt callstack 0
   937  000015                     fputs@fp:
   938                           	opt callstack 0
   939                           
   940                           ; 2 bytes @ 0x14
   941  000015                     	ds	1
   942  000016                     ?___flmul:
   943                           	opt callstack 0
   944  000016                     ___fladd@bexp:
   945                           	opt callstack 0
   946  000016                     ___flmul@b:
   947                           	opt callstack 0
   948                           
   949                           ; 4 bytes @ 0x15
   950  000016                     	ds	1
   951  000017                     ___fladd@grs:
   952                           	opt callstack 0
   953  000017                     fputs@c:
   954                           	opt callstack 0
   955  000017                     _atoi$2253:
   956                           	opt callstack 0
   957                           
   958                           ; 2 bytes @ 0x16
   959  000017                     	ds	1
   960  000018                     fputs@i:
   961                           	opt callstack 0
   962                           
   963                           ; 2 bytes @ 0x17
   964  000018                     	ds	1
   965  000019                     _atoi$2255:
   966                           	opt callstack 0
   967                           
   968                           ; 2 bytes @ 0x18
   969  000019                     	ds	1
   970  00001A                     ?_pad:
   971                           	opt callstack 0
   972  00001A                     pad@fp:
   973                           	opt callstack 0
   974  00001A                     ___flmul@a:
   975                           	opt callstack 0
   976                           
   977                           ; 4 bytes @ 0x19
   978  00001A                     	ds	1
   979  00001B                     _atoi$2254:
   980                           	opt callstack 0
   981                           
   982                           ; 1 bytes @ 0x1A
   983  00001B                     	ds	1
   984  00001C                     pad@buf:
   985                           	opt callstack 0
   986  00001C                     atoi@n:
   987                           	opt callstack 0
   988                           
   989                           ; 2 bytes @ 0x1B
   990  00001C                     	ds	2
   991  00001E                     ??___flmul:
   992  00001E                     pad@p:
   993                           	opt callstack 0
   994                           
   995                           ; 2 bytes @ 0x1D
   996  00001E                     	ds	2
   997  000020                     ??_pad:
   998                           
   999                           ; 1 bytes @ 0x1F
  1000  000020                     	ds	1
  1001  000021                     pad@i:
  1002                           	opt callstack 0
  1003                           
  1004                           ; 2 bytes @ 0x20
  1005  000021                     	ds	1
  1006  000022                     ___flmul@sign:
  1007                           	opt callstack 0
  1008                           
  1009                           ; 1 bytes @ 0x21
  1010  000022                     	ds	1
  1011  000023                     ___flmul@aexp:
  1012                           	opt callstack 0
  1013  000023                     pad@w:
  1014                           	opt callstack 0
  1015                           
  1016                           ; 2 bytes @ 0x22
  1017  000023                     	ds	1
  1018  000024                     ___flmul@grs:
  1019                           	opt callstack 0
  1020                           
  1021                           ; 4 bytes @ 0x23
  1022  000024                     	ds	4
  1023  000028                     ___flmul@bexp:
  1024                           	opt callstack 0
  1025                           
  1026                           ; 1 bytes @ 0x27
  1027  000028                     	ds	1
  1028  000029                     ___flmul@prod:
  1029                           	opt callstack 0
  1030                           
  1031                           ; 4 bytes @ 0x28
  1032  000029                     	ds	4
  1033  00002D                     ___flmul@temp:
  1034                           	opt callstack 0
  1035                           
  1036                           ; 2 bytes @ 0x2C
  1037  00002D                     	ds	2
  1038  00002F                     ?___fldiv:
  1039                           	opt callstack 0
  1040  00002F                     ?___flsub:
  1041                           	opt callstack 0
  1042  00002F                     ___flge@ff1:
  1043                           	opt callstack 0
  1044  00002F                     ___flsub@b:
  1045                           	opt callstack 0
  1046  00002F                     ___fldiv@b:
  1047                           	opt callstack 0
  1048                           
  1049                           ; 4 bytes @ 0x2E
  1050  00002F                     	ds	4
  1051  000033                     ___flge@ff2:
  1052                           	opt callstack 0
  1053  000033                     ___flsub@a:
  1054                           	opt callstack 0
  1055  000033                     ___fldiv@a:
  1056                           	opt callstack 0
  1057                           
  1058                           ; 4 bytes @ 0x32
  1059  000033                     	ds	4
  1060  000037                     ??___fldiv:
  1061  000037                     ??___flge:
  1062                           
  1063                           ; 1 bytes @ 0x36
  1064  000037                     	ds	4
  1065  00003B                     ___fldiv@rem:
  1066                           	opt callstack 0
  1067                           
  1068                           ; 4 bytes @ 0x3A
  1069  00003B                     	ds	4
  1070  00003F                     ___fldiv@sign:
  1071                           	opt callstack 0
  1072                           
  1073                           ; 1 bytes @ 0x3E
  1074  00003F                     	ds	1
  1075  000040                     ___fldiv@new_exp:
  1076                           	opt callstack 0
  1077                           
  1078                           ; 2 bytes @ 0x3F
  1079  000040                     	ds	2
  1080  000042                     ___fldiv@grs:
  1081                           	opt callstack 0
  1082                           
  1083                           ; 4 bytes @ 0x41
  1084  000042                     	ds	4
  1085  000046                     ___fldiv@bexp:
  1086                           	opt callstack 0
  1087                           
  1088                           ; 1 bytes @ 0x45
  1089  000046                     	ds	1
  1090  000047                     ___fldiv@aexp:
  1091                           	opt callstack 0
  1092                           
  1093                           ; 1 bytes @ 0x46
  1094  000047                     	ds	1
  1095  000048                     ?_floorf:
  1096                           	opt callstack 0
  1097  000048                     floorf@x:
  1098                           	opt callstack 0
  1099                           
  1100                           ; 4 bytes @ 0x47
  1101  000048                     	ds	4
  1102  00004C                     ??_vfpfcnvrt:
  1103                           
  1104                           ; 1 bytes @ 0x4B
  1105  00004C                     	ds	4
  1106  000050                     
  1107                           ; 1 bytes @ 0x4F
  1108 ;;
  1109 ;;Main: autosize = 0, tempsize = 2, incstack = 0, save=0
  1110 ;;
  1111 ;; *************** function _main *****************
  1112 ;; Defined at:
  1113 ;;		line 174 in file "main.c"
  1114 ;; Parameters:    Size  Location     Type
  1115 ;;		None
  1116 ;; Auto vars:     Size  Location     Type
  1117 ;;		None
  1118 ;; Return value:  Size  Location     Type
  1119 ;;                  1    wreg      void 
  1120 ;; Registers used:
  1121 ;;		wreg, fsr0l, fsr0h, fsr1l, fsr1h, fsr2l, fsr2h, status,2, status,0, tblptrl, tblptrh, tblptru, prodl, prodh, cstack
  1122 ;; Tracked objects:
  1123 ;;		On entry : 0/0
  1124 ;;		On exit  : 0/0
  1125 ;;		Unchanged: 0/0
  1126 ;; Data sizes:     COMRAM   BANK0   BANK1   BANK2   BANK3   BANK4   BANK5   BANK6   BANK7   BANK8   BANK9  BANK10  BANK1
      +1  BANK12  BANK13  BANK14  BANK15
  1127 ;;      Params:         0       0       0       0       0       0       0       0       0       0       0       0       
      +0       0       0       0       0
  1128 ;;      Locals:         0       0       0       0       0       0       0       0       0       0       0       0       
      +0       0       0       0       0
  1129 ;;      Temps:          0       2       0       0       0       0       0       0       0       0       0       0       
      +0       0       0       0       0
  1130 ;;      Totals:         0       2       0       0       0       0       0       0       0       0       0       0       
      +0       0       0       0       0
  1131 ;;Total ram usage:        2 bytes
  1132 ;; Hardware stack levels required when called:   12
  1133 ;; This function calls:
  1134 ;;		_LCDGoto
  1135 ;;		_LCDPutCmd
  1136 ;;		_LCDPutStr
  1137 ;;		_LCD_Initialize
  1138 ;;		_Read_MCP3221
  1139 ;;		_SYSTEM_Initialize
  1140 ;;		___fldiv
  1141 ;;		___flmul
  1142 ;;		___xxtofl
  1143 ;;		_printf
  1144 ;;		_sprintf
  1145 ;; This function is called by:
  1146 ;;		Startup code after reset
  1147 ;; This function uses a non-reentrant model
  1148 ;;
  1149                           
  1150                           	psect	text0
  1151  003722                     __ptext0:
  1152                           	opt callstack 0
  1153  003722                     _main:
  1154                           	opt callstack 19
  1155  003722                     
  1156                           ;main.c: 178:     SYSTEM_Initialize();
  1157  003722  ECD1  F023         	call	_SYSTEM_Initialize	;wreg free
  1158                           
  1159                           ;main.c: 179:     LCD_Initialize();
  1160  003726  EC46  F022         	call	_LCD_Initialize	;wreg free
  1161  00372A                     
  1162                           ;main.c: 185:     (INTCONbits.GIE = 1);
  1163  00372A  8EF2               	bsf	242,7,c	;volatile
  1164  00372C                     
  1165                           ;main.c: 191:     (INTCONbits.PEIE = 1);
  1166  00372C  8CF2               	bsf	242,6,c	;volatile
  1167                           
  1168                           ;main.c: 195:         LCDPutCmd(0x0C);
  1169  00372E  0E0C               	movlw	12
  1170  003730  EC63  F022         	call	_LCDPutCmd
  1171  003734                     
  1172                           ;main.c: 196:         LCDPutStr("ADC Conversion");
  1173  003734  0E22               	movlw	low STR_1
  1174  003736  6E0C               	movwf	LCDPutStr@str^0,c
  1175  003738  0E10               	movlw	high STR_1
  1176  00373A  6E0D               	movwf	(LCDPutStr@str+1)^0,c
  1177  00373C  EC03  F020         	call	_LCDPutStr	;wreg free
  1178  003740                     
  1179                           ;main.c: 197:         _delay((unsigned long)((1000)*(8000000/4000.0)));
  1180  003740  0E0B               	movlw	11
  1181  003742  0100               	movlb	0	; () banked
  1182  003744  6FDB               	movwf	(??_main+1)& (0+255),b
  1183  003746  0E26               	movlw	38
  1184  003748  6FDA               	movwf	??_main& (0+255),b
  1185  00374A  0E5D               	movlw	93
  1186  00374C                     u8117:
  1187  00374C  2EE8               	decfsz	wreg,f,c
  1188  00374E  D7FE               	bra	u8117
  1189  003750  2FDA               	decfsz	??_main& (0+255),f,b
  1190  003752  D7FC               	bra	u8117
  1191  003754  2FDB               	decfsz	(??_main+1)& (0+255),f,b
  1192  003756  D7FA               	bra	u8117
  1193  003758  D000               	nop2	
  1194  00375A                     
  1195                           ;main.c: 198:         LCDPutCmd(0x01);
  1196  00375A  0E01               	movlw	1
  1197  00375C  EC63  F022         	call	_LCDPutCmd
  1198  003760                     l6477:
  1199                           
  1200                           ;main.c: 201:     {;main.c: 202:         val=Read_MCP3221();
  1201  003760  EC0A  F022         	call	_Read_MCP3221	;wreg free
  1202  003764  C00A  F0F7         	movff	?_Read_MCP3221,_val
  1203  003768  C00B  F0F8         	movff	?_Read_MCP3221+1,_val+1
  1204  00376C                     
  1205                           ;main.c: 214:         Voltage=((val*5.5)/4095);
  1206  00376C  0E00               	movlw	0
  1207  00376E  6E1A               	movwf	___flmul@a^0,c
  1208  003770  0E00               	movlw	0
  1209  003772  6E1B               	movwf	(___flmul@a+1)^0,c
  1210  003774  0EB0               	movlw	176
  1211  003776  6E1C               	movwf	(___flmul@a+2)^0,c
  1212  003778  0E40               	movlw	64
  1213  00377A  6E1D               	movwf	(___flmul@a+3)^0,c
  1214  00377C  C0F7  F008         	movff	_val,___xxtofl@val
  1215  003780  C0F8  F009         	movff	_val+1,___xxtofl@val+1
  1216  003784  6A0A               	clrf	(___xxtofl@val+2)^0,c
  1217  003786  6A0B               	clrf	(___xxtofl@val+3)^0,c
  1218  003788  0E00               	movlw	0
  1219  00378A  ECEA  F019         	call	___xxtofl
  1220  00378E  C008  F016         	movff	?___xxtofl,___flmul@b
  1221  003792  C009  F017         	movff	?___xxtofl+1,___flmul@b+1
  1222  003796  C00A  F018         	movff	?___xxtofl+2,___flmul@b+2
  1223  00379A  C00B  F019         	movff	?___xxtofl+3,___flmul@b+3
  1224  00379E  EC6E  F013         	call	___flmul	;wreg free
  1225  0037A2  C016  F02F         	movff	?___flmul,___fldiv@b
  1226  0037A6  C017  F030         	movff	?___flmul+1,___fldiv@b+1
  1227  0037AA  C018  F031         	movff	?___flmul+2,___fldiv@b+2
  1228  0037AE  C019  F032         	movff	?___flmul+3,___fldiv@b+3
  1229  0037B2  0E00               	movlw	0
  1230  0037B4  6E33               	movwf	___fldiv@a^0,c
  1231  0037B6  0EF0               	movlw	240
  1232  0037B8  6E34               	movwf	(___fldiv@a+1)^0,c
  1233  0037BA  0E7F               	movlw	127
  1234  0037BC  6E35               	movwf	(___fldiv@a+2)^0,c
  1235  0037BE  0E45               	movlw	69
  1236  0037C0  6E36               	movwf	(___fldiv@a+3)^0,c
  1237  0037C2  EC83  F015         	call	___fldiv	;wreg free
  1238  0037C6  C02F  F0E7         	movff	?___fldiv,_Voltage
  1239  0037CA  C030  F0E8         	movff	?___fldiv+1,_Voltage+1
  1240  0037CE  C031  F0E9         	movff	?___fldiv+2,_Voltage+2
  1241  0037D2  C032  F0EA         	movff	?___fldiv+3,_Voltage+3
  1242  0037D6                     
  1243                           ;main.c: 215:         LCDPutStr("Voltage= ");
  1244  0037D6  0E31               	movlw	low STR_2
  1245  0037D8  6E0C               	movwf	LCDPutStr@str^0,c
  1246  0037DA  0E10               	movlw	high STR_2
  1247  0037DC  6E0D               	movwf	(LCDPutStr@str+1)^0,c
  1248  0037DE  EC03  F020         	call	_LCDPutStr	;wreg free
  1249  0037E2                     
  1250                           ;main.c: 216:         sprintf(Buffer, " %.3g", Voltage);
  1251  0037E2  0E58               	movlw	low _Buffer
  1252  0037E4  0100               	movlb	0	; () banked
  1253  0037E6  6FD0               	movwf	sprintf@s& (0+255),b
  1254  0037E8  0E01               	movlw	high _Buffer
  1255  0037EA  6FD1               	movwf	(sprintf@s+1)& (0+255),b
  1256  0037EC  0E3B               	movlw	low STR_3
  1257  0037EE  6FD2               	movwf	sprintf@fmt& (0+255),b
  1258  0037F0  0E10               	movlw	high STR_3
  1259  0037F2  6FD3               	movwf	(sprintf@fmt+1)& (0+255),b
  1260  0037F4  C0E7  F0D4         	movff	_Voltage,?_sprintf+4
  1261  0037F8  C0E8  F0D5         	movff	_Voltage+1,?_sprintf+5
  1262  0037FC  C0E9  F0D6         	movff	_Voltage+2,?_sprintf+6
  1263  003800  C0EA  F0D7         	movff	_Voltage+3,?_sprintf+7
  1264  003804  EC0A  F021         	call	_sprintf	;wreg free
  1265  003808                     
  1266                           ;main.c: 217:         LCDPutStr(Buffer);
  1267  003808  0E58               	movlw	low _Buffer
  1268  00380A  6E0C               	movwf	LCDPutStr@str^0,c
  1269  00380C  0E01               	movlw	high _Buffer
  1270  00380E  6E0D               	movwf	(LCDPutStr@str+1)^0,c
  1271  003810  EC03  F020         	call	_LCDPutStr	;wreg free
  1272  003814                     
  1273                           ;main.c: 218:         LCDPutStr("  ");
  1274  003814  0E57               	movlw	low STR_4
  1275  003816  6E0C               	movwf	LCDPutStr@str^0,c
  1276  003818  0E10               	movlw	high STR_4
  1277  00381A  6E0D               	movwf	(LCDPutStr@str+1)^0,c
  1278  00381C  EC03  F020         	call	_LCDPutStr	;wreg free
  1279  003820                     
  1280                           ;main.c: 219:         LCDGoto(0,0);
  1281  003820  0E00               	movlw	0
  1282  003822  6E0C               	movwf	LCDGoto@ln^0,c
  1283  003824  0E00               	movlw	0
  1284  003826  EC41  F020         	call	_LCDGoto
  1285  00382A                     
  1286                           ;main.c: 220:         printf("ADC Conversion\n\r");
  1287  00382A  0E01               	movlw	low STR_5
  1288  00382C  0100               	movlb	0	; () banked
  1289  00382E  6FD0               	movwf	printf@fmt& (0+255),b
  1290  003830  0E10               	movlw	high STR_5
  1291  003832  6FD1               	movwf	(printf@fmt+1)& (0+255),b
  1292  003834  EC62  F023         	call	_printf	;wreg free
  1293  003838                     
  1294                           ;main.c: 221:         printf("Voltage= %f V\n\r", Voltage);
  1295  003838  0E12               	movlw	low STR_6
  1296  00383A  0100               	movlb	0	; () banked
  1297  00383C  6FD0               	movwf	printf@fmt& (0+255),b
  1298  00383E  0E10               	movlw	high STR_6
  1299  003840  6FD1               	movwf	(printf@fmt+1)& (0+255),b
  1300  003842  C0E7  F0D2         	movff	_Voltage,?_printf+2
  1301  003846  C0E8  F0D3         	movff	_Voltage+1,?_printf+3
  1302  00384A  C0E9  F0D4         	movff	_Voltage+2,?_printf+4
  1303  00384E  C0EA  F0D5         	movff	_Voltage+3,?_printf+5
  1304  003852  EC62  F023         	call	_printf	;wreg free
  1305  003856                     
  1306                           ;main.c: 222:         _delay((unsigned long)((500)*(8000000/4000.0)));
  1307  003856  0E06               	movlw	6
  1308  003858  0100               	movlb	0	; () banked
  1309  00385A  6FDB               	movwf	(??_main+1)& (0+255),b
  1310  00385C  0E13               	movlw	19
  1311  00385E  6FDA               	movwf	??_main& (0+255),b
  1312  003860  0EAD               	movlw	173
  1313  003862                     u8127:
  1314  003862  2EE8               	decfsz	wreg,f,c
  1315  003864  D7FE               	bra	u8127
  1316  003866  2FDA               	decfsz	??_main& (0+255),f,b
  1317  003868  D7FC               	bra	u8127
  1318  00386A  2FDB               	decfsz	(??_main+1)& (0+255),f,b
  1319  00386C  D7FA               	bra	u8127
  1320  00386E  D000               	nop2	
  1321  003870  EFB0  F01B         	goto	l6477
  1322  003874  EF3A  F000         	goto	start
  1323  003878                     __end_of_main:
  1324                           	opt callstack 0
  1325                           
  1326 ;; *************** function _sprintf *****************
  1327 ;; Defined at:
  1328 ;;		line 9 in file "C:\Program Files (x86)\Microchip\xc8\v2.10\pic\sources\c99\common\nf_sprintf.c"
  1329 ;; Parameters:    Size  Location     Type
  1330 ;;  s               2  112[BANK0 ] PTR unsigned char 
  1331 ;;		 -> Buffer(20), 
  1332 ;;  fmt             2  114[BANK0 ] PTR const unsigned char 
  1333 ;;		 -> STR_3(6), 
  1334 ;; Auto vars:     Size  Location     Type
  1335 ;;  f               6    4[BANK1 ] struct _IO_FILE
  1336 ;;  ap              2    2[BANK1 ] PTR void [1]
  1337 ;;		 -> ?_printf(2), ?_sprintf(2), 
  1338 ;;  ret             2    0        int 
  1339 ;; Return value:  Size  Location     Type
  1340 ;;                  2  112[BANK0 ] int 
  1341 ;; Registers used:
  1342 ;;		wreg, fsr0l, fsr0h, fsr1l, fsr1h, fsr2l, fsr2h, status,2, status,0, tblptrl, tblptrh, tblptru, prodl, prodh, cstack
  1343 ;; Tracked objects:
  1344 ;;		On entry : 0/0
  1345 ;;		On exit  : 0/0
  1346 ;;		Unchanged: 0/0
  1347 ;; Data sizes:     COMRAM   BANK0   BANK1   BANK2   BANK3   BANK4   BANK5   BANK6   BANK7   BANK8   BANK9  BANK10  BANK1
      +1  BANK12  BANK13  BANK14  BANK15
  1348 ;;      Params:         0       8       0       0       0       0       0       0       0       0       0       0       
      +0       0       0       0       0
  1349 ;;      Locals:         0       0      10       0       0       0       0       0       0       0       0       0       
      +0       0       0       0       0
  1350 ;;      Temps:          0       0       0       0       0       0       0       0       0       0       0       0       
      +0       0       0       0       0
  1351 ;;      Totals:         0       8      10       0       0       0       0       0       0       0       0       0       
      +0       0       0       0       0
  1352 ;;Total ram usage:       18 bytes
  1353 ;; Hardware stack levels used:    1
  1354 ;; Hardware stack levels required when called:   11
  1355 ;; This function calls:
  1356 ;;		_vfprintf
  1357 ;; This function is called by:
  1358 ;;		_main
  1359 ;; This function uses a non-reentrant model
  1360 ;;
  1361                           
  1362                           	psect	text1
  1363  004214                     __ptext1:
  1364                           	opt callstack 0
  1365  004214                     _sprintf:
  1366                           	opt callstack 19
  1367  004214  0ED4               	movlw	low (?_sprintf+4)
  1368  004216  0101               	movlb	1	; () banked
  1369  004218  6F78               	movwf	sprintf@ap& (0+255),b
  1370  00421A  0E00               	movlw	high (?_sprintf+4)
  1371  00421C  6F79               	movwf	(sprintf@ap+1)& (0+255),b
  1372  00421E  C0D0  F17A         	movff	sprintf@s,sprintf@f
  1373  004222  C0D1  F17B         	movff	sprintf@s+1,sprintf@f+1
  1374  004226                     
  1375                           ; BSR set to: 1
  1376  004226  0E00               	movlw	0
  1377  004228  6F7D               	movwf	(sprintf@f+3)& (0+255),b
  1378  00422A  0E00               	movlw	0
  1379  00422C  6F7C               	movwf	(sprintf@f+2)& (0+255),b
  1380  00422E                     
  1381                           ; BSR set to: 1
  1382  00422E  0E00               	movlw	0
  1383  004230  6F7F               	movwf	(sprintf@f+5)& (0+255),b
  1384  004232  0E00               	movlw	0
  1385  004234  6F7E               	movwf	(sprintf@f+4)& (0+255),b
  1386  004236                     
  1387                           ; BSR set to: 1
  1388  004236  0E7A               	movlw	low sprintf@f
  1389  004238  0100               	movlb	0	; () banked
  1390  00423A  6FC8               	movwf	vfprintf@fp& (0+255),b
  1391  00423C  0E01               	movlw	high sprintf@f
  1392  00423E  6FC9               	movwf	(vfprintf@fp+1)& (0+255),b
  1393  004240  C0D2  F0CA         	movff	sprintf@fmt,vfprintf@fmt
  1394  004244  C0D3  F0CB         	movff	sprintf@fmt+1,vfprintf@fmt+1
  1395  004248  0E78               	movlw	low sprintf@ap
  1396  00424A  6FCC               	movwf	vfprintf@ap& (0+255),b
  1397  00424C  0E01               	movlw	high sprintf@ap
  1398  00424E  6FCD               	movwf	(vfprintf@ap+1)& (0+255),b
  1399  004250  EC79  F020         	call	_vfprintf	;wreg free
  1400  004254  0101               	movlb	1	; () banked
  1401  004256  517C               	movf	(sprintf@f+2)& (0+255),w,b
  1402  004258  0100               	movlb	0	; () banked
  1403  00425A  25D0               	addwf	sprintf@s& (0+255),w,b
  1404  00425C  6ED9               	movwf	fsr2l,c
  1405  00425E  0101               	movlb	1	; () banked
  1406  004260  517D               	movf	(sprintf@f+3)& (0+255),w,b
  1407  004262  0100               	movlb	0	; () banked
  1408  004264  21D1               	addwfc	(sprintf@s+1)& (0+255),w,b
  1409  004266  6EDA               	movwf	fsr2h,c
  1410  004268  0E00               	movlw	0
  1411  00426A  6EDF               	movwf	indf2,c
  1412  00426C                     
  1413                           ; BSR set to: 0
  1414  00426C  0012               	return		;funcret
  1415  00426E                     __end_of_sprintf:
  1416                           	opt callstack 0
  1417                           
  1418 ;; *************** function _printf *****************
  1419 ;; Defined at:
  1420 ;;		line 5 in file "C:\Program Files (x86)\Microchip\xc8\v2.10\pic\sources\c99\common\printf.c"
  1421 ;; Parameters:    Size  Location     Type
  1422 ;;  fmt             2  112[BANK0 ] PTR const unsigned char 
  1423 ;;		 -> STR_6(16), STR_5(17), 
  1424 ;; Auto vars:     Size  Location     Type
  1425 ;;  ap              2  120[BANK0 ] PTR void [1]
  1426 ;;		 -> ?_printf(2), ?_sprintf(2), 
  1427 ;;  ret             2    0        int 
  1428 ;; Return value:  Size  Location     Type
  1429 ;;                  2  112[BANK0 ] int 
  1430 ;; Registers used:
  1431 ;;		wreg, fsr0l, fsr0h, fsr1l, fsr1h, fsr2l, fsr2h, status,2, status,0, tblptrl, tblptrh, tblptru, prodl, prodh, cstack
  1432 ;; Tracked objects:
  1433 ;;		On entry : 0/0
  1434 ;;		On exit  : 0/0
  1435 ;;		Unchanged: 0/0
  1436 ;; Data sizes:     COMRAM   BANK0   BANK1   BANK2   BANK3   BANK4   BANK5   BANK6   BANK7   BANK8   BANK9  BANK10  BANK1
      +1  BANK12  BANK13  BANK14  BANK15
  1437 ;;      Params:         0       6       0       0       0       0       0       0       0       0       0       0       
      +0       0       0       0       0
  1438 ;;      Locals:         0       4       0       0       0       0       0       0       0       0       0       0       
      +0       0       0       0       0
  1439 ;;      Temps:          0       0       0       0       0       0       0       0       0       0       0       0       
      +0       0       0       0       0
  1440 ;;      Totals:         0      10       0       0       0       0       0       0       0       0       0       0       
      +0       0       0       0       0
  1441 ;;Total ram usage:       10 bytes
  1442 ;; Hardware stack levels used:    1
  1443 ;; Hardware stack levels required when called:   11
  1444 ;; This function calls:
  1445 ;;		_vfprintf
  1446 ;; This function is called by:
  1447 ;;		_main
  1448 ;; This function uses a non-reentrant model
  1449 ;;
  1450                           
  1451                           	psect	text2
  1452  0046C4                     __ptext2:
  1453                           	opt callstack 0
  1454  0046C4                     _printf:
  1455                           	opt callstack 19
  1456  0046C4  0ED2               	movlw	low (?_printf+2)
  1457  0046C6  0100               	movlb	0	; () banked
  1458  0046C8  6FD8               	movwf	printf@ap& (0+255),b
  1459  0046CA  0E00               	movlw	high (?_printf+2)
  1460  0046CC  6FD9               	movwf	(printf@ap+1)& (0+255),b
  1461  0046CE                     
  1462                           ; BSR set to: 0
  1463  0046CE  0E00               	movlw	0
  1464  0046D0  6FC8               	movwf	vfprintf@fp& (0+255),b
  1465  0046D2  0E00               	movlw	0
  1466  0046D4  6FC9               	movwf	(vfprintf@fp+1)& (0+255),b
  1467  0046D6  C0D0  F0CA         	movff	printf@fmt,vfprintf@fmt
  1468  0046DA  C0D1  F0CB         	movff	printf@fmt+1,vfprintf@fmt+1
  1469  0046DE  0ED8               	movlw	low printf@ap
  1470  0046E0  6FCC               	movwf	vfprintf@ap& (0+255),b
  1471  0046E2  0E00               	movlw	high printf@ap
  1472  0046E4  6FCD               	movwf	(vfprintf@ap+1)& (0+255),b
  1473  0046E6  EC79  F020         	call	_vfprintf	;wreg free
  1474  0046EA  0012               	return		;funcret
  1475  0046EC                     __end_of_printf:
  1476                           	opt callstack 0
  1477                           
  1478 ;; *************** function _vfprintf *****************
  1479 ;; Defined at:
  1480 ;;		line 1368 in file "C:\Program Files (x86)\Microchip\xc8\v2.10\pic\sources\c99\common\doprnt.c"
  1481 ;; Parameters:    Size  Location     Type
  1482 ;;  fp              2  104[BANK0 ] PTR struct _IO_FILE
  1483 ;;		 -> sprintf@f(6), NULL(0), 
  1484 ;;  fmt             2  106[BANK0 ] PTR const unsigned char 
  1485 ;;		 -> STR_6(16), STR_5(17), STR_3(6), 
  1486 ;;  ap              2  108[BANK0 ] PTR PTR void 
  1487 ;;		 -> printf@ap(2), sprintf@ap(2), 
  1488 ;; Auto vars:     Size  Location     Type
  1489 ;;  cfmt            2  110[BANK0 ] PTR unsigned char 
  1490 ;;		 -> STR_6(16), STR_5(17), STR_3(6), 
  1491 ;; Return value:  Size  Location     Type
  1492 ;;                  2  104[BANK0 ] int 
  1493 ;; Registers used:
  1494 ;;		wreg, fsr0l, fsr0h, fsr1l, fsr1h, fsr2l, fsr2h, status,2, status,0, tblptrl, tblptrh, tblptru, prodl, prodh, cstack
  1495 ;; Tracked objects:
  1496 ;;		On entry : 0/0
  1497 ;;		On exit  : 0/0
  1498 ;;		Unchanged: 0/0
  1499 ;; Data sizes:     COMRAM   BANK0   BANK1   BANK2   BANK3   BANK4   BANK5   BANK6   BANK7   BANK8   BANK9  BANK10  BANK1
      +1  BANK12  BANK13  BANK14  BANK15
  1500 ;;      Params:         0       6       0       0       0       0       0       0       0       0       0       0       
      +0       0       0       0       0
  1501 ;;      Locals:         0       2       0       0       0       0       0       0       0       0       0       0       
      +0       0       0       0       0
  1502 ;;      Temps:          0       0       0       0       0       0       0       0       0       0       0       0       
      +0       0       0       0       0
  1503 ;;      Totals:         0       8       0       0       0       0       0       0       0       0       0       0       
      +0       0       0       0       0
  1504 ;;Total ram usage:        8 bytes
  1505 ;; Hardware stack levels used:    1
  1506 ;; Hardware stack levels required when called:   10
  1507 ;; This function calls:
  1508 ;;		_vfpfcnvrt
  1509 ;; This function is called by:
  1510 ;;		_sprintf
  1511 ;;		_printf
  1512 ;; This function uses a non-reentrant model
  1513 ;;
  1514                           
  1515                           	psect	text3
  1516  0040F2                     __ptext3:
  1517                           	opt callstack 0
  1518  0040F2                     _vfprintf:
  1519                           	opt callstack 19
  1520  0040F2                     
  1521                           ;C:\Program Files (x86)\Microchip\xc8\v2.10\pic\sources\c99\common\doprnt.c: 1368: int v
      +                          fprintf(FILE *fp, const char *fmt, va_list ap);C:\Program Files (x86)\Microchip\xc8\v2.1
      +                          0\pic\sources\c99\common\doprnt.c: 1369: {;C:\Program Files (x86)\Microchip\xc8\v2.10\pi
      +                          c\sources\c99\common\doprnt.c: 1371:     char *cfmt;;C:\Program Files (x86)\Microchip\xc
      +                          8\v2.10\pic\sources\c99\common\doprnt.c: 1373:     cfmt = (char *)fmt;
  1522  0040F2  C0CA  F0CE         	movff	vfprintf@fmt,vfprintf@cfmt
  1523  0040F6  C0CB  F0CF         	movff	vfprintf@fmt+1,vfprintf@cfmt+1
  1524  0040FA                     
  1525                           ;C:\Program Files (x86)\Microchip\xc8\v2.10\pic\sources\c99\common\doprnt.c: 1374:     n
      +                          out = 0;
  1526  0040FA  0E00               	movlw	0
  1527  0040FC  0100               	movlb	0	; () banked
  1528  0040FE  6FEC               	movwf	(_nout+1)& (0+255),b
  1529  004100  0E00               	movlw	0
  1530  004102  6FEB               	movwf	_nout& (0+255),b
  1531                           
  1532                           ;C:\Program Files (x86)\Microchip\xc8\v2.10\pic\sources\c99\common\doprnt.c: 1375:     w
      +                          hile (*cfmt) {
  1533  004104  EF97  F020         	goto	l6445
  1534  004108                     l6443:
  1535                           
  1536                           ; BSR set to: 0
  1537                           ;C:\Program Files (x86)\Microchip\xc8\v2.10\pic\sources\c99\common\doprnt.c: 1376:      
      +                             nout += vfpfcnvrt(fp, &cfmt, ap);
  1538  004108  C0C8  F0B4         	movff	vfprintf@fp,vfpfcnvrt@fp
  1539  00410C  C0C9  F0B5         	movff	vfprintf@fp+1,vfpfcnvrt@fp+1
  1540  004110  0ECE               	movlw	low vfprintf@cfmt
  1541  004112  6FB6               	movwf	vfpfcnvrt@fmt& (0+255),b
  1542  004114  0E00               	movlw	high vfprintf@cfmt
  1543  004116  6FB7               	movwf	(vfpfcnvrt@fmt+1)& (0+255),b
  1544  004118  C0CC  F0B8         	movff	vfprintf@ap,vfpfcnvrt@ap
  1545  00411C  C0CD  F0B9         	movff	vfprintf@ap+1,vfpfcnvrt@ap+1
  1546  004120  EC07  F00E         	call	_vfpfcnvrt	;wreg free
  1547  004124  0100               	movlb	0	; () banked
  1548  004126  51B4               	movf	?_vfpfcnvrt& (0+255),w,b
  1549  004128  27EB               	addwf	_nout& (0+255),f,b
  1550  00412A  51B5               	movf	(?_vfpfcnvrt+1)& (0+255),w,b
  1551  00412C  23EC               	addwfc	(_nout+1)& (0+255),f,b
  1552  00412E                     l6445:
  1553                           
  1554                           ; BSR set to: 0
  1555                           ;C:\Program Files (x86)\Microchip\xc8\v2.10\pic\sources\c99\common\doprnt.c: 1375:     w
      +                          hile (*cfmt) {
  1556  00412E  C0CE  FFF6         	movff	vfprintf@cfmt,tblptrl
  1557  004132  C0CF  FFF7         	movff	vfprintf@cfmt+1,tblptrh
  1558  004136                     	if	1	;Program memory is < 0x10000, tblptru is always zero
  1559  004136  6AF8               	clrf	tblptru,c
  1560  004138                     	endif
  1561  004138                     	if	0	;tblptru may be non-zero
  1562  004138                     	endif
  1563  004138  0008               	tblrd		*
  1564  00413A  50F5               	movf	tablat,w,c
  1565  00413C  0900               	iorlw	0
  1566  00413E  A4D8               	btfss	status,2,c
  1567  004140  EFA4  F020         	goto	u8101
  1568  004144  EFA6  F020         	goto	u8100
  1569  004148                     u8101:
  1570  004148  EF84  F020         	goto	l6443
  1571  00414C                     u8100:
  1572  00414C                     
  1573                           ; BSR set to: 0
  1574                           ;C:\Program Files (x86)\Microchip\xc8\v2.10\pic\sources\c99\common\doprnt.c: 1378:     r
      +                          eturn nout;
  1575  00414C  C0EB  F0C8         	movff	_nout,?_vfprintf
  1576  004150  C0EC  F0C9         	movff	_nout+1,?_vfprintf+1
  1577  004154                     
  1578                           ; BSR set to: 0
  1579  004154  0012               	return		;funcret
  1580  004156                     __end_of_vfprintf:
  1581                           	opt callstack 0
  1582                           
  1583 ;; *************** function _vfpfcnvrt *****************
  1584 ;; Defined at:
  1585 ;;		line 670 in file "C:\Program Files (x86)\Microchip\xc8\v2.10\pic\sources\c99\common\doprnt.c"
  1586 ;; Parameters:    Size  Location     Type
  1587 ;;  fp              2   84[BANK0 ] PTR struct _IO_FILE
  1588 ;;		 -> sprintf@f(6), NULL(0), 
  1589 ;;  fmt             2   86[BANK0 ] PTR PTR unsigned char 
  1590 ;;		 -> vfprintf@cfmt(2), 
  1591 ;;  ap              2   88[BANK0 ] PTR PTR void 
  1592 ;;		 -> printf@ap(2), sprintf@ap(2), 
  1593 ;; Auto vars:     Size  Location     Type
  1594 ;;  llu             8    0        unsigned long long 
  1595 ;;  ll              8    0        long long 
  1596 ;;  f               4  100[BANK0 ] long long 
  1597 ;;  ct              3   96[BANK0 ] unsigned char [3]
  1598 ;;  vp              3    0        PTR void 
  1599 ;;  cp              3    0        PTR unsigned char 
  1600 ;;  i               2    0        int 
  1601 ;;  done            2    0        int 
  1602 ;;  c               1   99[BANK0 ] unsigned char 
  1603 ;; Return value:  Size  Location     Type
  1604 ;;                  2   84[BANK0 ] int 
  1605 ;; Registers used:
  1606 ;;		wreg, fsr0l, fsr0h, fsr1l, fsr1h, fsr2l, fsr2h, status,2, status,0, tblptrl, tblptrh, tblptru, prodl, prodh, cstack
  1607 ;; Tracked objects:
  1608 ;;		On entry : 0/0
  1609 ;;		On exit  : 0/0
  1610 ;;		Unchanged: 0/0
  1611 ;; Data sizes:     COMRAM   BANK0   BANK1   BANK2   BANK3   BANK4   BANK5   BANK6   BANK7   BANK8   BANK9  BANK10  BANK1
      +1  BANK12  BANK13  BANK14  BANK15
  1612 ;;      Params:         0       6       0       0       0       0       0       0       0       0       0       0       
      +0       0       0       0       0
  1613 ;;      Locals:         0      14       0       0       0       0       0       0       0       0       0       0       
      +0       0       0       0       0
  1614 ;;      Temps:          4       0       0       0       0       0       0       0       0       0       0       0       
      +0       0       0       0       0
  1615 ;;      Totals:         4      20       0       0       0       0       0       0       0       0       0       0       
      +0       0       0       0       0
  1616 ;;Total ram usage:       24 bytes
  1617 ;; Hardware stack levels used:    1
  1618 ;; Hardware stack levels required when called:    9
  1619 ;; This function calls:
  1620 ;;		_atoi
  1621 ;;		_efgtoa
  1622 ;;		_fputc
  1623 ;;		_isdigit
  1624 ;;		_isupper
  1625 ;;		_strncmp
  1626 ;;		_tolower
  1627 ;; This function is called by:
  1628 ;;		_vfprintf
  1629 ;; This function uses a non-reentrant model
  1630 ;;
  1631                           
  1632                           	psect	text4
  1633  001C0E                     __ptext4:
  1634                           	opt callstack 0
  1635  001C0E                     _vfpfcnvrt:
  1636                           	opt callstack 19
  1637  001C0E                     
  1638                           ;C:\Program Files (x86)\Microchip\xc8\v2.10\pic\sources\c99\common\doprnt.c: 670: static
      +                           int vfpfcnvrt(FILE *fp, char *fmt[], va_list ap);C:\Program Files (x86)\Microchip\xc8\v
      +                          2.10\pic\sources\c99\common\doprnt.c: 671: {;C:\Program Files (x86)\Microchip\xc8\v2.10\
      +                          pic\sources\c99\common\doprnt.c: 672:     char c, *cp, ct[3];;C:\Program Files (x86)\Mic
      +                          rochip\xc8\v2.10\pic\sources\c99\common\doprnt.c: 673:     int done, i;;C:\Program Files
      +                           (x86)\Microchip\xc8\v2.10\pic\sources\c99\common\doprnt.c: 674:     long long ll;
  1639  001C0E  C0B6  FFD9         	movff	vfpfcnvrt@fmt,fsr2l
  1640  001C12  C0B7  FFDA         	movff	vfpfcnvrt@fmt+1,fsr2h
  1641  001C16  CFDE FFF6          	movff	postinc2,tblptrl
  1642  001C1A  CFDD FFF7          	movff	postdec2,tblptrh
  1643  001C1E                     	if	1	;Program memory is < 0x10000, tblptru is always zero
  1644  001C1E  6AF8               	clrf	tblptru,c
  1645  001C20                     	endif
  1646  001C20                     	if	0	;tblptru may be non-zero
  1647  001C20                     	endif
  1648  001C20  0008               	tblrd		*
  1649  001C22  50F5               	movf	tablat,w,c
  1650  001C24  0A25               	xorlw	37
  1651  001C26  A4D8               	btfss	status,2,c
  1652  001C28  EF18  F00E         	goto	u7911
  1653  001C2C  EF1A  F00E         	goto	u7910
  1654  001C30                     u7911:
  1655  001C30  EFF1  F010         	goto	l6431
  1656  001C34                     u7910:
  1657  001C34                     
  1658                           ;C:\Program Files (x86)\Microchip\xc8\v2.10\pic\sources\c99\common\doprnt.c: 681:       
      +                            ++*fmt;
  1659  001C34  C0B6  FFD9         	movff	vfpfcnvrt@fmt,fsr2l
  1660  001C38  C0B7  FFDA         	movff	vfpfcnvrt@fmt+1,fsr2h
  1661  001C3C  2ADE               	incf	postinc2,f,c
  1662  001C3E  0E00               	movlw	0
  1663  001C40  22DD               	addwfc	postdec2,f,c
  1664  001C42                     
  1665                           ;C:\Program Files (x86)\Microchip\xc8\v2.10\pic\sources\c99\common\doprnt.c: 683:       
      +                            flags = width = 0;
  1666  001C42  0E00               	movlw	0
  1667  001C44  0100               	movlb	0	; () banked
  1668  001C46  6FEE               	movwf	(_width+1)& (0+255),b
  1669  001C48  0E00               	movlw	0
  1670  001C4A  6FED               	movwf	_width& (0+255),b
  1671  001C4C  C0ED  F050         	movff	_width,_flags
  1672  001C50  C0EE  F051         	movff	_width+1,_flags+1
  1673  001C54                     
  1674                           ; BSR set to: 0
  1675                           ;C:\Program Files (x86)\Microchip\xc8\v2.10\pic\sources\c99\common\doprnt.c: 684:       
      +                            prec = -1;
  1676  001C54  69EF               	setf	_prec& (0+255),b
  1677  001C56  69F0               	setf	(_prec+1)& (0+255),b
  1678  001C58                     
  1679                           ; BSR set to: 0
  1680                           ;C:\Program Files (x86)\Microchip\xc8\v2.10\pic\sources\c99\common\doprnt.c: 740:       
      +                            if ((*fmt)[0] == '.') {
  1681  001C58  C0B6  FFD9         	movff	vfpfcnvrt@fmt,fsr2l
  1682  001C5C  C0B7  FFDA         	movff	vfpfcnvrt@fmt+1,fsr2h
  1683  001C60  CFDE FFF6          	movff	postinc2,tblptrl
  1684  001C64  CFDD FFF7          	movff	postdec2,tblptrh
  1685  001C68                     	if	1	;Program memory is < 0x10000, tblptru is always zero
  1686  001C68  6AF8               	clrf	tblptru,c
  1687  001C6A                     	endif
  1688  001C6A                     	if	0	;tblptru may be non-zero
  1689  001C6A                     	endif
  1690  001C6A  0008               	tblrd		*
  1691  001C6C  50F5               	movf	tablat,w,c
  1692  001C6E  0A2E               	xorlw	46
  1693  001C70  A4D8               	btfss	status,2,c
  1694  001C72  EF3D  F00E         	goto	u7921
  1695  001C76  EF3F  F00E         	goto	u7920
  1696  001C7A                     u7921:
  1697  001C7A  EFBF  F00E         	goto	l6349
  1698  001C7E                     u7920:
  1699  001C7E                     
  1700                           ; BSR set to: 0
  1701                           ;C:\Program Files (x86)\Microchip\xc8\v2.10\pic\sources\c99\common\doprnt.c: 741:       
      +                                prec = 0;
  1702  001C7E  0E00               	movlw	0
  1703  001C80  6FF0               	movwf	(_prec+1)& (0+255),b
  1704  001C82  0E00               	movlw	0
  1705  001C84  6FEF               	movwf	_prec& (0+255),b
  1706  001C86                     
  1707                           ; BSR set to: 0
  1708                           ;C:\Program Files (x86)\Microchip\xc8\v2.10\pic\sources\c99\common\doprnt.c: 742:       
      +                                ++*fmt;
  1709  001C86  C0B6  FFD9         	movff	vfpfcnvrt@fmt,fsr2l
  1710  001C8A  C0B7  FFDA         	movff	vfpfcnvrt@fmt+1,fsr2h
  1711  001C8E  2ADE               	incf	postinc2,f,c
  1712  001C90  0E00               	movlw	0
  1713  001C92  22DD               	addwfc	postdec2,f,c
  1714  001C94                     
  1715                           ; BSR set to: 0
  1716                           ;C:\Program Files (x86)\Microchip\xc8\v2.10\pic\sources\c99\common\doprnt.c: 743:       
      +                                if ((*fmt)[0] == '*') {
  1717  001C94  C0B6  FFD9         	movff	vfpfcnvrt@fmt,fsr2l
  1718  001C98  C0B7  FFDA         	movff	vfpfcnvrt@fmt+1,fsr2h
  1719  001C9C  CFDE FFF6          	movff	postinc2,tblptrl
  1720  001CA0  CFDD FFF7          	movff	postdec2,tblptrh
  1721  001CA4                     	if	1	;Program memory is < 0x10000, tblptru is always zero
  1722  001CA4  6AF8               	clrf	tblptru,c
  1723  001CA6                     	endif
  1724  001CA6                     	if	0	;tblptru may be non-zero
  1725  001CA6                     	endif
  1726  001CA6  0008               	tblrd		*
  1727  001CA8  50F5               	movf	tablat,w,c
  1728  001CAA  0A2A               	xorlw	42
  1729  001CAC  A4D8               	btfss	status,2,c
  1730  001CAE  EF5B  F00E         	goto	u7931
  1731  001CB2  EF5D  F00E         	goto	u7930
  1732  001CB6                     u7931:
  1733  001CB6  EF7A  F00E         	goto	l6339
  1734  001CBA                     u7930:
  1735  001CBA                     
  1736                           ; BSR set to: 0
  1737                           ;C:\Program Files (x86)\Microchip\xc8\v2.10\pic\sources\c99\common\doprnt.c: 744:       
      +                                    ++*fmt;
  1738  001CBA  C0B6  FFD9         	movff	vfpfcnvrt@fmt,fsr2l
  1739  001CBE  C0B7  FFDA         	movff	vfpfcnvrt@fmt+1,fsr2h
  1740  001CC2  2ADE               	incf	postinc2,f,c
  1741  001CC4  0E00               	movlw	0
  1742  001CC6  22DD               	addwfc	postdec2,f,c
  1743                           
  1744                           ;C:\Program Files (x86)\Microchip\xc8\v2.10\pic\sources\c99\common\doprnt.c: 745:       
      +                                    prec = (*(int *)__va_arg(*(int **)ap, (int)0));
  1745  001CC8  C0B8  FFD9         	movff	vfpfcnvrt@ap,fsr2l
  1746  001CCC  C0B9  FFDA         	movff	vfpfcnvrt@ap+1,fsr2h
  1747  001CD0  CFDF F04C          	movff	indf2,??_vfpfcnvrt
  1748  001CD4  0E02               	movlw	2
  1749  001CD6  26DE               	addwf	postinc2,f,c
  1750  001CD8  CFDF F04D          	movff	indf2,??_vfpfcnvrt+1
  1751  001CDC  0E00               	movlw	0
  1752  001CDE  22DD               	addwfc	postdec2,f,c
  1753  001CE0  C04C  FFD9         	movff	??_vfpfcnvrt,fsr2l
  1754  001CE4  C04D  FFDA         	movff	??_vfpfcnvrt+1,fsr2h
  1755  001CE8  CFDE F0EF          	movff	postinc2,_prec
  1756  001CEC  CFDD F0F0          	movff	postdec2,_prec+1
  1757                           
  1758                           ;C:\Program Files (x86)\Microchip\xc8\v2.10\pic\sources\c99\common\doprnt.c: 746:       
      +                                } else {
  1759  001CF0  EFBF  F00E         	goto	l6349
  1760  001CF4                     l6339:
  1761                           
  1762                           ; BSR set to: 0
  1763                           ;C:\Program Files (x86)\Microchip\xc8\v2.10\pic\sources\c99\common\doprnt.c: 747:       
      +                                    prec = atoi(*fmt);
  1764  001CF4  C0B6  FFD9         	movff	vfpfcnvrt@fmt,fsr2l
  1765  001CF8  C0B7  FFDA         	movff	vfpfcnvrt@fmt+1,fsr2h
  1766  001CFC  CFDE F00F          	movff	postinc2,atoi@s
  1767  001D00  CFDD F010          	movff	postdec2,atoi@s+1
  1768  001D04  ECC4  F01A         	call	_atoi	;wreg free
  1769  001D08  C00F  F0EF         	movff	?_atoi,_prec
  1770  001D0C  C010  F0F0         	movff	?_atoi+1,_prec+1
  1771                           
  1772                           ;C:\Program Files (x86)\Microchip\xc8\v2.10\pic\sources\c99\common\doprnt.c: 748:       
      +                                    while ((0 ? isdigit((*fmt)[0]) : ((unsigned)((*fmt)[0])-'0') < 10)) {
  1773  001D10  EF91  F00E         	goto	l6343
  1774  001D14                     l6341:
  1775                           
  1776                           ; BSR set to: 0
  1777                           ;C:\Program Files (x86)\Microchip\xc8\v2.10\pic\sources\c99\common\doprnt.c: 749:       
      +                                        ++*fmt;
  1778  001D14  C0B6  FFD9         	movff	vfpfcnvrt@fmt,fsr2l
  1779  001D18  C0B7  FFDA         	movff	vfpfcnvrt@fmt+1,fsr2h
  1780  001D1C  2ADE               	incf	postinc2,f,c
  1781  001D1E  0E00               	movlw	0
  1782  001D20  22DD               	addwfc	postdec2,f,c
  1783  001D22                     l6343:
  1784  001D22  0ED0               	movlw	208
  1785  001D24  6E4C               	movwf	??_vfpfcnvrt^0,c
  1786  001D26  0EFF               	movlw	255
  1787  001D28  6E4D               	movwf	(??_vfpfcnvrt+1)^0,c
  1788  001D2A  C0B6  FFD9         	movff	vfpfcnvrt@fmt,fsr2l
  1789  001D2E  C0B7  FFDA         	movff	vfpfcnvrt@fmt+1,fsr2h
  1790  001D32  CFDE FFF6          	movff	postinc2,tblptrl
  1791  001D36  CFDD FFF7          	movff	postdec2,tblptrh
  1792  001D3A                     	if	1	;Program memory is < 0x10000, tblptru is always zero
  1793  001D3A  6AF8               	clrf	tblptru,c
  1794  001D3C                     	endif
  1795  001D3C                     	if	0	;tblptru may be non-zero
  1796  001D3C                     	endif
  1797  001D3C  0008               	tblrd		*
  1798  001D3E  50F5               	movf	tablat,w,c
  1799  001D40  6E4E               	movwf	(??_vfpfcnvrt+2)^0,c
  1800  001D42  6A4F               	clrf	(??_vfpfcnvrt+3)^0,c
  1801  001D44  504C               	movf	??_vfpfcnvrt^0,w,c
  1802  001D46  264E               	addwf	(??_vfpfcnvrt+2)^0,f,c
  1803  001D48  504D               	movf	(??_vfpfcnvrt+1)^0,w,c
  1804  001D4A  224F               	addwfc	(??_vfpfcnvrt+3)^0,f,c
  1805  001D4C  504F               	movf	(??_vfpfcnvrt+3)^0,w,c
  1806  001D4E  E10A               	bnz	u7940
  1807  001D50  0E0A               	movlw	10
  1808  001D52  5C4E               	subwf	(??_vfpfcnvrt+2)^0,w,c
  1809  001D54  A0D8               	btfss	status,0,c
  1810  001D56  EFAF  F00E         	goto	u7941
  1811  001D5A  EFB2  F00E         	goto	u7940
  1812  001D5E                     u7941:
  1813  001D5E  0E01               	movlw	1
  1814  001D60  EFB3  F00E         	goto	u7950
  1815  001D64                     u7940:
  1816  001D64  0E00               	movlw	0
  1817  001D66                     u7950:
  1818  001D66  0100               	movlb	0	; () banked
  1819  001D68  6FBA               	movwf	_vfpfcnvrt$1772& (0+255),b
  1820  001D6A  6BBB               	clrf	(_vfpfcnvrt$1772+1)& (0+255),b
  1821  001D6C                     
  1822                           ; BSR set to: 0
  1823  001D6C  51BA               	movf	_vfpfcnvrt$1772& (0+255),w,b
  1824  001D6E  11BB               	iorwf	(_vfpfcnvrt$1772+1)& (0+255),w,b
  1825  001D70  A4D8               	btfss	status,2,c
  1826  001D72  EFBD  F00E         	goto	u7961
  1827  001D76  EFBF  F00E         	goto	u7960
  1828  001D7A                     u7961:
  1829  001D7A  EF8A  F00E         	goto	l6341
  1830  001D7E                     u7960:
  1831  001D7E                     l6349:
  1832                           
  1833                           ; BSR set to: 0
  1834                           ;C:\Program Files (x86)\Microchip\xc8\v2.10\pic\sources\c99\common\doprnt.c: 757:       
      +                            ct[0] = tolower((int)(*fmt)[0]);
  1835  001D7E  C0B6  FFD9         	movff	vfpfcnvrt@fmt,fsr2l
  1836  001D82  C0B7  FFDA         	movff	vfpfcnvrt@fmt+1,fsr2h
  1837  001D86  CFDE FFF6          	movff	postinc2,tblptrl
  1838  001D8A  CFDD FFF7          	movff	postdec2,tblptrh
  1839  001D8E                     	if	1	;Program memory is < 0x10000, tblptru is always zero
  1840  001D8E  6AF8               	clrf	tblptru,c
  1841  001D90                     	endif
  1842  001D90                     	if	0	;tblptru may be non-zero
  1843  001D90                     	endif
  1844  001D90  0008               	tblrd		*
  1845  001D92  50F5               	movf	tablat,w,c
  1846  001D94  6E0E               	movwf	tolower@c^0,c
  1847  001D96  6A0F               	clrf	(tolower@c+1)^0,c
  1848  001D98  ECAB  F020         	call	_tolower	;wreg free
  1849  001D9C  500E               	movf	?_tolower^0,w,c
  1850  001D9E  0100               	movlb	0	; () banked
  1851  001DA0  6FC0               	movwf	vfpfcnvrt@ct& (0+255),b
  1852  001DA2                     
  1853                           ; BSR set to: 0
  1854                           ;C:\Program Files (x86)\Microchip\xc8\v2.10\pic\sources\c99\common\doprnt.c: 758:       
      +                            if (ct[0]) {
  1855  001DA2  51C0               	movf	vfpfcnvrt@ct& (0+255),w,b
  1856  001DA4  B4D8               	btfsc	status,2,c
  1857  001DA6  EFD7  F00E         	goto	u7971
  1858  001DAA  EFD9  F00E         	goto	u7970
  1859  001DAE                     u7971:
  1860  001DAE  EF15  F00F         	goto	l6359
  1861  001DB2                     u7970:
  1862  001DB2                     
  1863                           ; BSR set to: 0
  1864                           ;C:\Program Files (x86)\Microchip\xc8\v2.10\pic\sources\c99\common\doprnt.c: 759:       
      +                                ct[1] = tolower((int)(*fmt)[1]);
  1865  001DB2  C0B6  FFD9         	movff	vfpfcnvrt@fmt,fsr2l
  1866  001DB6  C0B7  FFDA         	movff	vfpfcnvrt@fmt+1,fsr2h
  1867  001DBA  CFDE F04C          	movff	postinc2,??_vfpfcnvrt
  1868  001DBE  CFDD F04D          	movff	postdec2,??_vfpfcnvrt+1
  1869  001DC2  0E01               	movlw	1
  1870  001DC4  264C               	addwf	??_vfpfcnvrt^0,f,c
  1871  001DC6  0E00               	movlw	0
  1872  001DC8  224D               	addwfc	(??_vfpfcnvrt+1)^0,f,c
  1873  001DCA  C04C  FFF6         	movff	??_vfpfcnvrt,tblptrl
  1874  001DCE  C04D  FFF7         	movff	??_vfpfcnvrt+1,tblptrh
  1875  001DD2                     	if	1	;Program memory is < 0x10000, tblptru is always zero
  1876  001DD2  6AF8               	clrf	tblptru,c
  1877  001DD4                     	endif
  1878  001DD4                     	if	0	;tblptru may be non-zero
  1879  001DD4                     	endif
  1880  001DD4  0008               	tblrd		*
  1881  001DD6  50F5               	movf	tablat,w,c
  1882  001DD8  6E0E               	movwf	tolower@c^0,c
  1883  001DDA  6A0F               	clrf	(tolower@c+1)^0,c
  1884  001DDC  ECAB  F020         	call	_tolower	;wreg free
  1885  001DE0  500E               	movf	?_tolower^0,w,c
  1886  001DE2  0100               	movlb	0	; () banked
  1887  001DE4  6FC1               	movwf	(vfpfcnvrt@ct+1)& (0+255),b
  1888  001DE6                     
  1889                           ; BSR set to: 0
  1890                           ;C:\Program Files (x86)\Microchip\xc8\v2.10\pic\sources\c99\common\doprnt.c: 760:       
      +                                if (ct[1]) {
  1891  001DE6  51C1               	movf	(vfpfcnvrt@ct+1)& (0+255),w,b
  1892  001DE8  B4D8               	btfsc	status,2,c
  1893  001DEA  EFF9  F00E         	goto	u7981
  1894  001DEE  EFFB  F00E         	goto	u7980
  1895  001DF2                     u7981:
  1896  001DF2  EF15  F00F         	goto	l6359
  1897  001DF6                     u7980:
  1898  001DF6                     
  1899                           ; BSR set to: 0
  1900                           ;C:\Program Files (x86)\Microchip\xc8\v2.10\pic\sources\c99\common\doprnt.c: 761:       
      +                                    ct[2] = tolower((int)(*fmt)[2]);
  1901  001DF6  C0B6  FFD9         	movff	vfpfcnvrt@fmt,fsr2l
  1902  001DFA  C0B7  FFDA         	movff	vfpfcnvrt@fmt+1,fsr2h
  1903  001DFE  CFDE F04C          	movff	postinc2,??_vfpfcnvrt
  1904  001E02  CFDD F04D          	movff	postdec2,??_vfpfcnvrt+1
  1905  001E06  0E02               	movlw	2
  1906  001E08  264C               	addwf	??_vfpfcnvrt^0,f,c
  1907  001E0A  0E00               	movlw	0
  1908  001E0C  224D               	addwfc	(??_vfpfcnvrt+1)^0,f,c
  1909  001E0E  C04C  FFF6         	movff	??_vfpfcnvrt,tblptrl
  1910  001E12  C04D  FFF7         	movff	??_vfpfcnvrt+1,tblptrh
  1911  001E16                     	if	1	;Program memory is < 0x10000, tblptru is always zero
  1912  001E16  6AF8               	clrf	tblptru,c
  1913  001E18                     	endif
  1914  001E18                     	if	0	;tblptru may be non-zero
  1915  001E18                     	endif
  1916  001E18  0008               	tblrd		*
  1917  001E1A  50F5               	movf	tablat,w,c
  1918  001E1C  6E0E               	movwf	tolower@c^0,c
  1919  001E1E  6A0F               	clrf	(tolower@c+1)^0,c
  1920  001E20  ECAB  F020         	call	_tolower	;wreg free
  1921  001E24  500E               	movf	?_tolower^0,w,c
  1922  001E26  0100               	movlb	0	; () banked
  1923  001E28  6FC2               	movwf	(vfpfcnvrt@ct+2)& (0+255),b
  1924  001E2A                     l6359:
  1925                           
  1926                           ; BSR set to: 0
  1927                           ;C:\Program Files (x86)\Microchip\xc8\v2.10\pic\sources\c99\common\doprnt.c: 920:       
      +                            if (ct[0] == 'f') {
  1928  001E2A  0E66               	movlw	102
  1929  001E2C  19C0               	xorwf	vfpfcnvrt@ct& (0+255),w,b
  1930  001E2E  A4D8               	btfss	status,2,c
  1931  001E30  EF1C  F00F         	goto	u7991
  1932  001E34  EF1E  F00F         	goto	u7990
  1933  001E38                     u7991:
  1934  001E38  EF5F  F00F         	goto	l6371
  1935  001E3C                     u7990:
  1936  001E3C                     
  1937                           ; BSR set to: 0
  1938                           ;C:\Program Files (x86)\Microchip\xc8\v2.10\pic\sources\c99\common\doprnt.c: 922:       
      +                                c = (*fmt)[0];
  1939  001E3C  C0B6  FFD9         	movff	vfpfcnvrt@fmt,fsr2l
  1940  001E40  C0B7  FFDA         	movff	vfpfcnvrt@fmt+1,fsr2h
  1941  001E44  CFDE FFF6          	movff	postinc2,tblptrl
  1942  001E48  CFDD FFF7          	movff	postdec2,tblptrh
  1943  001E4C                     	if	1	;Program memory is < 0x10000, tblptru is always zero
  1944  001E4C  6AF8               	clrf	tblptru,c
  1945  001E4E                     	endif
  1946  001E4E                     	if	0	;tblptru may be non-zero
  1947  001E4E                     	endif
  1948  001E4E  0008               	tblrd		*
  1949  001E50  CFF5 F0C3          	movff	tablat,vfpfcnvrt@c
  1950  001E54                     
  1951                           ; BSR set to: 0
  1952                           ;C:\Program Files (x86)\Microchip\xc8\v2.10\pic\sources\c99\common\doprnt.c: 923:       
      +                                ++*fmt;
  1953  001E54  C0B6  FFD9         	movff	vfpfcnvrt@fmt,fsr2l
  1954  001E58  C0B7  FFDA         	movff	vfpfcnvrt@fmt+1,fsr2h
  1955  001E5C  2ADE               	incf	postinc2,f,c
  1956  001E5E  0E00               	movlw	0
  1957  001E60  22DD               	addwfc	postdec2,f,c
  1958  001E62                     
  1959                           ; BSR set to: 0
  1960                           ;C:\Program Files (x86)\Microchip\xc8\v2.10\pic\sources\c99\common\doprnt.c: 924:       
      +                                f = (long double)(*(double *)__va_arg(*(double **)ap, (double)0));
  1961  001E62  C0B8  FFD9         	movff	vfpfcnvrt@ap,fsr2l
  1962  001E66  C0B9  FFDA         	movff	vfpfcnvrt@ap+1,fsr2h
  1963  001E6A  CFDF F04C          	movff	indf2,??_vfpfcnvrt
  1964  001E6E  0E04               	movlw	4
  1965  001E70  26DE               	addwf	postinc2,f,c
  1966  001E72  CFDF F04D          	movff	indf2,??_vfpfcnvrt+1
  1967  001E76  0E00               	movlw	0
  1968  001E78  22DD               	addwfc	postdec2,f,c
  1969  001E7A  C04C  FFD9         	movff	??_vfpfcnvrt,fsr2l
  1970  001E7E  C04D  FFDA         	movff	??_vfpfcnvrt+1,fsr2h
  1971  001E82  CFDE F0C4          	movff	postinc2,vfpfcnvrt@f
  1972  001E86  CFDE F0C5          	movff	postinc2,vfpfcnvrt@f+1
  1973  001E8A  CFDE F0C6          	movff	postinc2,vfpfcnvrt@f+2
  1974  001E8E  CFDE F0C7          	movff	postinc2,vfpfcnvrt@f+3
  1975  001E92                     l6367:
  1976                           
  1977                           ; BSR set to: 0
  1978                           ;C:\Program Files (x86)\Microchip\xc8\v2.10\pic\sources\c99\common\doprnt.c: 926:       
      +                                return efgtoa(fp, f, c);
  1979  001E92  C0B4  F070         	movff	vfpfcnvrt@fp,efgtoa@fp
  1980  001E96  C0B5  F071         	movff	vfpfcnvrt@fp+1,efgtoa@fp+1
  1981  001E9A  C0C4  F072         	movff	vfpfcnvrt@f,efgtoa@f
  1982  001E9E  C0C5  F073         	movff	vfpfcnvrt@f+1,efgtoa@f+1
  1983  001EA2  C0C6  F074         	movff	vfpfcnvrt@f+2,efgtoa@f+2
  1984  001EA6  C0C7  F075         	movff	vfpfcnvrt@f+3,efgtoa@f+3
  1985  001EAA  C0C3  F076         	movff	vfpfcnvrt@c,efgtoa@c
  1986  001EAE  EC2E  F008         	call	_efgtoa	;wreg free
  1987  001EB2  C070  F0B4         	movff	?_efgtoa,?_vfpfcnvrt
  1988  001EB6  C071  F0B5         	movff	?_efgtoa+1,?_vfpfcnvrt+1
  1989  001EBA  EF0D  F011         	goto	l628
  1990  001EBE                     l6371:
  1991                           
  1992                           ; BSR set to: 0
  1993                           ;C:\Program Files (x86)\Microchip\xc8\v2.10\pic\sources\c99\common\doprnt.c: 928:       
      +                            if (!strncmp(ct, "lf", ((sizeof("lf")/sizeof("lf"[0]))-1))) {
  1994  001EBE  0EC0               	movlw	low vfpfcnvrt@ct
  1995  001EC0  6E08               	movwf	strncmp@_l^0,c
  1996  001EC2  0E00               	movlw	high vfpfcnvrt@ct
  1997  001EC4  6E09               	movwf	(strncmp@_l+1)^0,c
  1998  001EC6  0E51               	movlw	low STR_15
  1999  001EC8  6E0A               	movwf	strncmp@_r^0,c
  2000  001ECA  0E10               	movlw	high STR_15
  2001  001ECC  6E0B               	movwf	(strncmp@_r+1)^0,c
  2002  001ECE  0E00               	movlw	0
  2003  001ED0  6E0D               	movwf	(strncmp@n+1)^0,c
  2004  001ED2  0E02               	movlw	2
  2005  001ED4  6E0C               	movwf	strncmp@n^0,c
  2006  001ED6  ECC0  F01D         	call	_strncmp	;wreg free
  2007  001EDA  5008               	movf	?_strncmp^0,w,c
  2008  001EDC  1009               	iorwf	(?_strncmp+1)^0,w,c
  2009  001EDE  A4D8               	btfss	status,2,c
  2010  001EE0  EF74  F00F         	goto	u8001
  2011  001EE4  EF76  F00F         	goto	u8000
  2012  001EE8                     u8001:
  2013  001EE8  EFF4  F00F         	goto	l6387
  2014  001EEC                     u8000:
  2015  001EEC                     
  2016                           ;C:\Program Files (x86)\Microchip\xc8\v2.10\pic\sources\c99\common\doprnt.c: 931:       
      +                                if ((0 ? isupper((int)(*fmt)[0]) : ((unsigned)((int)(*fmt)[0])-'A') < 26)) {
  2017  001EEC  C0B6  FFD9         	movff	vfpfcnvrt@fmt,fsr2l
  2018  001EF0  C0B7  FFDA         	movff	vfpfcnvrt@fmt+1,fsr2h
  2019  001EF4  CFDE F04C          	movff	postinc2,??_vfpfcnvrt
  2020  001EF8  CFDD F04D          	movff	postdec2,??_vfpfcnvrt+1
  2021  001EFC  0E01               	movlw	1
  2022  001EFE  264C               	addwf	??_vfpfcnvrt^0,f,c
  2023  001F00  0E00               	movlw	0
  2024  001F02  224D               	addwfc	(??_vfpfcnvrt+1)^0,f,c
  2025  001F04  C04C  FFF6         	movff	??_vfpfcnvrt,tblptrl
  2026  001F08  C04D  FFF7         	movff	??_vfpfcnvrt+1,tblptrh
  2027  001F0C                     	if	1	;Program memory is < 0x10000, tblptru is always zero
  2028  001F0C  6AF8               	clrf	tblptru,c
  2029  001F0E                     	endif
  2030  001F0E                     	if	0	;tblptru may be non-zero
  2031  001F0E                     	endif
  2032  001F0E  0008               	tblrd		*
  2033  001F10  CFF5 F0C3          	movff	tablat,vfpfcnvrt@c
  2034  001F14  0EBF               	movlw	191
  2035  001F16  6E4C               	movwf	??_vfpfcnvrt^0,c
  2036  001F18  0EFF               	movlw	255
  2037  001F1A  6E4D               	movwf	(??_vfpfcnvrt+1)^0,c
  2038  001F1C  C0B6  FFD9         	movff	vfpfcnvrt@fmt,fsr2l
  2039  001F20  C0B7  FFDA         	movff	vfpfcnvrt@fmt+1,fsr2h
  2040  001F24  CFDE FFF6          	movff	postinc2,tblptrl
  2041  001F28  CFDD FFF7          	movff	postdec2,tblptrh
  2042  001F2C                     	if	1	;Program memory is < 0x10000, tblptru is always zero
  2043  001F2C  6AF8               	clrf	tblptru,c
  2044  001F2E                     	endif
  2045  001F2E                     	if	0	;tblptru may be non-zero
  2046  001F2E                     	endif
  2047  001F2E  0008               	tblrd		*
  2048  001F30  50F5               	movf	tablat,w,c
  2049  001F32  6E4E               	movwf	(??_vfpfcnvrt+2)^0,c
  2050  001F34  6A4F               	clrf	(??_vfpfcnvrt+3)^0,c
  2051  001F36  504C               	movf	??_vfpfcnvrt^0,w,c
  2052  001F38  264E               	addwf	(??_vfpfcnvrt+2)^0,f,c
  2053  001F3A  504D               	movf	(??_vfpfcnvrt+1)^0,w,c
  2054  001F3C  224F               	addwfc	(??_vfpfcnvrt+3)^0,f,c
  2055  001F3E  504F               	movf	(??_vfpfcnvrt+3)^0,w,c
  2056  001F40  E10A               	bnz	u8010
  2057  001F42  0E1A               	movlw	26
  2058  001F44  5C4E               	subwf	(??_vfpfcnvrt+2)^0,w,c
  2059  001F46  A0D8               	btfss	status,0,c
  2060  001F48  EFA8  F00F         	goto	u8011
  2061  001F4C  EFAB  F00F         	goto	u8010
  2062  001F50                     u8011:
  2063  001F50  0E01               	movlw	1
  2064  001F52  EFAC  F00F         	goto	u8020
  2065  001F56                     u8010:
  2066  001F56  0E00               	movlw	0
  2067  001F58                     u8020:
  2068  001F58  0100               	movlb	0	; () banked
  2069  001F5A  6FBC               	movwf	_vfpfcnvrt$1776& (0+255),b
  2070  001F5C  6BBD               	clrf	(_vfpfcnvrt$1776+1)& (0+255),b
  2071  001F5E                     
  2072                           ; BSR set to: 0
  2073  001F5E  51BC               	movf	_vfpfcnvrt$1776& (0+255),w,b
  2074  001F60  11BD               	iorwf	(_vfpfcnvrt$1776+1)& (0+255),w,b
  2075  001F62  B4D8               	btfsc	status,2,c
  2076  001F64  EFB6  F00F         	goto	u8031
  2077  001F68  EFB8  F00F         	goto	u8030
  2078  001F6C                     u8031:
  2079  001F6C  EFD2  F00F         	goto	l6381
  2080  001F70                     u8030:
  2081  001F70                     
  2082                           ; BSR set to: 0
  2083                           ;C:\Program Files (x86)\Microchip\xc8\v2.10\pic\sources\c99\common\doprnt.c: 932:       
      +                                    f = (*(long double *)__va_arg(*(long double **)ap, (long double)0));
  2084  001F70  C0B8  FFD9         	movff	vfpfcnvrt@ap,fsr2l
  2085  001F74  C0B9  FFDA         	movff	vfpfcnvrt@ap+1,fsr2h
  2086  001F78  CFDF F04C          	movff	indf2,??_vfpfcnvrt
  2087  001F7C  0E04               	movlw	4
  2088  001F7E  26DE               	addwf	postinc2,f,c
  2089  001F80  CFDF F04D          	movff	indf2,??_vfpfcnvrt+1
  2090  001F84  0E00               	movlw	0
  2091  001F86  22DD               	addwfc	postdec2,f,c
  2092  001F88  C04C  FFD9         	movff	??_vfpfcnvrt,fsr2l
  2093  001F8C  C04D  FFDA         	movff	??_vfpfcnvrt+1,fsr2h
  2094  001F90  CFDE F0C4          	movff	postinc2,vfpfcnvrt@f
  2095  001F94  CFDE F0C5          	movff	postinc2,vfpfcnvrt@f+1
  2096  001F98  CFDE F0C6          	movff	postinc2,vfpfcnvrt@f+2
  2097  001F9C  CFDE F0C7          	movff	postinc2,vfpfcnvrt@f+3
  2098                           
  2099                           ;C:\Program Files (x86)\Microchip\xc8\v2.10\pic\sources\c99\common\doprnt.c: 933:       
      +                                } else {
  2100  001FA0  EFEA  F00F         	goto	l635
  2101  001FA4                     l6381:
  2102                           
  2103                           ; BSR set to: 0
  2104                           ;C:\Program Files (x86)\Microchip\xc8\v2.10\pic\sources\c99\common\doprnt.c: 934:       
      +                                    f = (long double)(*(double *)__va_arg(*(double **)ap, (double)0));
  2105  001FA4  C0B8  FFD9         	movff	vfpfcnvrt@ap,fsr2l
  2106  001FA8  C0B9  FFDA         	movff	vfpfcnvrt@ap+1,fsr2h
  2107  001FAC  CFDF F04C          	movff	indf2,??_vfpfcnvrt
  2108  001FB0  0E04               	movlw	4
  2109  001FB2  26DE               	addwf	postinc2,f,c
  2110  001FB4  CFDF F04D          	movff	indf2,??_vfpfcnvrt+1
  2111  001FB8  0E00               	movlw	0
  2112  001FBA  22DD               	addwfc	postdec2,f,c
  2113  001FBC  C04C  FFD9         	movff	??_vfpfcnvrt,fsr2l
  2114  001FC0  C04D  FFDA         	movff	??_vfpfcnvrt+1,fsr2h
  2115  001FC4  CFDE F0C4          	movff	postinc2,vfpfcnvrt@f
  2116  001FC8  CFDE F0C5          	movff	postinc2,vfpfcnvrt@f+1
  2117  001FCC  CFDE F0C6          	movff	postinc2,vfpfcnvrt@f+2
  2118  001FD0  CFDE F0C7          	movff	postinc2,vfpfcnvrt@f+3
  2119  001FD4                     l635:
  2120                           
  2121                           ; BSR set to: 0
  2122                           ;C:\Program Files (x86)\Microchip\xc8\v2.10\pic\sources\c99\common\doprnt.c: 936:       
      +                                *fmt += ((sizeof("lf")/sizeof("lf"[0]))-1);
  2123  001FD4  0E02               	movlw	2
  2124  001FD6  C0B6  FFD9         	movff	vfpfcnvrt@fmt,fsr2l
  2125  001FDA  C0B7  FFDA         	movff	vfpfcnvrt@fmt+1,fsr2h
  2126  001FDE  26DE               	addwf	postinc2,f,c
  2127  001FE0  0E00               	movlw	0
  2128  001FE2  22DD               	addwfc	postdec2,f,c
  2129  001FE4  EF49  F00F         	goto	l6367
  2130  001FE8                     l6387:
  2131                           
  2132                           ;C:\Program Files (x86)\Microchip\xc8\v2.10\pic\sources\c99\common\doprnt.c: 944:       
      +                            if (ct[0] == 'g') {
  2133  001FE8  0E67               	movlw	103
  2134  001FEA  0100               	movlb	0	; () banked
  2135  001FEC  19C0               	xorwf	vfpfcnvrt@ct& (0+255),w,b
  2136  001FEE  A4D8               	btfss	status,2,c
  2137  001FF0  EFFC  F00F         	goto	u8041
  2138  001FF4  EFFE  F00F         	goto	u8040
  2139  001FF8                     u8041:
  2140  001FF8  EF2B  F010         	goto	l6399
  2141  001FFC                     u8040:
  2142  001FFC                     
  2143                           ; BSR set to: 0
  2144                           ;C:\Program Files (x86)\Microchip\xc8\v2.10\pic\sources\c99\common\doprnt.c: 946:       
      +                                c = (*fmt)[0];
  2145  001FFC  C0B6  FFD9         	movff	vfpfcnvrt@fmt,fsr2l
  2146  002000  C0B7  FFDA         	movff	vfpfcnvrt@fmt+1,fsr2h
  2147  002004  CFDE FFF6          	movff	postinc2,tblptrl
  2148  002008  CFDD FFF7          	movff	postdec2,tblptrh
  2149  00200C                     	if	1	;Program memory is < 0x10000, tblptru is always zero
  2150  00200C  6AF8               	clrf	tblptru,c
  2151  00200E                     	endif
  2152  00200E                     	if	0	;tblptru may be non-zero
  2153  00200E                     	endif
  2154  00200E  0008               	tblrd		*
  2155  002010  CFF5 F0C3          	movff	tablat,vfpfcnvrt@c
  2156  002014                     
  2157                           ; BSR set to: 0
  2158                           ;C:\Program Files (x86)\Microchip\xc8\v2.10\pic\sources\c99\common\doprnt.c: 947:       
      +                                ++*fmt;
  2159  002014  C0B6  FFD9         	movff	vfpfcnvrt@fmt,fsr2l
  2160  002018  C0B7  FFDA         	movff	vfpfcnvrt@fmt+1,fsr2h
  2161  00201C  2ADE               	incf	postinc2,f,c
  2162  00201E  0E00               	movlw	0
  2163  002020  22DD               	addwfc	postdec2,f,c
  2164  002022                     
  2165                           ; BSR set to: 0
  2166                           ;C:\Program Files (x86)\Microchip\xc8\v2.10\pic\sources\c99\common\doprnt.c: 948:       
      +                                f = (long double)(*(double *)__va_arg(*(double **)ap, (double)0));
  2167  002022  C0B8  FFD9         	movff	vfpfcnvrt@ap,fsr2l
  2168  002026  C0B9  FFDA         	movff	vfpfcnvrt@ap+1,fsr2h
  2169  00202A  CFDF F04C          	movff	indf2,??_vfpfcnvrt
  2170  00202E  0E04               	movlw	4
  2171  002030  26DE               	addwf	postinc2,f,c
  2172  002032  CFDF F04D          	movff	indf2,??_vfpfcnvrt+1
  2173  002036  0E00               	movlw	0
  2174  002038  22DD               	addwfc	postdec2,f,c
  2175  00203A  C04C  FFD9         	movff	??_vfpfcnvrt,fsr2l
  2176  00203E  C04D  FFDA         	movff	??_vfpfcnvrt+1,fsr2h
  2177  002042  CFDE F0C4          	movff	postinc2,vfpfcnvrt@f
  2178  002046  CFDE F0C5          	movff	postinc2,vfpfcnvrt@f+1
  2179  00204A  CFDE F0C6          	movff	postinc2,vfpfcnvrt@f+2
  2180  00204E  CFDE F0C7          	movff	postinc2,vfpfcnvrt@f+3
  2181  002052  EF49  F00F         	goto	l6367
  2182  002056                     l6399:
  2183                           
  2184                           ; BSR set to: 0
  2185                           ;C:\Program Files (x86)\Microchip\xc8\v2.10\pic\sources\c99\common\doprnt.c: 952:       
      +                            if (!strncmp(ct, "lg", ((sizeof("lg")/sizeof("lg"[0]))-1))) {
  2186  002056  0EC0               	movlw	low vfpfcnvrt@ct
  2187  002058  6E08               	movwf	strncmp@_l^0,c
  2188  00205A  0E00               	movlw	high vfpfcnvrt@ct
  2189  00205C  6E09               	movwf	(strncmp@_l+1)^0,c
  2190  00205E  0E54               	movlw	low STR_20
  2191  002060  6E0A               	movwf	strncmp@_r^0,c
  2192  002062  0E10               	movlw	high STR_20
  2193  002064  6E0B               	movwf	(strncmp@_r+1)^0,c
  2194  002066  0E00               	movlw	0
  2195  002068  6E0D               	movwf	(strncmp@n+1)^0,c
  2196  00206A  0E02               	movlw	2
  2197  00206C  6E0C               	movwf	strncmp@n^0,c
  2198  00206E  ECC0  F01D         	call	_strncmp	;wreg free
  2199  002072  5008               	movf	?_strncmp^0,w,c
  2200  002074  1009               	iorwf	(?_strncmp+1)^0,w,c
  2201  002076  A4D8               	btfss	status,2,c
  2202  002078  EF40  F010         	goto	u8051
  2203  00207C  EF42  F010         	goto	u8050
  2204  002080                     u8051:
  2205  002080  EFB8  F010         	goto	l6415
  2206  002084                     u8050:
  2207  002084                     
  2208                           ;C:\Program Files (x86)\Microchip\xc8\v2.10\pic\sources\c99\common\doprnt.c: 955:       
      +                                if ((0 ? isupper((int)(*fmt)[0]) : ((unsigned)((int)(*fmt)[0])-'A') < 26)) {
  2209  002084  C0B6  FFD9         	movff	vfpfcnvrt@fmt,fsr2l
  2210  002088  C0B7  FFDA         	movff	vfpfcnvrt@fmt+1,fsr2h
  2211  00208C  CFDE F04C          	movff	postinc2,??_vfpfcnvrt
  2212  002090  CFDD F04D          	movff	postdec2,??_vfpfcnvrt+1
  2213  002094  0E01               	movlw	1
  2214  002096  264C               	addwf	??_vfpfcnvrt^0,f,c
  2215  002098  0E00               	movlw	0
  2216  00209A  224D               	addwfc	(??_vfpfcnvrt+1)^0,f,c
  2217  00209C  C04C  FFF6         	movff	??_vfpfcnvrt,tblptrl
  2218  0020A0  C04D  FFF7         	movff	??_vfpfcnvrt+1,tblptrh
  2219  0020A4                     	if	1	;Program memory is < 0x10000, tblptru is always zero
  2220  0020A4  6AF8               	clrf	tblptru,c
  2221  0020A6                     	endif
  2222  0020A6                     	if	0	;tblptru may be non-zero
  2223  0020A6                     	endif
  2224  0020A6  0008               	tblrd		*
  2225  0020A8  CFF5 F0C3          	movff	tablat,vfpfcnvrt@c
  2226  0020AC  0EBF               	movlw	191
  2227  0020AE  6E4C               	movwf	??_vfpfcnvrt^0,c
  2228  0020B0  0EFF               	movlw	255
  2229  0020B2  6E4D               	movwf	(??_vfpfcnvrt+1)^0,c
  2230  0020B4  C0B6  FFD9         	movff	vfpfcnvrt@fmt,fsr2l
  2231  0020B8  C0B7  FFDA         	movff	vfpfcnvrt@fmt+1,fsr2h
  2232  0020BC  CFDE FFF6          	movff	postinc2,tblptrl
  2233  0020C0  CFDD FFF7          	movff	postdec2,tblptrh
  2234  0020C4                     	if	1	;Program memory is < 0x10000, tblptru is always zero
  2235  0020C4  6AF8               	clrf	tblptru,c
  2236  0020C6                     	endif
  2237  0020C6                     	if	0	;tblptru may be non-zero
  2238  0020C6                     	endif
  2239  0020C6  0008               	tblrd		*
  2240  0020C8  50F5               	movf	tablat,w,c
  2241  0020CA  6E4E               	movwf	(??_vfpfcnvrt+2)^0,c
  2242  0020CC  6A4F               	clrf	(??_vfpfcnvrt+3)^0,c
  2243  0020CE  504C               	movf	??_vfpfcnvrt^0,w,c
  2244  0020D0  264E               	addwf	(??_vfpfcnvrt+2)^0,f,c
  2245  0020D2  504D               	movf	(??_vfpfcnvrt+1)^0,w,c
  2246  0020D4  224F               	addwfc	(??_vfpfcnvrt+3)^0,f,c
  2247  0020D6  504F               	movf	(??_vfpfcnvrt+3)^0,w,c
  2248  0020D8  E10A               	bnz	u8060
  2249  0020DA  0E1A               	movlw	26
  2250  0020DC  5C4E               	subwf	(??_vfpfcnvrt+2)^0,w,c
  2251  0020DE  A0D8               	btfss	status,0,c
  2252  0020E0  EF74  F010         	goto	u8061
  2253  0020E4  EF77  F010         	goto	u8060
  2254  0020E8                     u8061:
  2255  0020E8  0E01               	movlw	1
  2256  0020EA  EF78  F010         	goto	u8070
  2257  0020EE                     u8060:
  2258  0020EE  0E00               	movlw	0
  2259  0020F0                     u8070:
  2260  0020F0  0100               	movlb	0	; () banked
  2261  0020F2  6FBE               	movwf	_vfpfcnvrt$1780& (0+255),b
  2262  0020F4  6BBF               	clrf	(_vfpfcnvrt$1780+1)& (0+255),b
  2263  0020F6                     
  2264                           ; BSR set to: 0
  2265  0020F6  51BE               	movf	_vfpfcnvrt$1780& (0+255),w,b
  2266  0020F8  11BF               	iorwf	(_vfpfcnvrt$1780+1)& (0+255),w,b
  2267  0020FA  B4D8               	btfsc	status,2,c
  2268  0020FC  EF82  F010         	goto	u8081
  2269  002100  EF84  F010         	goto	u8080
  2270  002104                     u8081:
  2271  002104  EF9E  F010         	goto	l6409
  2272  002108                     u8080:
  2273  002108                     
  2274                           ; BSR set to: 0
  2275                           ;C:\Program Files (x86)\Microchip\xc8\v2.10\pic\sources\c99\common\doprnt.c: 956:       
      +                                    f = (*(long double *)__va_arg(*(long double **)ap, (long double)0));
  2276  002108  C0B8  FFD9         	movff	vfpfcnvrt@ap,fsr2l
  2277  00210C  C0B9  FFDA         	movff	vfpfcnvrt@ap+1,fsr2h
  2278  002110  CFDF F04C          	movff	indf2,??_vfpfcnvrt
  2279  002114  0E04               	movlw	4
  2280  002116  26DE               	addwf	postinc2,f,c
  2281  002118  CFDF F04D          	movff	indf2,??_vfpfcnvrt+1
  2282  00211C  0E00               	movlw	0
  2283  00211E  22DD               	addwfc	postdec2,f,c
  2284  002120  C04C  FFD9         	movff	??_vfpfcnvrt,fsr2l
  2285  002124  C04D  FFDA         	movff	??_vfpfcnvrt+1,fsr2h
  2286  002128  CFDE F0C4          	movff	postinc2,vfpfcnvrt@f
  2287  00212C  CFDE F0C5          	movff	postinc2,vfpfcnvrt@f+1
  2288  002130  CFDE F0C6          	movff	postinc2,vfpfcnvrt@f+2
  2289  002134  CFDE F0C7          	movff	postinc2,vfpfcnvrt@f+3
  2290                           
  2291                           ;C:\Program Files (x86)\Microchip\xc8\v2.10\pic\sources\c99\common\doprnt.c: 957:       
      +                                } else {
  2292  002138  EFEA  F00F         	goto	l635
  2293  00213C                     l6409:
  2294                           
  2295                           ; BSR set to: 0
  2296                           ;C:\Program Files (x86)\Microchip\xc8\v2.10\pic\sources\c99\common\doprnt.c: 958:       
      +                                    f = (long double)(*(double *)__va_arg(*(double **)ap, (double)0));
  2297  00213C  C0B8  FFD9         	movff	vfpfcnvrt@ap,fsr2l
  2298  002140  C0B9  FFDA         	movff	vfpfcnvrt@ap+1,fsr2h
  2299  002144  CFDF F04C          	movff	indf2,??_vfpfcnvrt
  2300  002148  0E04               	movlw	4
  2301  00214A  26DE               	addwf	postinc2,f,c
  2302  00214C  CFDF F04D          	movff	indf2,??_vfpfcnvrt+1
  2303  002150  0E00               	movlw	0
  2304  002152  22DD               	addwfc	postdec2,f,c
  2305  002154  C04C  FFD9         	movff	??_vfpfcnvrt,fsr2l
  2306  002158  C04D  FFDA         	movff	??_vfpfcnvrt+1,fsr2h
  2307  00215C  CFDE F0C4          	movff	postinc2,vfpfcnvrt@f
  2308  002160  CFDE F0C5          	movff	postinc2,vfpfcnvrt@f+1
  2309  002164  CFDE F0C6          	movff	postinc2,vfpfcnvrt@f+2
  2310  002168  CFDE F0C7          	movff	postinc2,vfpfcnvrt@f+3
  2311  00216C  EFEA  F00F         	goto	l635
  2312  002170                     l6415:
  2313                           
  2314                           ;C:\Program Files (x86)\Microchip\xc8\v2.10\pic\sources\c99\common\doprnt.c: 1350:      
      +                             if ((*fmt)[0] == '%') {
  2315  002170  C0B6  FFD9         	movff	vfpfcnvrt@fmt,fsr2l
  2316  002174  C0B7  FFDA         	movff	vfpfcnvrt@fmt+1,fsr2h
  2317  002178  CFDE FFF6          	movff	postinc2,tblptrl
  2318  00217C  CFDD FFF7          	movff	postdec2,tblptrh
  2319  002180                     	if	1	;Program memory is < 0x10000, tblptru is always zero
  2320  002180  6AF8               	clrf	tblptru,c
  2321  002182                     	endif
  2322  002182                     	if	0	;tblptru may be non-zero
  2323  002182                     	endif
  2324  002182  0008               	tblrd		*
  2325  002184  50F5               	movf	tablat,w,c
  2326  002186  0A25               	xorlw	37
  2327  002188  A4D8               	btfss	status,2,c
  2328  00218A  EFC9  F010         	goto	u8091
  2329  00218E  EFCB  F010         	goto	u8090
  2330  002192                     u8091:
  2331  002192  EFE3  F010         	goto	l6425
  2332  002196                     u8090:
  2333  002196                     
  2334                           ;C:\Program Files (x86)\Microchip\xc8\v2.10\pic\sources\c99\common\doprnt.c: 1351:      
      +                                 ++*fmt;
  2335  002196  C0B6  FFD9         	movff	vfpfcnvrt@fmt,fsr2l
  2336  00219A  C0B7  FFDA         	movff	vfpfcnvrt@fmt+1,fsr2h
  2337  00219E  2ADE               	incf	postinc2,f,c
  2338  0021A0  0E00               	movlw	0
  2339  0021A2  22DD               	addwfc	postdec2,f,c
  2340  0021A4                     
  2341                           ;C:\Program Files (x86)\Microchip\xc8\v2.10\pic\sources\c99\common\doprnt.c: 1352:      
      +                                 fputc((int)'%', fp);
  2342  0021A4  0E00               	movlw	0
  2343  0021A6  6E0B               	movwf	(fputc@c+1)^0,c
  2344  0021A8  0E25               	movlw	37
  2345  0021AA  6E0A               	movwf	fputc@c^0,c
  2346  0021AC  C0B4  F00C         	movff	vfpfcnvrt@fp,fputc@fp
  2347  0021B0  C0B5  F00D         	movff	vfpfcnvrt@fp+1,fputc@fp+1
  2348  0021B4  EC2E  F01E         	call	_fputc	;wreg free
  2349  0021B8                     l6421:
  2350                           
  2351                           ;C:\Program Files (x86)\Microchip\xc8\v2.10\pic\sources\c99\common\doprnt.c: 1353:      
      +                                 return 1;
  2352  0021B8  0E00               	movlw	0
  2353  0021BA  0100               	movlb	0	; () banked
  2354  0021BC  6FB5               	movwf	(?_vfpfcnvrt+1)& (0+255),b
  2355  0021BE  0E01               	movlw	1
  2356  0021C0  6FB4               	movwf	?_vfpfcnvrt& (0+255),b
  2357  0021C2  EF0D  F011         	goto	l628
  2358  0021C6                     l6425:
  2359                           
  2360                           ;C:\Program Files (x86)\Microchip\xc8\v2.10\pic\sources\c99\common\doprnt.c: 1357:      
      +                             ++*fmt;
  2361  0021C6  C0B6  FFD9         	movff	vfpfcnvrt@fmt,fsr2l
  2362  0021CA  C0B7  FFDA         	movff	vfpfcnvrt@fmt+1,fsr2h
  2363  0021CE  2ADE               	incf	postinc2,f,c
  2364  0021D0  0E00               	movlw	0
  2365  0021D2  22DD               	addwfc	postdec2,f,c
  2366  0021D4                     
  2367                           ;C:\Program Files (x86)\Microchip\xc8\v2.10\pic\sources\c99\common\doprnt.c: 1358:      
      +                             return 0;
  2368  0021D4  0E00               	movlw	0
  2369  0021D6  0100               	movlb	0	; () banked
  2370  0021D8  6FB5               	movwf	(?_vfpfcnvrt+1)& (0+255),b
  2371  0021DA  0E00               	movlw	0
  2372  0021DC  6FB4               	movwf	?_vfpfcnvrt& (0+255),b
  2373  0021DE  EF0D  F011         	goto	l628
  2374  0021E2                     l6431:
  2375                           
  2376                           ;C:\Program Files (x86)\Microchip\xc8\v2.10\pic\sources\c99\common\doprnt.c: 1362:     f
      +                          putc((int)(*fmt)[0], fp);
  2377  0021E2  C0B6  FFD9         	movff	vfpfcnvrt@fmt,fsr2l
  2378  0021E6  C0B7  FFDA         	movff	vfpfcnvrt@fmt+1,fsr2h
  2379  0021EA  CFDE FFF6          	movff	postinc2,tblptrl
  2380  0021EE  CFDD FFF7          	movff	postdec2,tblptrh
  2381  0021F2                     	if	1	;Program memory is < 0x10000, tblptru is always zero
  2382  0021F2  6AF8               	clrf	tblptru,c
  2383  0021F4                     	endif
  2384  0021F4                     	if	0	;tblptru may be non-zero
  2385  0021F4                     	endif
  2386  0021F4  0008               	tblrd		*
  2387  0021F6  50F5               	movf	tablat,w,c
  2388  0021F8  6E0A               	movwf	fputc@c^0,c
  2389  0021FA  6A0B               	clrf	(fputc@c+1)^0,c
  2390  0021FC  C0B4  F00C         	movff	vfpfcnvrt@fp,fputc@fp
  2391  002200  C0B5  F00D         	movff	vfpfcnvrt@fp+1,fputc@fp+1
  2392  002204  EC2E  F01E         	call	_fputc	;wreg free
  2393  002208                     
  2394                           ;C:\Program Files (x86)\Microchip\xc8\v2.10\pic\sources\c99\common\doprnt.c: 1363:     +
      +                          +*fmt;
  2395  002208  C0B6  FFD9         	movff	vfpfcnvrt@fmt,fsr2l
  2396  00220C  C0B7  FFDA         	movff	vfpfcnvrt@fmt+1,fsr2h
  2397  002210  2ADE               	incf	postinc2,f,c
  2398  002212  0E00               	movlw	0
  2399  002214  22DD               	addwfc	postdec2,f,c
  2400  002216  EFDC  F010         	goto	l6421
  2401  00221A                     l628:
  2402  00221A  0012               	return		;funcret
  2403  00221C                     __end_of_vfpfcnvrt:
  2404                           	opt callstack 0
  2405                           
  2406 ;; *************** function _strncmp *****************
  2407 ;; Defined at:
  2408 ;;		line 3 in file "C:\Program Files (x86)\Microchip\xc8\v2.10\pic\sources\c99\common\strncmp.c"
  2409 ;; Parameters:    Size  Location     Type
  2410 ;;  _l              2    7[COMRAM] PTR const unsigned char 
  2411 ;;		 -> vfpfcnvrt@ct(3), 
  2412 ;;  _r              2    9[COMRAM] PTR const unsigned char 
  2413 ;;		 -> STR_22(3), STR_17(3), 
  2414 ;;  n               2   11[COMRAM] unsigned int 
  2415 ;; Auto vars:     Size  Location     Type
  2416 ;;  r               2   16[COMRAM] PTR const unsigned char 
  2417 ;;		 -> STR_22(3), STR_17(3), 
  2418 ;;  l               2   14[COMRAM] PTR const unsigned char 
  2419 ;;		 -> vfpfcnvrt@ct(3), 
  2420 ;; Return value:  Size  Location     Type
  2421 ;;                  2    7[COMRAM] int 
  2422 ;; Registers used:
  2423 ;;		wreg, fsr2l, fsr2h, status,2, status,0, tblptrl, tblptrh, tblptru
  2424 ;; Tracked objects:
  2425 ;;		On entry : 0/0
  2426 ;;		On exit  : 0/0
  2427 ;;		Unchanged: 0/0
  2428 ;; Data sizes:     COMRAM   BANK0   BANK1   BANK2   BANK3   BANK4   BANK5   BANK6   BANK7   BANK8   BANK9  BANK10  BANK1
      +1  BANK12  BANK13  BANK14  BANK15
  2429 ;;      Params:         6       0       0       0       0       0       0       0       0       0       0       0       
      +0       0       0       0       0
  2430 ;;      Locals:         4       0       0       0       0       0       0       0       0       0       0       0       
      +0       0       0       0       0
  2431 ;;      Temps:          1       0       0       0       0       0       0       0       0       0       0       0       
      +0       0       0       0       0
  2432 ;;      Totals:        11       0       0       0       0       0       0       0       0       0       0       0       
      +0       0       0       0       0
  2433 ;;Total ram usage:       11 bytes
  2434 ;; Hardware stack levels used:    1
  2435 ;; Hardware stack levels required when called:    3
  2436 ;; This function calls:
  2437 ;;		Nothing
  2438 ;; This function is called by:
  2439 ;;		_vfpfcnvrt
  2440 ;; This function uses a non-reentrant model
  2441 ;;
  2442                           
  2443                           	psect	text5
  2444  003B80                     __ptext5:
  2445                           	opt callstack 0
  2446  003B80                     _strncmp:
  2447                           	opt callstack 24
  2448  003B80  C008  F00F         	movff	strncmp@_l,strncmp@l
  2449  003B84  C009  F010         	movff	strncmp@_l+1,strncmp@l+1
  2450  003B88  C00A  F011         	movff	strncmp@_r,strncmp@r
  2451  003B8C  C00B  F012         	movff	strncmp@_r+1,strncmp@r+1
  2452  003B90  060C               	decf	strncmp@n^0,f,c
  2453  003B92  A0D8               	btfss	status,0,c
  2454  003B94  060D               	decf	(strncmp@n+1)^0,f,c
  2455  003B96  280C               	incf	strncmp@n^0,w,c
  2456  003B98  E106               	bnz	u7861
  2457  003B9A  280D               	incf	(strncmp@n+1)^0,w,c
  2458  003B9C  A4D8               	btfss	status,2,c
  2459  003B9E  EFD3  F01D         	goto	u7861
  2460  003BA2  EFD5  F01D         	goto	u7860
  2461  003BA6                     u7861:
  2462  003BA6  EFE2  F01D         	goto	l6309
  2463  003BAA                     u7860:
  2464  003BAA  0E00               	movlw	0
  2465  003BAC  6E09               	movwf	(?_strncmp+1)^0,c
  2466  003BAE  0E00               	movlw	0
  2467  003BB0  6E08               	movwf	?_strncmp^0,c
  2468  003BB2  EF2D  F01E         	goto	l1449
  2469  003BB6                     l6307:
  2470  003BB6  4A0F               	infsnz	strncmp@l^0,f,c
  2471  003BB8  2A10               	incf	(strncmp@l+1)^0,f,c
  2472  003BBA  4A11               	infsnz	strncmp@r^0,f,c
  2473  003BBC  2A12               	incf	(strncmp@r+1)^0,f,c
  2474  003BBE  060C               	decf	strncmp@n^0,f,c
  2475  003BC0  A0D8               	btfss	status,0,c
  2476  003BC2  060D               	decf	(strncmp@n+1)^0,f,c
  2477  003BC4                     l6309:
  2478  003BC4  C00F  FFD9         	movff	strncmp@l,fsr2l
  2479  003BC8  C010  FFDA         	movff	strncmp@l+1,fsr2h
  2480  003BCC  50DF               	movf	indf2,w,c
  2481  003BCE  B4D8               	btfsc	status,2,c
  2482  003BD0  EFEC  F01D         	goto	u7871
  2483  003BD4  EFEE  F01D         	goto	u7870
  2484  003BD8                     u7871:
  2485  003BD8  EF1B  F01E         	goto	l6317
  2486  003BDC                     u7870:
  2487  003BDC  C011  FFF6         	movff	strncmp@r,tblptrl
  2488  003BE0  C012  FFF7         	movff	strncmp@r+1,tblptrh
  2489  003BE4                     	if	1	;Program memory is < 0x10000, tblptru is always zero
  2490  003BE4  6AF8               	clrf	tblptru,c
  2491  003BE6                     	endif
  2492  003BE6                     	if	0	;tblptru may be non-zero
  2493  003BE6                     	endif
  2494  003BE6  0008               	tblrd		*
  2495  003BE8  50F5               	movf	tablat,w,c
  2496  003BEA  0900               	iorlw	0
  2497  003BEC  B4D8               	btfsc	status,2,c
  2498  003BEE  EFFB  F01D         	goto	u7881
  2499  003BF2  EFFD  F01D         	goto	u7880
  2500  003BF6                     u7881:
  2501  003BF6  EF1B  F01E         	goto	l6317
  2502  003BFA                     u7880:
  2503  003BFA  500C               	movf	strncmp@n^0,w,c
  2504  003BFC  100D               	iorwf	(strncmp@n+1)^0,w,c
  2505  003BFE  B4D8               	btfsc	status,2,c
  2506  003C00  EF04  F01E         	goto	u7891
  2507  003C04  EF06  F01E         	goto	u7890
  2508  003C08                     u7891:
  2509  003C08  EF1B  F01E         	goto	l6317
  2510  003C0C                     u7890:
  2511  003C0C  C00F  FFD9         	movff	strncmp@l,fsr2l
  2512  003C10  C010  FFDA         	movff	strncmp@l+1,fsr2h
  2513  003C14  50DF               	movf	indf2,w,c
  2514  003C16  6E0E               	movwf	??_strncmp^0,c
  2515  003C18  C011  FFF6         	movff	strncmp@r,tblptrl
  2516  003C1C  C012  FFF7         	movff	strncmp@r+1,tblptrh
  2517  003C20                     	if	1	;Program memory is < 0x10000, tblptru is always zero
  2518  003C20  6AF8               	clrf	tblptru,c
  2519  003C22                     	endif
  2520  003C22                     	if	0	;tblptru may be non-zero
  2521  003C22                     	endif
  2522  003C22  0008               	tblrd		*
  2523  003C24  50F5               	movf	tablat,w,c
  2524  003C26  180E               	xorwf	??_strncmp^0,w,c
  2525  003C28  B4D8               	btfsc	status,2,c
  2526  003C2A  EF19  F01E         	goto	u7901
  2527  003C2E  EF1B  F01E         	goto	u7900
  2528  003C32                     u7901:
  2529  003C32  EFDB  F01D         	goto	l6307
  2530  003C36                     u7900:
  2531  003C36                     l6317:
  2532  003C36  C00F  FFD9         	movff	strncmp@l,fsr2l
  2533  003C3A  C010  FFDA         	movff	strncmp@l+1,fsr2h
  2534  003C3E  50DF               	movf	indf2,w,c
  2535  003C40  6E0E               	movwf	??_strncmp^0,c
  2536  003C42  C011  FFF6         	movff	strncmp@r,tblptrl
  2537  003C46  C012  FFF7         	movff	strncmp@r+1,tblptrh
  2538  003C4A                     	if	1	;Program memory is < 0x10000, tblptru is always zero
  2539  003C4A  6AF8               	clrf	tblptru,c
  2540  003C4C                     	endif
  2541  003C4C                     	if	0	;tblptru may be non-zero
  2542  003C4C                     	endif
  2543  003C4C  0008               	tblrd		*
  2544  003C4E  50F5               	movf	tablat,w,c
  2545  003C50  5C0E               	subwf	??_strncmp^0,w,c
  2546  003C52  6E08               	movwf	?_strncmp^0,c
  2547  003C54  6A09               	clrf	(?_strncmp+1)^0,c
  2548  003C56  A0D8               	btfss	status,0,c
  2549  003C58  0609               	decf	(?_strncmp+1)^0,f,c
  2550  003C5A                     l1449:
  2551  003C5A  0012               	return		;funcret
  2552  003C5C                     __end_of_strncmp:
  2553                           	opt callstack 0
  2554                           
  2555 ;; *************** function _efgtoa *****************
  2556 ;; Defined at:
  2557 ;;		line 319 in file "C:\Program Files (x86)\Microchip\xc8\v2.10\pic\sources\c99\common\doprnt.c"
  2558 ;; Parameters:    Size  Location     Type
  2559 ;;  fp              2   16[BANK0 ] PTR struct _IO_FILE
  2560 ;;		 -> sprintf@f(6), NULL(0), 
  2561 ;;  f               4   18[BANK0 ] PTR struct _IO_FILE
  2562 ;;  c               1   22[BANK0 ] unsigned char 
  2563 ;; Auto vars:     Size  Location     Type
  2564 ;;  u               4   80[BANK0 ] unsigned char 
  2565 ;;  g               4   72[BANK0 ] unsigned char 
  2566 ;;  l               4   66[BANK0 ] unsigned char 
  2567 ;;  h               4   62[BANK0 ] unsigned char 
  2568 ;;  ou              4   28[BANK0 ] unsigned char 
  2569 ;;  n               2   78[BANK0 ] int 
  2570 ;;  e               2   76[BANK0 ] int 
  2571 ;;  i               2   70[BANK0 ] int 
  2572 ;;  w               2   59[BANK0 ] int 
  2573 ;;  p               2   56[BANK0 ] int 
  2574 ;;  sign            2   54[BANK0 ] int 
  2575 ;;  d               2   52[BANK0 ] int 
  2576 ;;  ne              2   50[BANK0 ] int 
  2577 ;;  m               2   48[BANK0 ] int 
  2578 ;;  pp              2   46[BANK0 ] int 
  2579 ;;  t               2   44[BANK0 ] int 
  2580 ;;  mode            1   61[BANK0 ] unsigned char 
  2581 ;;  nmode           1   58[BANK0 ] unsigned char 
  2582 ;; Return value:  Size  Location     Type
  2583 ;;                  2   16[BANK0 ] int 
  2584 ;; Registers used:
  2585 ;;		wreg, fsr0l, fsr0h, fsr1l, fsr1h, fsr2l, fsr2h, status,2, status,0, tblptrl, tblptrh, tblptru, prodl, prodh, cstack
  2586 ;; Tracked objects:
  2587 ;;		On entry : 0/0
  2588 ;;		On exit  : 0/0
  2589 ;;		Unchanged: 0/0
  2590 ;; Data sizes:     COMRAM   BANK0   BANK1   BANK2   BANK3   BANK4   BANK5   BANK6   BANK7   BANK8   BANK9  BANK10  BANK1
      +1  BANK12  BANK13  BANK14  BANK15
  2591 ;;      Params:         0       7       0       0       0       0       0       0       0       0       0       0       
      +0       0       0       0       0
  2592 ;;      Locals:         0      56       0       0       0       0       0       0       0       0       0       0       
      +0       0       0       0       0
  2593 ;;      Temps:          0       5       0       0       0       0       0       0       0       0       0       0       
      +0       0       0       0       0
  2594 ;;      Totals:         0      68       0       0       0       0       0       0       0       0       0       0       
      +0       0       0       0       0
  2595 ;;Total ram usage:       68 bytes
  2596 ;; Hardware stack levels used:    1
  2597 ;; Hardware stack levels required when called:    8
  2598 ;; This function calls:
  2599 ;;		___awdiv
  2600 ;;		___awmod
  2601 ;;		___fladd
  2602 ;;		___fldiv
  2603 ;;		___fleq
  2604 ;;		___flge
  2605 ;;		___flmul
  2606 ;;		___flneg
  2607 ;;		___flsub
  2608 ;;		___fltol
  2609 ;;		___fpclassifyf
  2610 ;;		_floorf
  2611 ;;		_isupper
  2612 ;;		_pad
  2613 ;;		_strcpy
  2614 ;;		_tolower
  2615 ;; This function is called by:
  2616 ;;		_vfpfcnvrt
  2617 ;; This function uses a non-reentrant model
  2618 ;;
  2619                           
  2620                           	psect	text6
  2621  00105C                     __ptext6:
  2622                           	opt callstack 0
  2623  00105C                     _efgtoa:
  2624                           	opt callstack 19
  2625  00105C                     
  2626                           ;C:\Program Files (x86)\Microchip\xc8\v2.10\pic\sources\c99\common\doprnt.c: 319: static
      +                           int efgtoa(FILE *fp, long double f, char c);C:\Program Files (x86)\Microchip\xc8\v2.10\
      +                          pic\sources\c99\common\doprnt.c: 320: {;C:\Program Files (x86)\Microchip\xc8\v2.10\pic\s
      +                          ources\c99\common\doprnt.c: 321:     char mode, nmode;;C:\Program Files (x86)\Microchip\
      +                          xc8\v2.10\pic\sources\c99\common\doprnt.c: 322:     int d, e, i, m, n, ne, p, pp, sign, 
      +                          t, w;;C:\Program Files (x86)\Microchip\xc8\v2.10\pic\sources\c99\common\doprnt.c: 323:  
      +                             long double g, h, l, ou, u;
  2627  00105C  0E00               	movlw	0
  2628  00105E  0100               	movlb	0	; () banked
  2629  001060  6F97               	movwf	(efgtoa@sign+1)& (0+255),b
  2630  001062  0E00               	movlw	0
  2631  001064  6F96               	movwf	efgtoa@sign& (0+255),b
  2632  001066                     
  2633                           ; BSR set to: 0
  2634                           ;C:\Program Files (x86)\Microchip\xc8\v2.10\pic\sources\c99\common\doprnt.c: 327:     g 
      +                          = f;
  2635  001066  C072  F0A8         	movff	efgtoa@f,efgtoa@g
  2636  00106A  C073  F0A9         	movff	efgtoa@f+1,efgtoa@g+1
  2637  00106E  C074  F0AA         	movff	efgtoa@f+2,efgtoa@g+2
  2638  001072  C075  F0AB         	movff	efgtoa@f+3,efgtoa@g+3
  2639  001076                     
  2640                           ; BSR set to: 0
  2641                           ;C:\Program Files (x86)\Microchip\xc8\v2.10\pic\sources\c99\common\doprnt.c: 328:     if
      +                           (g < 0.0) {
  2642  001076  BFAB               	btfsc	(efgtoa@g+3)& (0+255),7,b
  2643  001078  EF42  F008         	goto	u7270
  2644  00107C  EF40  F008         	goto	u7271
  2645  001080                     u7271:
  2646  001080  EF58  F008         	goto	l5971
  2647  001084                     u7270:
  2648  001084                     
  2649                           ; BSR set to: 0
  2650                           ;C:\Program Files (x86)\Microchip\xc8\v2.10\pic\sources\c99\common\doprnt.c: 329:       
      +                            sign = 1;
  2651  001084  0E00               	movlw	0
  2652  001086  6F97               	movwf	(efgtoa@sign+1)& (0+255),b
  2653  001088  0E01               	movlw	1
  2654  00108A  6F96               	movwf	efgtoa@sign& (0+255),b
  2655  00108C                     
  2656                           ; BSR set to: 0
  2657                           ;C:\Program Files (x86)\Microchip\xc8\v2.10\pic\sources\c99\common\doprnt.c: 330:       
      +                            g = -g;
  2658  00108C  C0A8  F008         	movff	efgtoa@g,___flneg@f1
  2659  001090  C0A9  F009         	movff	efgtoa@g+1,___flneg@f1+1
  2660  001094  C0AA  F00A         	movff	efgtoa@g+2,___flneg@f1+2
  2661  001098  C0AB  F00B         	movff	efgtoa@g+3,___flneg@f1+3
  2662  00109C  EC9C  F022         	call	___flneg	;wreg free
  2663  0010A0  C008  F0A8         	movff	?___flneg,efgtoa@g
  2664  0010A4  C009  F0A9         	movff	?___flneg+1,efgtoa@g+1
  2665  0010A8  C00A  F0AA         	movff	?___flneg+2,efgtoa@g+2
  2666  0010AC  C00B  F0AB         	movff	?___flneg+3,efgtoa@g+3
  2667  0010B0                     l5971:
  2668                           
  2669                           ;C:\Program Files (x86)\Microchip\xc8\v2.10\pic\sources\c99\common\doprnt.c: 334:     n 
      +                          = 0;
  2670  0010B0  0E00               	movlw	0
  2671  0010B2  0100               	movlb	0	; () banked
  2672  0010B4  6FAF               	movwf	(efgtoa@n+1)& (0+255),b
  2673  0010B6  0E00               	movlw	0
  2674  0010B8  6FAE               	movwf	efgtoa@n& (0+255),b
  2675  0010BA                     
  2676                           ; BSR set to: 0
  2677                           ;C:\Program Files (x86)\Microchip\xc8\v2.10\pic\sources\c99\common\doprnt.c: 335:     w 
      +                          = width;
  2678  0010BA  C0ED  F09B         	movff	_width,efgtoa@w
  2679  0010BE  C0EE  F09C         	movff	_width+1,efgtoa@w+1
  2680  0010C2                     
  2681                           ; BSR set to: 0
  2682                           ;C:\Program Files (x86)\Microchip\xc8\v2.10\pic\sources\c99\common\doprnt.c: 336:     if
      +                           (sign || (flags & (1 << 2))) {
  2683  0010C2  5196               	movf	efgtoa@sign& (0+255),w,b
  2684  0010C4  1197               	iorwf	(efgtoa@sign+1)& (0+255),w,b
  2685  0010C6  A4D8               	btfss	status,2,c
  2686  0010C8  EF68  F008         	goto	u7281
  2687  0010CC  EF6A  F008         	goto	u7280
  2688  0010D0                     u7281:
  2689  0010D0  EF71  F008         	goto	l5979
  2690  0010D4                     u7280:
  2691  0010D4                     
  2692                           ; BSR set to: 0
  2693  0010D4  A450               	btfss	_flags^0,2,c
  2694  0010D6  EF6F  F008         	goto	u7291
  2695  0010DA  EF71  F008         	goto	u7290
  2696  0010DE                     u7291:
  2697  0010DE  EF8B  F008         	goto	l5991
  2698  0010E2                     u7290:
  2699  0010E2                     l5979:
  2700                           
  2701                           ; BSR set to: 0
  2702                           ;C:\Program Files (x86)\Microchip\xc8\v2.10\pic\sources\c99\common\doprnt.c: 337:       
      +                            dbuf[n] = sign ? '-' : '+';
  2703  0010E2  5196               	movf	efgtoa@sign& (0+255),w,b
  2704  0010E4  1197               	iorwf	(efgtoa@sign+1)& (0+255),w,b
  2705  0010E6  A4D8               	btfss	status,2,c
  2706  0010E8  EF78  F008         	goto	u7301
  2707  0010EC  EF7A  F008         	goto	u7300
  2708  0010F0                     u7301:
  2709  0010F0  EF80  F008         	goto	l5983
  2710  0010F4                     u7300:
  2711  0010F4                     
  2712                           ; BSR set to: 0
  2713  0010F4  0E00               	movlw	0
  2714  0010F6  6F81               	movwf	(_efgtoa$1746+1)& (0+255),b
  2715  0010F8  0E2B               	movlw	43
  2716  0010FA  6F80               	movwf	_efgtoa$1746& (0+255),b
  2717  0010FC  EF84  F008         	goto	l5985
  2718  001100                     l5983:
  2719                           
  2720                           ; BSR set to: 0
  2721  001100  0E00               	movlw	0
  2722  001102  6F81               	movwf	(_efgtoa$1746+1)& (0+255),b
  2723  001104  0E2D               	movlw	45
  2724  001106  6F80               	movwf	_efgtoa$1746& (0+255),b
  2725  001108                     l5985:
  2726                           
  2727                           ; BSR set to: 0
  2728  001108  C080  F108         	movff	_efgtoa$1746,_dbuf
  2729  00110C                     
  2730                           ; BSR set to: 0
  2731                           ;C:\Program Files (x86)\Microchip\xc8\v2.10\pic\sources\c99\common\doprnt.c: 338:       
      +                            ++n;
  2732  00110C  4BAE               	infsnz	efgtoa@n& (0+255),f,b
  2733  00110E  2BAF               	incf	(efgtoa@n+1)& (0+255),f,b
  2734  001110                     
  2735                           ; BSR set to: 0
  2736                           ;C:\Program Files (x86)\Microchip\xc8\v2.10\pic\sources\c99\common\doprnt.c: 339:       
      +                            --w;
  2737  001110  079B               	decf	efgtoa@w& (0+255),f,b
  2738  001112  A0D8               	btfss	status,0,c
  2739  001114  079C               	decf	(efgtoa@w+1)& (0+255),f,b
  2740  001116                     l5991:
  2741                           
  2742                           ; BSR set to: 0
  2743                           ;C:\Program Files (x86)\Microchip\xc8\v2.10\pic\sources\c99\common\doprnt.c: 344:       
      +                            if ((0 ? isupper((int)c) : ((unsigned)((int)c)-'A') < 26)) {
  2744  001116  C0A8  F008         	movff	efgtoa@g,___fpclassifyf@x
  2745  00111A  C0A9  F009         	movff	efgtoa@g+1,___fpclassifyf@x+1
  2746  00111E  C0AA  F00A         	movff	efgtoa@g+2,___fpclassifyf@x+2
  2747  001122  C0AB  F00B         	movff	efgtoa@g+3,___fpclassifyf@x+3
  2748  001126  EC41  F01D         	call	___fpclassifyf	;wreg free
  2749  00112A  0408               	decf	?___fpclassifyf^0,w,c
  2750  00112C  1009               	iorwf	(?___fpclassifyf+1)^0,w,c
  2751  00112E  A4D8               	btfss	status,2,c
  2752  001130  EF9C  F008         	goto	u7311
  2753  001134  EF9E  F008         	goto	u7310
  2754  001138                     u7311:
  2755  001138  EFF5  F008         	goto	l6009
  2756  00113C                     u7310:
  2757  00113C  0EBF               	movlw	191
  2758  00113E  0100               	movlb	0	; () banked
  2759  001140  6F77               	movwf	??_efgtoa& (0+255),b
  2760  001142  0EFF               	movlw	255
  2761  001144  6F78               	movwf	(??_efgtoa+1)& (0+255),b
  2762  001146  5176               	movf	efgtoa@c& (0+255),w,b
  2763  001148  6F79               	movwf	(??_efgtoa+2)& (0+255),b
  2764  00114A  6B7A               	clrf	(??_efgtoa+3)& (0+255),b
  2765  00114C  5177               	movf	??_efgtoa& (0+255),w,b
  2766  00114E  2779               	addwf	(??_efgtoa+2)& (0+255),f,b
  2767  001150  5178               	movf	(??_efgtoa+1)& (0+255),w,b
  2768  001152  237A               	addwfc	(??_efgtoa+3)& (0+255),f,b
  2769  001154  517A               	movf	(??_efgtoa+3)& (0+255),w,b
  2770  001156  E10A               	bnz	u7320
  2771  001158  0E1A               	movlw	26
  2772  00115A  5D79               	subwf	(??_efgtoa+2)& (0+255),w,b
  2773  00115C  A0D8               	btfss	status,0,c
  2774  00115E  EFB3  F008         	goto	u7321
  2775  001162  EFB6  F008         	goto	u7320
  2776  001166                     u7321:
  2777  001166  0E01               	movlw	1
  2778  001168  EFB7  F008         	goto	u7330
  2779  00116C                     u7320:
  2780  00116C  0E00               	movlw	0
  2781  00116E                     u7330:
  2782  00116E  6F82               	movwf	_efgtoa$1747& (0+255),b
  2783  001170  6B83               	clrf	(_efgtoa$1747+1)& (0+255),b
  2784  001172                     
  2785                           ; BSR set to: 0
  2786  001172  5182               	movf	_efgtoa$1747& (0+255),w,b
  2787  001174  1183               	iorwf	(_efgtoa$1747+1)& (0+255),w,b
  2788  001176  B4D8               	btfsc	status,2,c
  2789  001178  EFC0  F008         	goto	u7341
  2790  00117C  EFC2  F008         	goto	u7340
  2791  001180                     u7341:
  2792  001180  EFD0  F008         	goto	l6001
  2793  001184                     u7340:
  2794  001184                     
  2795                           ; BSR set to: 0
  2796                           ;C:\Program Files (x86)\Microchip\xc8\v2.10\pic\sources\c99\common\doprnt.c: 345:       
      +                                strcpy(&dbuf[n], "INF");
  2797  001184  0E08               	movlw	low _dbuf
  2798  001186  25AE               	addwf	efgtoa@n& (0+255),w,b
  2799  001188  6E08               	movwf	strcpy@dest^0,c
  2800  00118A  0E01               	movlw	high _dbuf
  2801  00118C  21AF               	addwfc	(efgtoa@n+1)& (0+255),w,b
  2802  00118E  6E09               	movwf	(strcpy@dest+1)^0,c
  2803  001190  0E41               	movlw	low STR_7
  2804  001192  6E0A               	movwf	strcpy@src^0,c
  2805  001194  0E10               	movlw	high STR_7
  2806  001196  6E0B               	movwf	(strcpy@src+1)^0,c
  2807  001198  ECDB  F020         	call	_strcpy	;wreg free
  2808                           
  2809                           ;C:\Program Files (x86)\Microchip\xc8\v2.10\pic\sources\c99\common\doprnt.c: 346:       
      +                            } else {
  2810  00119C  EFDC  F008         	goto	l6003
  2811  0011A0                     l6001:
  2812                           
  2813                           ; BSR set to: 0
  2814                           ;C:\Program Files (x86)\Microchip\xc8\v2.10\pic\sources\c99\common\doprnt.c: 347:       
      +                                strcpy(&dbuf[n], "inf");
  2815  0011A0  0E08               	movlw	low _dbuf
  2816  0011A2  25AE               	addwf	efgtoa@n& (0+255),w,b
  2817  0011A4  6E08               	movwf	strcpy@dest^0,c
  2818  0011A6  0E01               	movlw	high _dbuf
  2819  0011A8  21AF               	addwfc	(efgtoa@n+1)& (0+255),w,b
  2820  0011AA  6E09               	movwf	(strcpy@dest+1)^0,c
  2821  0011AC  0E49               	movlw	low STR_8
  2822  0011AE  6E0A               	movwf	strcpy@src^0,c
  2823  0011B0  0E10               	movlw	high STR_8
  2824  0011B2  6E0B               	movwf	(strcpy@src+1)^0,c
  2825  0011B4  ECDB  F020         	call	_strcpy	;wreg free
  2826  0011B8                     l6003:
  2827                           
  2828                           ;C:\Program Files (x86)\Microchip\xc8\v2.10\pic\sources\c99\common\doprnt.c: 349:       
      +                            w -= ((sizeof("inf")/sizeof("inf"[0]))-1);
  2829  0011B8  0100               	movlb	0	; () banked
  2830  0011BA  0EFD               	movlw	253
  2831  0011BC  279B               	addwf	efgtoa@w& (0+255),f,b
  2832  0011BE  0EFF               	movlw	255
  2833  0011C0  239C               	addwfc	(efgtoa@w+1)& (0+255),f,b
  2834  0011C2                     l6005:
  2835                           
  2836                           ;C:\Program Files (x86)\Microchip\xc8\v2.10\pic\sources\c99\common\doprnt.c: 350:       
      +                            return pad(fp, &dbuf[0], w);
  2837  0011C2  C070  F01A         	movff	efgtoa@fp,pad@fp
  2838  0011C6  C071  F01B         	movff	efgtoa@fp+1,pad@fp+1
  2839  0011CA  0E08               	movlw	low _dbuf
  2840  0011CC  6E1C               	movwf	pad@buf^0,c
  2841  0011CE  0E01               	movlw	high _dbuf
  2842  0011D0  6E1D               	movwf	(pad@buf+1)^0,c
  2843  0011D2  C09B  F01E         	movff	efgtoa@w,pad@p
  2844  0011D6  C09C  F01F         	movff	efgtoa@w+1,pad@p+1
  2845  0011DA  ECF5  F01E         	call	_pad	;wreg free
  2846  0011DE  C01A  F070         	movff	?_pad,?_efgtoa
  2847  0011E2  C01B  F071         	movff	?_pad+1,?_efgtoa+1
  2848  0011E6  EF06  F00E         	goto	l538
  2849  0011EA                     l6009:
  2850                           
  2851                           ;C:\Program Files (x86)\Microchip\xc8\v2.10\pic\sources\c99\common\doprnt.c: 353:       
      +                            if ((0 ? isupper((int)c) : ((unsigned)((int)c)-'A') < 26)) {
  2852  0011EA  C0A8  F008         	movff	efgtoa@g,___fpclassifyf@x
  2853  0011EE  C0A9  F009         	movff	efgtoa@g+1,___fpclassifyf@x+1
  2854  0011F2  C0AA  F00A         	movff	efgtoa@g+2,___fpclassifyf@x+2
  2855  0011F6  C0AB  F00B         	movff	efgtoa@g+3,___fpclassifyf@x+3
  2856  0011FA  EC41  F01D         	call	___fpclassifyf	;wreg free
  2857  0011FE  5008               	movf	?___fpclassifyf^0,w,c
  2858  001200  1009               	iorwf	(?___fpclassifyf+1)^0,w,c
  2859  001202  A4D8               	btfss	status,2,c
  2860  001204  EF06  F009         	goto	u7351
  2861  001208  EF08  F009         	goto	u7350
  2862  00120C                     u7351:
  2863  00120C  EF48  F009         	goto	l6027
  2864  001210                     u7350:
  2865  001210  0EBF               	movlw	191
  2866  001212  0100               	movlb	0	; () banked
  2867  001214  6F77               	movwf	??_efgtoa& (0+255),b
  2868  001216  0EFF               	movlw	255
  2869  001218  6F78               	movwf	(??_efgtoa+1)& (0+255),b
  2870  00121A  5176               	movf	efgtoa@c& (0+255),w,b
  2871  00121C  6F79               	movwf	(??_efgtoa+2)& (0+255),b
  2872  00121E  6B7A               	clrf	(??_efgtoa+3)& (0+255),b
  2873  001220  5177               	movf	??_efgtoa& (0+255),w,b
  2874  001222  2779               	addwf	(??_efgtoa+2)& (0+255),f,b
  2875  001224  5178               	movf	(??_efgtoa+1)& (0+255),w,b
  2876  001226  237A               	addwfc	(??_efgtoa+3)& (0+255),f,b
  2877  001228  517A               	movf	(??_efgtoa+3)& (0+255),w,b
  2878  00122A  E10A               	bnz	u7360
  2879  00122C  0E1A               	movlw	26
  2880  00122E  5D79               	subwf	(??_efgtoa+2)& (0+255),w,b
  2881  001230  A0D8               	btfss	status,0,c
  2882  001232  EF1D  F009         	goto	u7361
  2883  001236  EF20  F009         	goto	u7360
  2884  00123A                     u7361:
  2885  00123A  0E01               	movlw	1
  2886  00123C  EF21  F009         	goto	u7370
  2887  001240                     u7360:
  2888  001240  0E00               	movlw	0
  2889  001242                     u7370:
  2890  001242  6F84               	movwf	_efgtoa$1752& (0+255),b
  2891  001244  6B85               	clrf	(_efgtoa$1752+1)& (0+255),b
  2892  001246                     
  2893                           ; BSR set to: 0
  2894  001246  5184               	movf	_efgtoa$1752& (0+255),w,b
  2895  001248  1185               	iorwf	(_efgtoa$1752+1)& (0+255),w,b
  2896  00124A  B4D8               	btfsc	status,2,c
  2897  00124C  EF2A  F009         	goto	u7381
  2898  001250  EF2C  F009         	goto	u7380
  2899  001254                     u7381:
  2900  001254  EF3A  F009         	goto	l6019
  2901  001258                     u7380:
  2902  001258                     
  2903                           ; BSR set to: 0
  2904                           ;C:\Program Files (x86)\Microchip\xc8\v2.10\pic\sources\c99\common\doprnt.c: 354:       
      +                                strcpy(&dbuf[n], "NAN");
  2905  001258  0E08               	movlw	low _dbuf
  2906  00125A  25AE               	addwf	efgtoa@n& (0+255),w,b
  2907  00125C  6E08               	movwf	strcpy@dest^0,c
  2908  00125E  0E01               	movlw	high _dbuf
  2909  001260  21AF               	addwfc	(efgtoa@n+1)& (0+255),w,b
  2910  001262  6E09               	movwf	(strcpy@dest+1)^0,c
  2911  001264  0E45               	movlw	low STR_11
  2912  001266  6E0A               	movwf	strcpy@src^0,c
  2913  001268  0E10               	movlw	high STR_11
  2914  00126A  6E0B               	movwf	(strcpy@src+1)^0,c
  2915  00126C  ECDB  F020         	call	_strcpy	;wreg free
  2916                           
  2917                           ;C:\Program Files (x86)\Microchip\xc8\v2.10\pic\sources\c99\common\doprnt.c: 355:       
      +                            } else {
  2918  001270  EFDC  F008         	goto	l6003
  2919  001274                     l6019:
  2920                           
  2921                           ; BSR set to: 0
  2922                           ;C:\Program Files (x86)\Microchip\xc8\v2.10\pic\sources\c99\common\doprnt.c: 356:       
      +                                strcpy(&dbuf[n], "nan");
  2923  001274  0E08               	movlw	low _dbuf
  2924  001276  25AE               	addwf	efgtoa@n& (0+255),w,b
  2925  001278  6E08               	movwf	strcpy@dest^0,c
  2926  00127A  0E01               	movlw	high _dbuf
  2927  00127C  21AF               	addwfc	(efgtoa@n+1)& (0+255),w,b
  2928  00127E  6E09               	movwf	(strcpy@dest+1)^0,c
  2929  001280  0E4D               	movlw	low STR_12
  2930  001282  6E0A               	movwf	strcpy@src^0,c
  2931  001284  0E10               	movlw	high STR_12
  2932  001286  6E0B               	movwf	(strcpy@src+1)^0,c
  2933  001288  ECDB  F020         	call	_strcpy	;wreg free
  2934  00128C  EFDC  F008         	goto	l6003
  2935  001290                     l6027:
  2936                           
  2937                           ;C:\Program Files (x86)\Microchip\xc8\v2.10\pic\sources\c99\common\doprnt.c: 363:     u 
      +                          = 1.0;
  2938  001290  0E00               	movlw	0
  2939  001292  0100               	movlb	0	; () banked
  2940  001294  6FB0               	movwf	efgtoa@u& (0+255),b
  2941  001296  0E00               	movlw	0
  2942  001298  6FB1               	movwf	(efgtoa@u+1)& (0+255),b
  2943  00129A  0E80               	movlw	128
  2944  00129C  6FB2               	movwf	(efgtoa@u+2)& (0+255),b
  2945  00129E  0E3F               	movlw	63
  2946  0012A0  6FB3               	movwf	(efgtoa@u+3)& (0+255),b
  2947                           
  2948                           ;C:\Program Files (x86)\Microchip\xc8\v2.10\pic\sources\c99\common\doprnt.c: 364:     e 
      +                          = 0;
  2949  0012A2  0E00               	movlw	0
  2950  0012A4  6FAD               	movwf	(efgtoa@e+1)& (0+255),b
  2951  0012A6  0E00               	movlw	0
  2952  0012A8  6FAC               	movwf	efgtoa@e& (0+255),b
  2953  0012AA                     
  2954                           ; BSR set to: 0
  2955                           ;C:\Program Files (x86)\Microchip\xc8\v2.10\pic\sources\c99\common\doprnt.c: 365:     if
      +                           (!(g == 0.0)) {
  2956  0012AA  C0A8  F008         	movff	efgtoa@g,___fleq@ff1
  2957  0012AE  C0A9  F009         	movff	efgtoa@g+1,___fleq@ff1+1
  2958  0012B2  C0AA  F00A         	movff	efgtoa@g+2,___fleq@ff1+2
  2959  0012B6  C0AB  F00B         	movff	efgtoa@g+3,___fleq@ff1+3
  2960  0012BA  0E00               	movlw	0
  2961  0012BC  6E0C               	movwf	___fleq@ff2^0,c
  2962  0012BE  0E00               	movlw	0
  2963  0012C0  6E0D               	movwf	(___fleq@ff2+1)^0,c
  2964  0012C2  0E00               	movlw	0
  2965  0012C4  6E0E               	movwf	(___fleq@ff2+2)^0,c
  2966  0012C6  0E00               	movlw	0
  2967  0012C8  6E0F               	movwf	(___fleq@ff2+3)^0,c
  2968  0012CA  ECAE  F01F         	call	___fleq	;wreg free
  2969  0012CE  B0D8               	btfsc	status,0,c
  2970  0012D0  EF6C  F009         	goto	u7391
  2971  0012D4  EF6E  F009         	goto	u7390
  2972  0012D8                     u7391:
  2973  0012D8  EFF1  F009         	goto	l6045
  2974  0012DC                     u7390:
  2975  0012DC  EF8D  F009         	goto	l6037
  2976  0012E0                     l6033:
  2977                           
  2978                           ;C:\Program Files (x86)\Microchip\xc8\v2.10\pic\sources\c99\common\doprnt.c: 367:       
      +                                u = u*10.0;
  2979  0012E0  C0B0  F016         	movff	efgtoa@u,___flmul@b
  2980  0012E4  C0B1  F017         	movff	efgtoa@u+1,___flmul@b+1
  2981  0012E8  C0B2  F018         	movff	efgtoa@u+2,___flmul@b+2
  2982  0012EC  C0B3  F019         	movff	efgtoa@u+3,___flmul@b+3
  2983  0012F0  0E00               	movlw	0
  2984  0012F2  6E1A               	movwf	___flmul@a^0,c
  2985  0012F4  0E00               	movlw	0
  2986  0012F6  6E1B               	movwf	(___flmul@a+1)^0,c
  2987  0012F8  0E20               	movlw	32
  2988  0012FA  6E1C               	movwf	(___flmul@a+2)^0,c
  2989  0012FC  0E41               	movlw	65
  2990  0012FE  6E1D               	movwf	(___flmul@a+3)^0,c
  2991  001300  EC6E  F013         	call	___flmul	;wreg free
  2992  001304  C016  F0B0         	movff	?___flmul,efgtoa@u
  2993  001308  C017  F0B1         	movff	?___flmul+1,efgtoa@u+1
  2994  00130C  C018  F0B2         	movff	?___flmul+2,efgtoa@u+2
  2995  001310  C019  F0B3         	movff	?___flmul+3,efgtoa@u+3
  2996  001314                     
  2997                           ;C:\Program Files (x86)\Microchip\xc8\v2.10\pic\sources\c99\common\doprnt.c: 368:       
      +                                ++e;
  2998  001314  0100               	movlb	0	; () banked
  2999  001316  4BAC               	infsnz	efgtoa@e& (0+255),f,b
  3000  001318  2BAD               	incf	(efgtoa@e+1)& (0+255),f,b
  3001  00131A                     l6037:
  3002                           
  3003                           ;C:\Program Files (x86)\Microchip\xc8\v2.10\pic\sources\c99\common\doprnt.c: 366:       
      +                            while (!(g < (u*10.0))) {
  3004  00131A  C0A8  F02F         	movff	efgtoa@g,___flge@ff1
  3005  00131E  C0A9  F030         	movff	efgtoa@g+1,___flge@ff1+1
  3006  001322  C0AA  F031         	movff	efgtoa@g+2,___flge@ff1+2
  3007  001326  C0AB  F032         	movff	efgtoa@g+3,___flge@ff1+3
  3008  00132A  0E00               	movlw	0
  3009  00132C  6E1A               	movwf	___flmul@a^0,c
  3010  00132E  0E00               	movlw	0
  3011  001330  6E1B               	movwf	(___flmul@a+1)^0,c
  3012  001332  0E20               	movlw	32
  3013  001334  6E1C               	movwf	(___flmul@a+2)^0,c
  3014  001336  0E41               	movlw	65
  3015  001338  6E1D               	movwf	(___flmul@a+3)^0,c
  3016  00133A  C0B0  F016         	movff	efgtoa@u,___flmul@b
  3017  00133E  C0B1  F017         	movff	efgtoa@u+1,___flmul@b+1
  3018  001342  C0B2  F018         	movff	efgtoa@u+2,___flmul@b+2
  3019  001346  C0B3  F019         	movff	efgtoa@u+3,___flmul@b+3
  3020  00134A  EC6E  F013         	call	___flmul	;wreg free
  3021  00134E  C016  F033         	movff	?___flmul,___flge@ff2
  3022  001352  C017  F034         	movff	?___flmul+1,___flge@ff2+1
  3023  001356  C018  F035         	movff	?___flmul+2,___flge@ff2+2
  3024  00135A  C019  F036         	movff	?___flmul+3,___flge@ff2+3
  3025  00135E  ECBF  F01C         	call	___flge	;wreg free
  3026  001362  B0D8               	btfsc	status,0,c
  3027  001364  EFB6  F009         	goto	u7401
  3028  001368  EFB8  F009         	goto	u7400
  3029  00136C                     u7401:
  3030  00136C  EF70  F009         	goto	l6033
  3031  001370                     u7400:
  3032  001370  EFD8  F009         	goto	l6043
  3033  001374                     l6039:
  3034                           
  3035                           ;C:\Program Files (x86)\Microchip\xc8\v2.10\pic\sources\c99\common\doprnt.c: 371:       
      +                                u = u/10.0;
  3036  001374  C0B0  F02F         	movff	efgtoa@u,___fldiv@b
  3037  001378  C0B1  F030         	movff	efgtoa@u+1,___fldiv@b+1
  3038  00137C  C0B2  F031         	movff	efgtoa@u+2,___fldiv@b+2
  3039  001380  C0B3  F032         	movff	efgtoa@u+3,___fldiv@b+3
  3040  001384  0E00               	movlw	0
  3041  001386  6E33               	movwf	___fldiv@a^0,c
  3042  001388  0E00               	movlw	0
  3043  00138A  6E34               	movwf	(___fldiv@a+1)^0,c
  3044  00138C  0E20               	movlw	32
  3045  00138E  6E35               	movwf	(___fldiv@a+2)^0,c
  3046  001390  0E41               	movlw	65
  3047  001392  6E36               	movwf	(___fldiv@a+3)^0,c
  3048  001394  EC83  F015         	call	___fldiv	;wreg free
  3049  001398  C02F  F0B0         	movff	?___fldiv,efgtoa@u
  3050  00139C  C030  F0B1         	movff	?___fldiv+1,efgtoa@u+1
  3051  0013A0  C031  F0B2         	movff	?___fldiv+2,efgtoa@u+2
  3052  0013A4  C032  F0B3         	movff	?___fldiv+3,efgtoa@u+3
  3053  0013A8                     
  3054                           ;C:\Program Files (x86)\Microchip\xc8\v2.10\pic\sources\c99\common\doprnt.c: 372:       
      +                                --e;
  3055  0013A8  0100               	movlb	0	; () banked
  3056  0013AA  07AC               	decf	efgtoa@e& (0+255),f,b
  3057  0013AC  A0D8               	btfss	status,0,c
  3058  0013AE  07AD               	decf	(efgtoa@e+1)& (0+255),f,b
  3059  0013B0                     l6043:
  3060                           
  3061                           ;C:\Program Files (x86)\Microchip\xc8\v2.10\pic\sources\c99\common\doprnt.c: 370:       
      +                            while (g < u) {
  3062  0013B0  C0A8  F02F         	movff	efgtoa@g,___flge@ff1
  3063  0013B4  C0A9  F030         	movff	efgtoa@g+1,___flge@ff1+1
  3064  0013B8  C0AA  F031         	movff	efgtoa@g+2,___flge@ff1+2
  3065  0013BC  C0AB  F032         	movff	efgtoa@g+3,___flge@ff1+3
  3066  0013C0  C0B0  F033         	movff	efgtoa@u,___flge@ff2
  3067  0013C4  C0B1  F034         	movff	efgtoa@u+1,___flge@ff2+1
  3068  0013C8  C0B2  F035         	movff	efgtoa@u+2,___flge@ff2+2
  3069  0013CC  C0B3  F036         	movff	efgtoa@u+3,___flge@ff2+3
  3070  0013D0  ECBF  F01C         	call	___flge	;wreg free
  3071  0013D4  A0D8               	btfss	status,0,c
  3072  0013D6  EFEF  F009         	goto	u7411
  3073  0013DA  EFF1  F009         	goto	u7410
  3074  0013DE                     u7411:
  3075  0013DE  EFBA  F009         	goto	l6039
  3076  0013E2                     u7410:
  3077  0013E2                     l6045:
  3078                           
  3079                           ;C:\Program Files (x86)\Microchip\xc8\v2.10\pic\sources\c99\common\doprnt.c: 377:     mo
      +                          de = tolower((int)c);
  3080  0013E2  C076  F00E         	movff	efgtoa@c,tolower@c
  3081  0013E6  6A0F               	clrf	(tolower@c+1)^0,c
  3082  0013E8  ECAB  F020         	call	_tolower	;wreg free
  3083  0013EC  500E               	movf	?_tolower^0,w,c
  3084  0013EE  0100               	movlb	0	; () banked
  3085  0013F0  6F9D               	movwf	efgtoa@mode& (0+255),b
  3086  0013F2                     
  3087                           ; BSR set to: 0
  3088                           ;C:\Program Files (x86)\Microchip\xc8\v2.10\pic\sources\c99\common\doprnt.c: 378:     nm
      +                          ode = mode;
  3089  0013F2  C09D  F09A         	movff	efgtoa@mode,efgtoa@nmode
  3090  0013F6                     
  3091                           ; BSR set to: 0
  3092                           ;C:\Program Files (x86)\Microchip\xc8\v2.10\pic\sources\c99\common\doprnt.c: 379:     if
      +                           (mode == 'g') {
  3093  0013F6  0E67               	movlw	103
  3094  0013F8  199D               	xorwf	efgtoa@mode& (0+255),w,b
  3095  0013FA  A4D8               	btfss	status,2,c
  3096  0013FC  EF02  F00A         	goto	u7421
  3097  001400  EF04  F00A         	goto	u7420
  3098  001404                     u7421:
  3099  001404  EF2A  F00A         	goto	l6059
  3100  001408                     u7420:
  3101  001408                     
  3102                           ; BSR set to: 0
  3103                           ;C:\Program Files (x86)\Microchip\xc8\v2.10\pic\sources\c99\common\doprnt.c: 380:   if (
      +                          prec == 0) {
  3104  001408  51EF               	movf	_prec& (0+255),w,b
  3105  00140A  11F0               	iorwf	(_prec+1)& (0+255),w,b
  3106  00140C  A4D8               	btfss	status,2,c
  3107  00140E  EF0B  F00A         	goto	u7431
  3108  001412  EF0D  F00A         	goto	u7430
  3109  001416                     u7431:
  3110  001416  EF11  F00A         	goto	l6055
  3111  00141A                     u7430:
  3112  00141A                     
  3113                           ; BSR set to: 0
  3114                           ;C:\Program Files (x86)\Microchip\xc8\v2.10\pic\sources\c99\common\doprnt.c: 381:    pre
      +                          c = 1;
  3115  00141A  0E00               	movlw	0
  3116  00141C  6FF0               	movwf	(_prec+1)& (0+255),b
  3117  00141E  0E01               	movlw	1
  3118  001420  6FEF               	movwf	_prec& (0+255),b
  3119  001422                     l6055:
  3120                           
  3121                           ; BSR set to: 0
  3122                           ;C:\Program Files (x86)\Microchip\xc8\v2.10\pic\sources\c99\common\doprnt.c: 383:       
      +                            p = (0 < prec) ? prec : 6;
  3123  001422  BFF0               	btfsc	(_prec+1)& (0+255),7,b
  3124  001424  EF1E  F00A         	goto	u7440
  3125  001428  51F0               	movf	(_prec+1)& (0+255),w,b
  3126  00142A  E106               	bnz	u7441
  3127  00142C  05EF               	decf	_prec& (0+255),w,b
  3128  00142E  B0D8               	btfsc	status,0,c
  3129  001430  EF1C  F00A         	goto	u7441
  3130  001434  EF1E  F00A         	goto	u7440
  3131  001438                     u7441:
  3132  001438  EF24  F00A         	goto	l556
  3133  00143C                     u7440:
  3134  00143C                     l6057:
  3135                           
  3136                           ; BSR set to: 0
  3137  00143C  0E00               	movlw	0
  3138  00143E  6F99               	movwf	(efgtoa@p+1)& (0+255),b
  3139  001440  0E06               	movlw	6
  3140  001442  6F98               	movwf	efgtoa@p& (0+255),b
  3141  001444  EF33  F00A         	goto	l6065
  3142  001448                     l556:
  3143                           
  3144                           ; BSR set to: 0
  3145  001448  C0EF  F098         	movff	_prec,efgtoa@p
  3146  00144C  C0F0  F099         	movff	_prec+1,efgtoa@p+1
  3147  001450  EF33  F00A         	goto	l6065
  3148  001454                     l6059:
  3149                           
  3150                           ; BSR set to: 0
  3151                           ;C:\Program Files (x86)\Microchip\xc8\v2.10\pic\sources\c99\common\doprnt.c: 385:       
      +                            p = (prec < 0) ? 6 : prec;
  3152  001454  BFF0               	btfsc	(_prec+1)& (0+255),7,b
  3153  001456  EF2F  F00A         	goto	u7451
  3154  00145A  EF31  F00A         	goto	u7450
  3155  00145E                     u7451:
  3156  00145E  EF1E  F00A         	goto	l6057
  3157  001462                     u7450:
  3158  001462  EF24  F00A         	goto	l556
  3159  001466                     l6065:
  3160                           
  3161                           ; BSR set to: 0
  3162                           ;C:\Program Files (x86)\Microchip\xc8\v2.10\pic\sources\c99\common\doprnt.c: 389:     if
      +                           (mode == 'g') {
  3163  001466  0E67               	movlw	103
  3164  001468  199D               	xorwf	efgtoa@mode& (0+255),w,b
  3165  00146A  A4D8               	btfss	status,2,c
  3166  00146C  EF3A  F00A         	goto	u7461
  3167  001470  EF3C  F00A         	goto	u7460
  3168  001474                     u7461:
  3169  001474  EF6B  F00A         	goto	l6075
  3170  001478                     u7460:
  3171  001478                     
  3172                           ; BSR set to: 0
  3173                           ;C:\Program Files (x86)\Microchip\xc8\v2.10\pic\sources\c99\common\doprnt.c: 390:       
      +                            if (!(e < -4) && !((p - 1) < e)) {
  3174  001478  AFAD               	btfss	(efgtoa@e+1)& (0+255),7,b
  3175  00147A  EF4A  F00A         	goto	u7470
  3176  00147E  0EFC               	movlw	252
  3177  001480  5DAC               	subwf	efgtoa@e& (0+255),w,b
  3178  001482  0EFF               	movlw	255
  3179  001484  59AD               	subwfb	(efgtoa@e+1)& (0+255),w,b
  3180  001486  A0D8               	btfss	status,0,c
  3181  001488  EF48  F00A         	goto	u7471
  3182  00148C  EF4A  F00A         	goto	u7470
  3183  001490                     u7471:
  3184  001490  EF69  F00A         	goto	l6073
  3185  001494                     u7470:
  3186  001494                     
  3187                           ; BSR set to: 0
  3188  001494  0EFF               	movlw	255
  3189  001496  6F77               	movwf	??_efgtoa& (0+255),b
  3190  001498  0EFF               	movlw	255
  3191  00149A  6F78               	movwf	(??_efgtoa+1)& (0+255),b
  3192  00149C  C098  F079         	movff	efgtoa@p,??_efgtoa+2
  3193  0014A0  C099  F07A         	movff	efgtoa@p+1,??_efgtoa+3
  3194  0014A4  5177               	movf	??_efgtoa& (0+255),w,b
  3195  0014A6  2779               	addwf	(??_efgtoa+2)& (0+255),f,b
  3196  0014A8  5178               	movf	(??_efgtoa+1)& (0+255),w,b
  3197  0014AA  237A               	addwfc	(??_efgtoa+3)& (0+255),f,b
  3198  0014AC  51AC               	movf	efgtoa@e& (0+255),w,b
  3199  0014AE  5D79               	subwf	(??_efgtoa+2)& (0+255),w,b
  3200  0014B0  517A               	movf	(??_efgtoa+3)& (0+255),w,b
  3201  0014B2  0A80               	xorlw	128
  3202  0014B4  6F7B               	movwf	(??_efgtoa+4)& (0+255),b
  3203  0014B6  51AD               	movf	(efgtoa@e+1)& (0+255),w,b
  3204  0014B8  0A80               	xorlw	128
  3205  0014BA  597B               	subwfb	(??_efgtoa+4)& (0+255),w,b
  3206  0014BC  A0D8               	btfss	status,0,c
  3207  0014BE  EF63  F00A         	goto	u7481
  3208  0014C2  EF65  F00A         	goto	u7480
  3209  0014C6                     u7481:
  3210  0014C6  EF69  F00A         	goto	l6073
  3211  0014CA                     u7480:
  3212  0014CA                     
  3213                           ; BSR set to: 0
  3214                           ;C:\Program Files (x86)\Microchip\xc8\v2.10\pic\sources\c99\common\doprnt.c: 391:       
      +                                nmode = 'f';
  3215  0014CA  0E66               	movlw	102
  3216  0014CC  6F9A               	movwf	efgtoa@nmode& (0+255),b
  3217                           
  3218                           ;C:\Program Files (x86)\Microchip\xc8\v2.10\pic\sources\c99\common\doprnt.c: 392:       
      +                            } else {
  3219  0014CE  EF6B  F00A         	goto	l6075
  3220  0014D2                     l6073:
  3221                           
  3222                           ; BSR set to: 0
  3223                           ;C:\Program Files (x86)\Microchip\xc8\v2.10\pic\sources\c99\common\doprnt.c: 393:       
      +                                nmode = 'e';
  3224  0014D2  0E65               	movlw	101
  3225  0014D4  6F9A               	movwf	efgtoa@nmode& (0+255),b
  3226  0014D6                     l6075:
  3227                           
  3228                           ; BSR set to: 0
  3229                           ;C:\Program Files (x86)\Microchip\xc8\v2.10\pic\sources\c99\common\doprnt.c: 398:     m 
      +                          = p;
  3230  0014D6  C098  F090         	movff	efgtoa@p,efgtoa@m
  3231  0014DA  C099  F091         	movff	efgtoa@p+1,efgtoa@m+1
  3232  0014DE                     
  3233                           ; BSR set to: 0
  3234                           ;C:\Program Files (x86)\Microchip\xc8\v2.10\pic\sources\c99\common\doprnt.c: 399:     if
      +                           (!(mode == 'g') || ((nmode == 'f') && (e < 0))) {
  3235  0014DE  0E67               	movlw	103
  3236  0014E0  199D               	xorwf	efgtoa@mode& (0+255),w,b
  3237  0014E2  A4D8               	btfss	status,2,c
  3238  0014E4  EF76  F00A         	goto	u7491
  3239  0014E8  EF78  F00A         	goto	u7490
  3240  0014EC                     u7491:
  3241  0014EC  EF88  F00A         	goto	l6083
  3242  0014F0                     u7490:
  3243  0014F0                     
  3244                           ; BSR set to: 0
  3245  0014F0  0E66               	movlw	102
  3246  0014F2  199A               	xorwf	efgtoa@nmode& (0+255),w,b
  3247  0014F4  A4D8               	btfss	status,2,c
  3248  0014F6  EF7F  F00A         	goto	u7501
  3249  0014FA  EF81  F00A         	goto	u7500
  3250  0014FE                     u7501:
  3251  0014FE  EF8A  F00A         	goto	l6085
  3252  001502                     u7500:
  3253  001502                     
  3254                           ; BSR set to: 0
  3255  001502  BFAD               	btfsc	(efgtoa@e+1)& (0+255),7,b
  3256  001504  EF88  F00A         	goto	u7510
  3257  001508  EF86  F00A         	goto	u7511
  3258  00150C                     u7511:
  3259  00150C  EF8A  F00A         	goto	l6085
  3260  001510                     u7510:
  3261  001510                     l6083:
  3262                           
  3263                           ; BSR set to: 0
  3264                           ;C:\Program Files (x86)\Microchip\xc8\v2.10\pic\sources\c99\common\doprnt.c: 400:       
      +                            ++m;
  3265  001510  4B90               	infsnz	efgtoa@m& (0+255),f,b
  3266  001512  2B91               	incf	(efgtoa@m+1)& (0+255),f,b
  3267  001514                     l6085:
  3268                           
  3269                           ; BSR set to: 0
  3270                           ;C:\Program Files (x86)\Microchip\xc8\v2.10\pic\sources\c99\common\doprnt.c: 404:     if
      +                           (nmode == 'f') {
  3271  001514  0E66               	movlw	102
  3272  001516  199A               	xorwf	efgtoa@nmode& (0+255),w,b
  3273  001518  A4D8               	btfss	status,2,c
  3274  00151A  EF91  F00A         	goto	u7521
  3275  00151E  EF93  F00A         	goto	u7520
  3276  001522                     u7521:
  3277  001522  EFB3  F00A         	goto	l6095
  3278  001526                     u7520:
  3279  001526                     
  3280                           ; BSR set to: 0
  3281                           ;C:\Program Files (x86)\Microchip\xc8\v2.10\pic\sources\c99\common\doprnt.c: 405:       
      +                            if (e < 0) {
  3282  001526  BFAD               	btfsc	(efgtoa@e+1)& (0+255),7,b
  3283  001528  EF9A  F00A         	goto	u7530
  3284  00152C  EF98  F00A         	goto	u7531
  3285  001530                     u7531:
  3286  001530  EFA6  F00A         	goto	l6091
  3287  001534                     u7530:
  3288  001534                     
  3289                           ; BSR set to: 0
  3290                           ;C:\Program Files (x86)\Microchip\xc8\v2.10\pic\sources\c99\common\doprnt.c: 406:       
      +                                u = 1.0;
  3291  001534  0E00               	movlw	0
  3292  001536  6FB0               	movwf	efgtoa@u& (0+255),b
  3293  001538  0E00               	movlw	0
  3294  00153A  6FB1               	movwf	(efgtoa@u+1)& (0+255),b
  3295  00153C  0E80               	movlw	128
  3296  00153E  6FB2               	movwf	(efgtoa@u+2)& (0+255),b
  3297  001540  0E3F               	movlw	63
  3298  001542  6FB3               	movwf	(efgtoa@u+3)& (0+255),b
  3299                           
  3300                           ;C:\Program Files (x86)\Microchip\xc8\v2.10\pic\sources\c99\common\doprnt.c: 407:       
      +                                e = 0;
  3301  001544  0E00               	movlw	0
  3302  001546  6FAD               	movwf	(efgtoa@e+1)& (0+255),b
  3303  001548  0E00               	movlw	0
  3304  00154A  6FAC               	movwf	efgtoa@e& (0+255),b
  3305  00154C                     l6091:
  3306                           
  3307                           ; BSR set to: 0
  3308                           ;C:\Program Files (x86)\Microchip\xc8\v2.10\pic\sources\c99\common\doprnt.c: 409:       
      +                            if (!(mode == 'g')) {
  3309  00154C  0E67               	movlw	103
  3310  00154E  199D               	xorwf	efgtoa@mode& (0+255),w,b
  3311  001550  B4D8               	btfsc	status,2,c
  3312  001552  EFAD  F00A         	goto	u7541
  3313  001556  EFAF  F00A         	goto	u7540
  3314  00155A                     u7541:
  3315  00155A  EFB3  F00A         	goto	l6095
  3316  00155E                     u7540:
  3317  00155E                     
  3318                           ; BSR set to: 0
  3319                           ;C:\Program Files (x86)\Microchip\xc8\v2.10\pic\sources\c99\common\doprnt.c: 410:       
      +                                m += e;
  3320  00155E  51AC               	movf	efgtoa@e& (0+255),w,b
  3321  001560  2790               	addwf	efgtoa@m& (0+255),f,b
  3322  001562  51AD               	movf	(efgtoa@e+1)& (0+255),w,b
  3323  001564  2391               	addwfc	(efgtoa@m+1)& (0+255),f,b
  3324  001566                     l6095:
  3325                           
  3326                           ; BSR set to: 0
  3327                           ;C:\Program Files (x86)\Microchip\xc8\v2.10\pic\sources\c99\common\doprnt.c: 415:     i 
      +                          = 0;
  3328  001566  0E00               	movlw	0
  3329  001568  6FA7               	movwf	(efgtoa@i+1)& (0+255),b
  3330  00156A  0E00               	movlw	0
  3331  00156C  6FA6               	movwf	efgtoa@i& (0+255),b
  3332  00156E                     
  3333                           ; BSR set to: 0
  3334                           ;C:\Program Files (x86)\Microchip\xc8\v2.10\pic\sources\c99\common\doprnt.c: 416:     h 
      +                          = g;
  3335  00156E  C0A8  F09E         	movff	efgtoa@g,efgtoa@h
  3336  001572  C0A9  F09F         	movff	efgtoa@g+1,efgtoa@h+1
  3337  001576  C0AA  F0A0         	movff	efgtoa@g+2,efgtoa@h+2
  3338  00157A  C0AB  F0A1         	movff	efgtoa@g+3,efgtoa@h+3
  3339  00157E                     
  3340                           ; BSR set to: 0
  3341                           ;C:\Program Files (x86)\Microchip\xc8\v2.10\pic\sources\c99\common\doprnt.c: 417:     ou
      +                           = u;
  3342  00157E  C0B0  F07C         	movff	efgtoa@u,efgtoa@ou
  3343  001582  C0B1  F07D         	movff	efgtoa@u+1,efgtoa@ou+1
  3344  001586  C0B2  F07E         	movff	efgtoa@u+2,efgtoa@ou+2
  3345  00158A  C0B3  F07F         	movff	efgtoa@u+3,efgtoa@ou+3
  3346                           
  3347                           ;C:\Program Files (x86)\Microchip\xc8\v2.10\pic\sources\c99\common\doprnt.c: 418:     wh
      +                          ile (i < m) {
  3348  00158E  EF44  F00B         	goto	l6109
  3349  001592                     l6101:
  3350                           
  3351                           ; BSR set to: 0
  3352                           ;C:\Program Files (x86)\Microchip\xc8\v2.10\pic\sources\c99\common\doprnt.c: 419:       
      +                            l = floorf(h/u);
  3353  001592  C09E  F02F         	movff	efgtoa@h,___fldiv@b
  3354  001596  C09F  F030         	movff	efgtoa@h+1,___fldiv@b+1
  3355  00159A  C0A0  F031         	movff	efgtoa@h+2,___fldiv@b+2
  3356  00159E  C0A1  F032         	movff	efgtoa@h+3,___fldiv@b+3
  3357  0015A2  C0B0  F033         	movff	efgtoa@u,___fldiv@a
  3358  0015A6  C0B1  F034         	movff	efgtoa@u+1,___fldiv@a+1
  3359  0015AA  C0B2  F035         	movff	efgtoa@u+2,___fldiv@a+2
  3360  0015AE  C0B3  F036         	movff	efgtoa@u+3,___fldiv@a+3
  3361  0015B2  EC83  F015         	call	___fldiv	;wreg free
  3362  0015B6  C02F  F048         	movff	?___fldiv,floorf@x
  3363  0015BA  C030  F049         	movff	?___fldiv+1,floorf@x+1
  3364  0015BE  C031  F04A         	movff	?___fldiv+2,floorf@x+2
  3365  0015C2  C032  F04B         	movff	?___fldiv+3,floorf@x+3
  3366  0015C6  ECDF  F018         	call	_floorf	;wreg free
  3367  0015CA  C048  F0A2         	movff	?_floorf,efgtoa@l
  3368  0015CE  C049  F0A3         	movff	?_floorf+1,efgtoa@l+1
  3369  0015D2  C04A  F0A4         	movff	?_floorf+2,efgtoa@l+2
  3370  0015D6  C04B  F0A5         	movff	?_floorf+3,efgtoa@l+3
  3371                           
  3372                           ;C:\Program Files (x86)\Microchip\xc8\v2.10\pic\sources\c99\common\doprnt.c: 420:       
      +                            d = (int)l;
  3373  0015DA  C0A2  F008         	movff	efgtoa@l,___fltol@f1
  3374  0015DE  C0A3  F009         	movff	efgtoa@l+1,___fltol@f1+1
  3375  0015E2  C0A4  F00A         	movff	efgtoa@l+2,___fltol@f1+2
  3376  0015E6  C0A5  F00B         	movff	efgtoa@l+3,___fltol@f1+3
  3377  0015EA  EC3C  F01C         	call	___fltol	;wreg free
  3378  0015EE  C008  F094         	movff	?___fltol,efgtoa@d
  3379  0015F2  C009  F095         	movff	?___fltol+1,efgtoa@d+1
  3380  0015F6                     
  3381                           ;C:\Program Files (x86)\Microchip\xc8\v2.10\pic\sources\c99\common\doprnt.c: 421:       
      +                            h -= l*u;
  3382  0015F6  C09E  F02F         	movff	efgtoa@h,___flsub@b
  3383  0015FA  C09F  F030         	movff	efgtoa@h+1,___flsub@b+1
  3384  0015FE  C0A0  F031         	movff	efgtoa@h+2,___flsub@b+2
  3385  001602  C0A1  F032         	movff	efgtoa@h+3,___flsub@b+3
  3386  001606  C0B0  F01A         	movff	efgtoa@u,___flmul@a
  3387  00160A  C0B1  F01B         	movff	efgtoa@u+1,___flmul@a+1
  3388  00160E  C0B2  F01C         	movff	efgtoa@u+2,___flmul@a+2
  3389  001612  C0B3  F01D         	movff	efgtoa@u+3,___flmul@a+3
  3390  001616  C0A2  F016         	movff	efgtoa@l,___flmul@b
  3391  00161A  C0A3  F017         	movff	efgtoa@l+1,___flmul@b+1
  3392  00161E  C0A4  F018         	movff	efgtoa@l+2,___flmul@b+2
  3393  001622  C0A5  F019         	movff	efgtoa@l+3,___flmul@b+3
  3394  001626  EC6E  F013         	call	___flmul	;wreg free
  3395  00162A  C016  F033         	movff	?___flmul,___flsub@a
  3396  00162E  C017  F034         	movff	?___flmul+1,___flsub@a+1
  3397  001632  C018  F035         	movff	?___flmul+2,___flsub@a+2
  3398  001636  C019  F036         	movff	?___flmul+3,___flsub@a+3
  3399  00163A  EC85  F021         	call	___flsub	;wreg free
  3400  00163E  C02F  F09E         	movff	?___flsub,efgtoa@h
  3401  001642  C030  F09F         	movff	?___flsub+1,efgtoa@h+1
  3402  001646  C031  F0A0         	movff	?___flsub+2,efgtoa@h+2
  3403  00164A  C032  F0A1         	movff	?___flsub+3,efgtoa@h+3
  3404  00164E                     
  3405                           ;C:\Program Files (x86)\Microchip\xc8\v2.10\pic\sources\c99\common\doprnt.c: 422:       
      +                            u = u/10.0;
  3406  00164E  C0B0  F02F         	movff	efgtoa@u,___fldiv@b
  3407  001652  C0B1  F030         	movff	efgtoa@u+1,___fldiv@b+1
  3408  001656  C0B2  F031         	movff	efgtoa@u+2,___fldiv@b+2
  3409  00165A  C0B3  F032         	movff	efgtoa@u+3,___fldiv@b+3
  3410  00165E  0E00               	movlw	0
  3411  001660  6E33               	movwf	___fldiv@a^0,c
  3412  001662  0E00               	movlw	0
  3413  001664  6E34               	movwf	(___fldiv@a+1)^0,c
  3414  001666  0E20               	movlw	32
  3415  001668  6E35               	movwf	(___fldiv@a+2)^0,c
  3416  00166A  0E41               	movlw	65
  3417  00166C  6E36               	movwf	(___fldiv@a+3)^0,c
  3418  00166E  EC83  F015         	call	___fldiv	;wreg free
  3419  001672  C02F  F0B0         	movff	?___fldiv,efgtoa@u
  3420  001676  C030  F0B1         	movff	?___fldiv+1,efgtoa@u+1
  3421  00167A  C031  F0B2         	movff	?___fldiv+2,efgtoa@u+2
  3422  00167E  C032  F0B3         	movff	?___fldiv+3,efgtoa@u+3
  3423  001682                     
  3424                           ;C:\Program Files (x86)\Microchip\xc8\v2.10\pic\sources\c99\common\doprnt.c: 423:       
      +                            ++i;
  3425  001682  0100               	movlb	0	; () banked
  3426  001684  4BA6               	infsnz	efgtoa@i& (0+255),f,b
  3427  001686  2BA7               	incf	(efgtoa@i+1)& (0+255),f,b
  3428  001688                     l6109:
  3429                           
  3430                           ; BSR set to: 0
  3431                           ;C:\Program Files (x86)\Microchip\xc8\v2.10\pic\sources\c99\common\doprnt.c: 418:     wh
      +                          ile (i < m) {
  3432  001688  5190               	movf	efgtoa@m& (0+255),w,b
  3433  00168A  5DA6               	subwf	efgtoa@i& (0+255),w,b
  3434  00168C  51A7               	movf	(efgtoa@i+1)& (0+255),w,b
  3435  00168E  0A80               	xorlw	128
  3436  001690  6F77               	movwf	??_efgtoa& (0+255),b
  3437  001692  5191               	movf	(efgtoa@m+1)& (0+255),w,b
  3438  001694  0A80               	xorlw	128
  3439  001696  5977               	subwfb	??_efgtoa& (0+255),w,b
  3440  001698  A0D8               	btfss	status,0,c
  3441  00169A  EF51  F00B         	goto	u7551
  3442  00169E  EF53  F00B         	goto	u7550
  3443  0016A2                     u7551:
  3444  0016A2  EFC9  F00A         	goto	l6101
  3445  0016A6                     u7550:
  3446  0016A6                     
  3447                           ; BSR set to: 0
  3448                           ;C:\Program Files (x86)\Microchip\xc8\v2.10\pic\sources\c99\common\doprnt.c: 427:     l 
      +                          = u*5.0;
  3449  0016A6  C0B0  F016         	movff	efgtoa@u,___flmul@b
  3450  0016AA  C0B1  F017         	movff	efgtoa@u+1,___flmul@b+1
  3451  0016AE  C0B2  F018         	movff	efgtoa@u+2,___flmul@b+2
  3452  0016B2  C0B3  F019         	movff	efgtoa@u+3,___flmul@b+3
  3453  0016B6  0E00               	movlw	0
  3454  0016B8  6E1A               	movwf	___flmul@a^0,c
  3455  0016BA  0E00               	movlw	0
  3456  0016BC  6E1B               	movwf	(___flmul@a+1)^0,c
  3457  0016BE  0EA0               	movlw	160
  3458  0016C0  6E1C               	movwf	(___flmul@a+2)^0,c
  3459  0016C2  0E40               	movlw	64
  3460  0016C4  6E1D               	movwf	(___flmul@a+3)^0,c
  3461  0016C6  EC6E  F013         	call	___flmul	;wreg free
  3462  0016CA  C016  F0A2         	movff	?___flmul,efgtoa@l
  3463  0016CE  C017  F0A3         	movff	?___flmul+1,efgtoa@l+1
  3464  0016D2  C018  F0A4         	movff	?___flmul+2,efgtoa@l+2
  3465  0016D6  C019  F0A5         	movff	?___flmul+3,efgtoa@l+3
  3466  0016DA                     
  3467                           ;C:\Program Files (x86)\Microchip\xc8\v2.10\pic\sources\c99\common\doprnt.c: 428:     if
      +                           (h < l) {
  3468  0016DA  C09E  F02F         	movff	efgtoa@h,___flge@ff1
  3469  0016DE  C09F  F030         	movff	efgtoa@h+1,___flge@ff1+1
  3470  0016E2  C0A0  F031         	movff	efgtoa@h+2,___flge@ff1+2
  3471  0016E6  C0A1  F032         	movff	efgtoa@h+3,___flge@ff1+3
  3472  0016EA  C0A2  F033         	movff	efgtoa@l,___flge@ff2
  3473  0016EE  C0A3  F034         	movff	efgtoa@l+1,___flge@ff2+1
  3474  0016F2  C0A4  F035         	movff	efgtoa@l+2,___flge@ff2+2
  3475  0016F6  C0A5  F036         	movff	efgtoa@l+3,___flge@ff2+3
  3476  0016FA  ECBF  F01C         	call	___flge	;wreg free
  3477  0016FE  B0D8               	btfsc	status,0,c
  3478  001700  EF84  F00B         	goto	u7561
  3479  001704  EF86  F00B         	goto	u7560
  3480  001708                     u7561:
  3481  001708  EF91  F00B         	goto	l6117
  3482  00170C                     u7560:
  3483  00170C                     
  3484                           ;C:\Program Files (x86)\Microchip\xc8\v2.10\pic\sources\c99\common\doprnt.c: 429:       
      +                            l = 0.0;
  3485  00170C  0E00               	movlw	0
  3486  00170E  0100               	movlb	0	; () banked
  3487  001710  6FA2               	movwf	efgtoa@l& (0+255),b
  3488  001712  0E00               	movlw	0
  3489  001714  6FA3               	movwf	(efgtoa@l+1)& (0+255),b
  3490  001716  0E00               	movlw	0
  3491  001718  6FA4               	movwf	(efgtoa@l+2)& (0+255),b
  3492  00171A  0E00               	movlw	0
  3493  00171C  6FA5               	movwf	(efgtoa@l+3)& (0+255),b
  3494                           
  3495                           ;C:\Program Files (x86)\Microchip\xc8\v2.10\pic\sources\c99\common\doprnt.c: 430:     } 
      +                          else {
  3496  00171E  EFBA  F00B         	goto	l6123
  3497  001722                     l6117:
  3498                           
  3499                           ;C:\Program Files (x86)\Microchip\xc8\v2.10\pic\sources\c99\common\doprnt.c: 432:       
      +                            if ((h == l) && !(d % 2)) {
  3500  001722  C09E  F008         	movff	efgtoa@h,___fleq@ff1
  3501  001726  C09F  F009         	movff	efgtoa@h+1,___fleq@ff1+1
  3502  00172A  C0A0  F00A         	movff	efgtoa@h+2,___fleq@ff1+2
  3503  00172E  C0A1  F00B         	movff	efgtoa@h+3,___fleq@ff1+3
  3504  001732  C0A2  F00C         	movff	efgtoa@l,___fleq@ff2
  3505  001736  C0A3  F00D         	movff	efgtoa@l+1,___fleq@ff2+1
  3506  00173A  C0A4  F00E         	movff	efgtoa@l+2,___fleq@ff2+2
  3507  00173E  C0A5  F00F         	movff	efgtoa@l+3,___fleq@ff2+3
  3508  001742  ECAE  F01F         	call	___fleq	;wreg free
  3509  001746  A0D8               	btfss	status,0,c
  3510  001748  EFA8  F00B         	goto	u7571
  3511  00174C  EFAA  F00B         	goto	u7570
  3512  001750                     u7571:
  3513  001750  EFBA  F00B         	goto	l6123
  3514  001754                     u7570:
  3515  001754  0100               	movlb	0	; () banked
  3516  001756  B194               	btfsc	efgtoa@d& (0+255),0,b
  3517  001758  EFB0  F00B         	goto	u7581
  3518  00175C  EFB2  F00B         	goto	u7580
  3519  001760                     u7581:
  3520  001760  EFBA  F00B         	goto	l6123
  3521  001764                     u7580:
  3522  001764                     
  3523                           ; BSR set to: 0
  3524                           ;C:\Program Files (x86)\Microchip\xc8\v2.10\pic\sources\c99\common\doprnt.c: 433:       
      +                                l = 0.0;
  3525  001764  0E00               	movlw	0
  3526  001766  6FA2               	movwf	efgtoa@l& (0+255),b
  3527  001768  0E00               	movlw	0
  3528  00176A  6FA3               	movwf	(efgtoa@l+1)& (0+255),b
  3529  00176C  0E00               	movlw	0
  3530  00176E  6FA4               	movwf	(efgtoa@l+2)& (0+255),b
  3531  001770  0E00               	movlw	0
  3532  001772  6FA5               	movwf	(efgtoa@l+3)& (0+255),b
  3533  001774                     l6123:
  3534                           
  3535                           ;C:\Program Files (x86)\Microchip\xc8\v2.10\pic\sources\c99\common\doprnt.c: 438:     h 
      +                          = g + l;
  3536  001774  C0A8  F008         	movff	efgtoa@g,___fladd@b
  3537  001778  C0A9  F009         	movff	efgtoa@g+1,___fladd@b+1
  3538  00177C  C0AA  F00A         	movff	efgtoa@g+2,___fladd@b+2
  3539  001780  C0AB  F00B         	movff	efgtoa@g+3,___fladd@b+3
  3540  001784  C0A2  F00C         	movff	efgtoa@l,___fladd@a
  3541  001788  C0A3  F00D         	movff	efgtoa@l+1,___fladd@a+1
  3542  00178C  C0A4  F00E         	movff	efgtoa@l+2,___fladd@a+2
  3543  001790  C0A5  F00F         	movff	efgtoa@l+3,___fladd@a+3
  3544  001794  EC0E  F011         	call	___fladd	;wreg free
  3545  001798  C008  F09E         	movff	?___fladd,efgtoa@h
  3546  00179C  C009  F09F         	movff	?___fladd+1,efgtoa@h+1
  3547  0017A0  C00A  F0A0         	movff	?___fladd+2,efgtoa@h+2
  3548  0017A4  C00B  F0A1         	movff	?___fladd+3,efgtoa@h+3
  3549  0017A8                     
  3550                           ;C:\Program Files (x86)\Microchip\xc8\v2.10\pic\sources\c99\common\doprnt.c: 441:     u 
      +                          = ou;
  3551  0017A8  C07C  F0B0         	movff	efgtoa@ou,efgtoa@u
  3552  0017AC  C07D  F0B1         	movff	efgtoa@ou+1,efgtoa@u+1
  3553  0017B0  C07E  F0B2         	movff	efgtoa@ou+2,efgtoa@u+2
  3554  0017B4  C07F  F0B3         	movff	efgtoa@ou+3,efgtoa@u+3
  3555  0017B8                     
  3556                           ;C:\Program Files (x86)\Microchip\xc8\v2.10\pic\sources\c99\common\doprnt.c: 442:     ne
      +                           = (nmode == 'e') ? 0 : e;
  3557  0017B8  0E65               	movlw	101
  3558  0017BA  0100               	movlb	0	; () banked
  3559  0017BC  199A               	xorwf	efgtoa@nmode& (0+255),w,b
  3560  0017BE  B4D8               	btfsc	status,2,c
  3561  0017C0  EFE4  F00B         	goto	u7591
  3562  0017C4  EFE6  F00B         	goto	u7590
  3563  0017C8                     u7591:
  3564  0017C8  EFEC  F00B         	goto	l6131
  3565  0017CC                     u7590:
  3566  0017CC                     
  3567                           ; BSR set to: 0
  3568  0017CC  C0AC  F092         	movff	efgtoa@e,efgtoa@ne
  3569  0017D0  C0AD  F093         	movff	efgtoa@e+1,efgtoa@ne+1
  3570  0017D4  EFF0  F00B         	goto	l582
  3571  0017D8                     l6131:
  3572                           
  3573                           ; BSR set to: 0
  3574  0017D8  0E00               	movlw	0
  3575  0017DA  6F93               	movwf	(efgtoa@ne+1)& (0+255),b
  3576  0017DC  0E00               	movlw	0
  3577  0017DE  6F92               	movwf	efgtoa@ne& (0+255),b
  3578  0017E0                     l582:
  3579                           
  3580                           ; BSR set to: 0
  3581                           ;C:\Program Files (x86)\Microchip\xc8\v2.10\pic\sources\c99\common\doprnt.c: 443:     pp
      +                           = 0;
  3582  0017E0  0E00               	movlw	0
  3583  0017E2  6F8F               	movwf	(efgtoa@pp+1)& (0+255),b
  3584  0017E4  0E00               	movlw	0
  3585  0017E6  6F8E               	movwf	efgtoa@pp& (0+255),b
  3586                           
  3587                           ;C:\Program Files (x86)\Microchip\xc8\v2.10\pic\sources\c99\common\doprnt.c: 444:     t 
      +                          = 0;
  3588  0017E8  0E00               	movlw	0
  3589  0017EA  6F8D               	movwf	(efgtoa@t+1)& (0+255),b
  3590  0017EC  0E00               	movlw	0
  3591  0017EE  6F8C               	movwf	efgtoa@t& (0+255),b
  3592                           
  3593                           ;C:\Program Files (x86)\Microchip\xc8\v2.10\pic\sources\c99\common\doprnt.c: 445:     i 
      +                          = 0;
  3594  0017F0  0E00               	movlw	0
  3595  0017F2  6FA7               	movwf	(efgtoa@i+1)& (0+255),b
  3596  0017F4  0E00               	movlw	0
  3597  0017F6  6FA6               	movwf	efgtoa@i& (0+255),b
  3598                           
  3599                           ;C:\Program Files (x86)\Microchip\xc8\v2.10\pic\sources\c99\common\doprnt.c: 446:     wh
      +                          ile ((i < m) && (n < (80 - 5))) {
  3600  0017F8  EFEC  F00C         	goto	l6181
  3601  0017FC                     l6133:
  3602                           
  3603                           ; BSR set to: 0
  3604                           ;C:\Program Files (x86)\Microchip\xc8\v2.10\pic\sources\c99\common\doprnt.c: 447:       
      +                            l = floorf(h/u);
  3605  0017FC  C09E  F02F         	movff	efgtoa@h,___fldiv@b
  3606  001800  C09F  F030         	movff	efgtoa@h+1,___fldiv@b+1
  3607  001804  C0A0  F031         	movff	efgtoa@h+2,___fldiv@b+2
  3608  001808  C0A1  F032         	movff	efgtoa@h+3,___fldiv@b+3
  3609  00180C  C0B0  F033         	movff	efgtoa@u,___fldiv@a
  3610  001810  C0B1  F034         	movff	efgtoa@u+1,___fldiv@a+1
  3611  001814  C0B2  F035         	movff	efgtoa@u+2,___fldiv@a+2
  3612  001818  C0B3  F036         	movff	efgtoa@u+3,___fldiv@a+3
  3613  00181C  EC83  F015         	call	___fldiv	;wreg free
  3614  001820  C02F  F048         	movff	?___fldiv,floorf@x
  3615  001824  C030  F049         	movff	?___fldiv+1,floorf@x+1
  3616  001828  C031  F04A         	movff	?___fldiv+2,floorf@x+2
  3617  00182C  C032  F04B         	movff	?___fldiv+3,floorf@x+3
  3618  001830  ECDF  F018         	call	_floorf	;wreg free
  3619  001834  C048  F0A2         	movff	?_floorf,efgtoa@l
  3620  001838  C049  F0A3         	movff	?_floorf+1,efgtoa@l+1
  3621  00183C  C04A  F0A4         	movff	?_floorf+2,efgtoa@l+2
  3622  001840  C04B  F0A5         	movff	?_floorf+3,efgtoa@l+3
  3623                           
  3624                           ;C:\Program Files (x86)\Microchip\xc8\v2.10\pic\sources\c99\common\doprnt.c: 448:       
      +                            d = (int)l;
  3625  001844  C0A2  F008         	movff	efgtoa@l,___fltol@f1
  3626  001848  C0A3  F009         	movff	efgtoa@l+1,___fltol@f1+1
  3627  00184C  C0A4  F00A         	movff	efgtoa@l+2,___fltol@f1+2
  3628  001850  C0A5  F00B         	movff	efgtoa@l+3,___fltol@f1+3
  3629  001854  EC3C  F01C         	call	___fltol	;wreg free
  3630  001858  C008  F094         	movff	?___fltol,efgtoa@d
  3631  00185C  C009  F095         	movff	?___fltol+1,efgtoa@d+1
  3632  001860                     
  3633                           ;C:\Program Files (x86)\Microchip\xc8\v2.10\pic\sources\c99\common\doprnt.c: 449:       
      +                            if (!(flags & (1 << 4)) && !d && (mode == 'g') && (ne < 0)) {
  3634  001860  B850               	btfsc	_flags^0,4,c
  3635  001862  EF35  F00C         	goto	u7601
  3636  001866  EF37  F00C         	goto	u7600
  3637  00186A                     u7601:
  3638  00186A  EF55  F00C         	goto	l6145
  3639  00186E                     u7600:
  3640  00186E  0100               	movlb	0	; () banked
  3641  001870  5194               	movf	efgtoa@d& (0+255),w,b
  3642  001872  1195               	iorwf	(efgtoa@d+1)& (0+255),w,b
  3643  001874  A4D8               	btfss	status,2,c
  3644  001876  EF3F  F00C         	goto	u7611
  3645  00187A  EF41  F00C         	goto	u7610
  3646  00187E                     u7611:
  3647  00187E  EF55  F00C         	goto	l6145
  3648  001882                     u7610:
  3649  001882                     
  3650                           ; BSR set to: 0
  3651  001882  0E67               	movlw	103
  3652  001884  199D               	xorwf	efgtoa@mode& (0+255),w,b
  3653  001886  A4D8               	btfss	status,2,c
  3654  001888  EF48  F00C         	goto	u7621
  3655  00188C  EF4A  F00C         	goto	u7620
  3656  001890                     u7621:
  3657  001890  EF55  F00C         	goto	l6145
  3658  001894                     u7620:
  3659  001894                     
  3660                           ; BSR set to: 0
  3661  001894  BF93               	btfsc	(efgtoa@ne+1)& (0+255),7,b
  3662  001896  EF51  F00C         	goto	u7630
  3663  00189A  EF4F  F00C         	goto	u7631
  3664  00189E                     u7631:
  3665  00189E  EF55  F00C         	goto	l6145
  3666  0018A2                     u7630:
  3667  0018A2                     
  3668                           ; BSR set to: 0
  3669                           ;C:\Program Files (x86)\Microchip\xc8\v2.10\pic\sources\c99\common\doprnt.c: 450:       
      +                                ++t;
  3670  0018A2  4B8C               	infsnz	efgtoa@t& (0+255),f,b
  3671  0018A4  2B8D               	incf	(efgtoa@t+1)& (0+255),f,b
  3672                           
  3673                           ;C:\Program Files (x86)\Microchip\xc8\v2.10\pic\sources\c99\common\doprnt.c: 451:       
      +                            } else {
  3674  0018A6  EFA0  F00C         	goto	l6173
  3675  0018AA                     l6145:
  3676                           
  3677                           ;C:\Program Files (x86)\Microchip\xc8\v2.10\pic\sources\c99\common\doprnt.c: 452:       
      +                                if (!pp && (ne < 0)) {
  3678  0018AA  0100               	movlb	0	; () banked
  3679  0018AC  518E               	movf	efgtoa@pp& (0+255),w,b
  3680  0018AE  118F               	iorwf	(efgtoa@pp+1)& (0+255),w,b
  3681  0018B0  A4D8               	btfss	status,2,c
  3682  0018B2  EF5D  F00C         	goto	u7641
  3683  0018B6  EF5F  F00C         	goto	u7640
  3684  0018BA                     u7641:
  3685  0018BA  EF89  F00C         	goto	l6165
  3686  0018BE                     u7640:
  3687  0018BE                     
  3688                           ; BSR set to: 0
  3689  0018BE  BF93               	btfsc	(efgtoa@ne+1)& (0+255),7,b
  3690  0018C0  EF66  F00C         	goto	u7650
  3691  0018C4  EF64  F00C         	goto	u7651
  3692  0018C8                     u7651:
  3693  0018C8  EF89  F00C         	goto	l6165
  3694  0018CC                     u7650:
  3695  0018CC                     
  3696                           ; BSR set to: 0
  3697                           ;C:\Program Files (x86)\Microchip\xc8\v2.10\pic\sources\c99\common\doprnt.c: 453:       
      +                                    dbuf[n++] = '.';
  3698  0018CC  0E08               	movlw	low _dbuf
  3699  0018CE  25AE               	addwf	efgtoa@n& (0+255),w,b
  3700  0018D0  6ED9               	movwf	fsr2l,c
  3701  0018D2  0E01               	movlw	high _dbuf
  3702  0018D4  21AF               	addwfc	(efgtoa@n+1)& (0+255),w,b
  3703  0018D6  6EDA               	movwf	fsr2h,c
  3704  0018D8  0E2E               	movlw	46
  3705  0018DA  6EDF               	movwf	indf2,c
  3706  0018DC                     
  3707                           ; BSR set to: 0
  3708  0018DC  4BAE               	infsnz	efgtoa@n& (0+255),f,b
  3709  0018DE  2BAF               	incf	(efgtoa@n+1)& (0+255),f,b
  3710  0018E0                     
  3711                           ; BSR set to: 0
  3712                           ;C:\Program Files (x86)\Microchip\xc8\v2.10\pic\sources\c99\common\doprnt.c: 454:       
      +                                    --w;
  3713  0018E0  079B               	decf	efgtoa@w& (0+255),f,b
  3714  0018E2  A0D8               	btfss	status,0,c
  3715  0018E4  079C               	decf	(efgtoa@w+1)& (0+255),f,b
  3716  0018E6                     
  3717                           ; BSR set to: 0
  3718                           ;C:\Program Files (x86)\Microchip\xc8\v2.10\pic\sources\c99\common\doprnt.c: 455:       
      +                                    pp = 1;
  3719  0018E6  0E00               	movlw	0
  3720  0018E8  6F8F               	movwf	(efgtoa@pp+1)& (0+255),b
  3721  0018EA  0E01               	movlw	1
  3722  0018EC  6F8E               	movwf	efgtoa@pp& (0+255),b
  3723  0018EE  EF89  F00C         	goto	l6165
  3724  0018F2                     l6157:
  3725                           
  3726                           ; BSR set to: 0
  3727                           ;C:\Program Files (x86)\Microchip\xc8\v2.10\pic\sources\c99\common\doprnt.c: 458:       
      +                                    dbuf[n++] = '0';
  3728  0018F2  0E08               	movlw	low _dbuf
  3729  0018F4  25AE               	addwf	efgtoa@n& (0+255),w,b
  3730  0018F6  6ED9               	movwf	fsr2l,c
  3731  0018F8  0E01               	movlw	high _dbuf
  3732  0018FA  21AF               	addwfc	(efgtoa@n+1)& (0+255),w,b
  3733  0018FC  6EDA               	movwf	fsr2h,c
  3734  0018FE  0E30               	movlw	48
  3735  001900  6EDF               	movwf	indf2,c
  3736  001902                     
  3737                           ; BSR set to: 0
  3738  001902  4BAE               	infsnz	efgtoa@n& (0+255),f,b
  3739  001904  2BAF               	incf	(efgtoa@n+1)& (0+255),f,b
  3740  001906                     
  3741                           ; BSR set to: 0
  3742                           ;C:\Program Files (x86)\Microchip\xc8\v2.10\pic\sources\c99\common\doprnt.c: 459:       
      +                                    --w;
  3743  001906  079B               	decf	efgtoa@w& (0+255),f,b
  3744  001908  A0D8               	btfss	status,0,c
  3745  00190A  079C               	decf	(efgtoa@w+1)& (0+255),f,b
  3746  00190C                     
  3747                           ; BSR set to: 0
  3748                           ;C:\Program Files (x86)\Microchip\xc8\v2.10\pic\sources\c99\common\doprnt.c: 460:       
      +                                    --t;
  3749  00190C  078C               	decf	efgtoa@t& (0+255),f,b
  3750  00190E  A0D8               	btfss	status,0,c
  3751  001910  078D               	decf	(efgtoa@t+1)& (0+255),f,b
  3752  001912                     l6165:
  3753                           
  3754                           ; BSR set to: 0
  3755                           ;C:\Program Files (x86)\Microchip\xc8\v2.10\pic\sources\c99\common\doprnt.c: 457:       
      +                                while (t) {
  3756  001912  518C               	movf	efgtoa@t& (0+255),w,b
  3757  001914  118D               	iorwf	(efgtoa@t+1)& (0+255),w,b
  3758  001916  A4D8               	btfss	status,2,c
  3759  001918  EF90  F00C         	goto	u7661
  3760  00191C  EF92  F00C         	goto	u7660
  3761  001920                     u7661:
  3762  001920  EF79  F00C         	goto	l6157
  3763  001924                     u7660:
  3764  001924                     
  3765                           ; BSR set to: 0
  3766                           ;C:\Program Files (x86)\Microchip\xc8\v2.10\pic\sources\c99\common\doprnt.c: 462:       
      +                                dbuf[n++] = '0' + d;
  3767  001924  0E08               	movlw	low _dbuf
  3768  001926  25AE               	addwf	efgtoa@n& (0+255),w,b
  3769  001928  6ED9               	movwf	fsr2l,c
  3770  00192A  0E01               	movlw	high _dbuf
  3771  00192C  21AF               	addwfc	(efgtoa@n+1)& (0+255),w,b
  3772  00192E  6EDA               	movwf	fsr2h,c
  3773  001930  5194               	movf	efgtoa@d& (0+255),w,b
  3774  001932  0F30               	addlw	48
  3775  001934  6EDF               	movwf	indf2,c
  3776  001936                     
  3777                           ; BSR set to: 0
  3778  001936  4BAE               	infsnz	efgtoa@n& (0+255),f,b
  3779  001938  2BAF               	incf	(efgtoa@n+1)& (0+255),f,b
  3780  00193A                     
  3781                           ; BSR set to: 0
  3782                           ;C:\Program Files (x86)\Microchip\xc8\v2.10\pic\sources\c99\common\doprnt.c: 463:       
      +                                --w;
  3783  00193A  079B               	decf	efgtoa@w& (0+255),f,b
  3784  00193C  A0D8               	btfss	status,0,c
  3785  00193E  079C               	decf	(efgtoa@w+1)& (0+255),f,b
  3786  001940                     l6173:
  3787                           
  3788                           ; BSR set to: 0
  3789                           ;C:\Program Files (x86)\Microchip\xc8\v2.10\pic\sources\c99\common\doprnt.c: 465:       
      +                            h -= l*u;
  3790  001940  C09E  F02F         	movff	efgtoa@h,___flsub@b
  3791  001944  C09F  F030         	movff	efgtoa@h+1,___flsub@b+1
  3792  001948  C0A0  F031         	movff	efgtoa@h+2,___flsub@b+2
  3793  00194C  C0A1  F032         	movff	efgtoa@h+3,___flsub@b+3
  3794  001950  C0B0  F01A         	movff	efgtoa@u,___flmul@a
  3795  001954  C0B1  F01B         	movff	efgtoa@u+1,___flmul@a+1
  3796  001958  C0B2  F01C         	movff	efgtoa@u+2,___flmul@a+2
  3797  00195C  C0B3  F01D         	movff	efgtoa@u+3,___flmul@a+3
  3798  001960  C0A2  F016         	movff	efgtoa@l,___flmul@b
  3799  001964  C0A3  F017         	movff	efgtoa@l+1,___flmul@b+1
  3800  001968  C0A4  F018         	movff	efgtoa@l+2,___flmul@b+2
  3801  00196C  C0A5  F019         	movff	efgtoa@l+3,___flmul@b+3
  3802  001970  EC6E  F013         	call	___flmul	;wreg free
  3803  001974  C016  F033         	movff	?___flmul,___flsub@a
  3804  001978  C017  F034         	movff	?___flmul+1,___flsub@a+1
  3805  00197C  C018  F035         	movff	?___flmul+2,___flsub@a+2
  3806  001980  C019  F036         	movff	?___flmul+3,___flsub@a+3
  3807  001984  EC85  F021         	call	___flsub	;wreg free
  3808  001988  C02F  F09E         	movff	?___flsub,efgtoa@h
  3809  00198C  C030  F09F         	movff	?___flsub+1,efgtoa@h+1
  3810  001990  C031  F0A0         	movff	?___flsub+2,efgtoa@h+2
  3811  001994  C032  F0A1         	movff	?___flsub+3,efgtoa@h+3
  3812  001998                     
  3813                           ;C:\Program Files (x86)\Microchip\xc8\v2.10\pic\sources\c99\common\doprnt.c: 466:       
      +                            u = u/10.0;
  3814  001998  C0B0  F02F         	movff	efgtoa@u,___fldiv@b
  3815  00199C  C0B1  F030         	movff	efgtoa@u+1,___fldiv@b+1
  3816  0019A0  C0B2  F031         	movff	efgtoa@u+2,___fldiv@b+2
  3817  0019A4  C0B3  F032         	movff	efgtoa@u+3,___fldiv@b+3
  3818  0019A8  0E00               	movlw	0
  3819  0019AA  6E33               	movwf	___fldiv@a^0,c
  3820  0019AC  0E00               	movlw	0
  3821  0019AE  6E34               	movwf	(___fldiv@a+1)^0,c
  3822  0019B0  0E20               	movlw	32
  3823  0019B2  6E35               	movwf	(___fldiv@a+2)^0,c
  3824  0019B4  0E41               	movlw	65
  3825  0019B6  6E36               	movwf	(___fldiv@a+3)^0,c
  3826  0019B8  EC83  F015         	call	___fldiv	;wreg free
  3827  0019BC  C02F  F0B0         	movff	?___fldiv,efgtoa@u
  3828  0019C0  C030  F0B1         	movff	?___fldiv+1,efgtoa@u+1
  3829  0019C4  C031  F0B2         	movff	?___fldiv+2,efgtoa@u+2
  3830  0019C8  C032  F0B3         	movff	?___fldiv+3,efgtoa@u+3
  3831  0019CC                     
  3832                           ;C:\Program Files (x86)\Microchip\xc8\v2.10\pic\sources\c99\common\doprnt.c: 467:       
      +                            --ne;
  3833  0019CC  0100               	movlb	0	; () banked
  3834  0019CE  0792               	decf	efgtoa@ne& (0+255),f,b
  3835  0019D0  A0D8               	btfss	status,0,c
  3836  0019D2  0793               	decf	(efgtoa@ne+1)& (0+255),f,b
  3837  0019D4                     
  3838                           ; BSR set to: 0
  3839                           ;C:\Program Files (x86)\Microchip\xc8\v2.10\pic\sources\c99\common\doprnt.c: 468:       
      +                            ++i;
  3840  0019D4  4BA6               	infsnz	efgtoa@i& (0+255),f,b
  3841  0019D6  2BA7               	incf	(efgtoa@i+1)& (0+255),f,b
  3842  0019D8                     l6181:
  3843                           
  3844                           ; BSR set to: 0
  3845                           ;C:\Program Files (x86)\Microchip\xc8\v2.10\pic\sources\c99\common\doprnt.c: 446:     wh
      +                          ile ((i < m) && (n < (80 - 5))) {
  3846  0019D8  5190               	movf	efgtoa@m& (0+255),w,b
  3847  0019DA  5DA6               	subwf	efgtoa@i& (0+255),w,b
  3848  0019DC  51A7               	movf	(efgtoa@i+1)& (0+255),w,b
  3849  0019DE  0A80               	xorlw	128
  3850  0019E0  6F77               	movwf	??_efgtoa& (0+255),b
  3851  0019E2  5191               	movf	(efgtoa@m+1)& (0+255),w,b
  3852  0019E4  0A80               	xorlw	128
  3853  0019E6  5977               	subwfb	??_efgtoa& (0+255),w,b
  3854  0019E8  B0D8               	btfsc	status,0,c
  3855  0019EA  EFF9  F00C         	goto	u7671
  3856  0019EE  EFFB  F00C         	goto	u7670
  3857  0019F2                     u7671:
  3858  0019F2  EF09  F00D         	goto	l6185
  3859  0019F6                     u7670:
  3860  0019F6                     
  3861                           ; BSR set to: 0
  3862  0019F6  BFAF               	btfsc	(efgtoa@n+1)& (0+255),7,b
  3863  0019F8  EF07  F00D         	goto	u7681
  3864  0019FC  51AF               	movf	(efgtoa@n+1)& (0+255),w,b
  3865  0019FE  E109               	bnz	u7680
  3866  001A00  0E4B               	movlw	75
  3867  001A02  5DAE               	subwf	efgtoa@n& (0+255),w,b
  3868  001A04  A0D8               	btfss	status,0,c
  3869  001A06  EF07  F00D         	goto	u7681
  3870  001A0A  EF09  F00D         	goto	u7680
  3871  001A0E                     u7681:
  3872  001A0E  EFFE  F00B         	goto	l6133
  3873  001A12                     u7680:
  3874  001A12                     l6185:
  3875                           
  3876                           ; BSR set to: 0
  3877                           ;C:\Program Files (x86)\Microchip\xc8\v2.10\pic\sources\c99\common\doprnt.c: 470:     if
      +                           (!pp && (flags & (1 << 4))) {
  3878  001A12  518E               	movf	efgtoa@pp& (0+255),w,b
  3879  001A14  118F               	iorwf	(efgtoa@pp+1)& (0+255),w,b
  3880  001A16  A4D8               	btfss	status,2,c
  3881  001A18  EF10  F00D         	goto	u7691
  3882  001A1C  EF12  F00D         	goto	u7690
  3883  001A20                     u7691:
  3884  001A20  EF23  F00D         	goto	l6193
  3885  001A24                     u7690:
  3886  001A24                     
  3887                           ; BSR set to: 0
  3888  001A24  A850               	btfss	_flags^0,4,c
  3889  001A26  EF17  F00D         	goto	u7701
  3890  001A2A  EF19  F00D         	goto	u7700
  3891  001A2E                     u7701:
  3892  001A2E  EF23  F00D         	goto	l6193
  3893  001A32                     u7700:
  3894  001A32                     
  3895                           ; BSR set to: 0
  3896                           ;C:\Program Files (x86)\Microchip\xc8\v2.10\pic\sources\c99\common\doprnt.c: 471:       
      +                            dbuf[n++] = '.';
  3897  001A32  0E08               	movlw	low _dbuf
  3898  001A34  25AE               	addwf	efgtoa@n& (0+255),w,b
  3899  001A36  6ED9               	movwf	fsr2l,c
  3900  001A38  0E01               	movlw	high _dbuf
  3901  001A3A  21AF               	addwfc	(efgtoa@n+1)& (0+255),w,b
  3902  001A3C  6EDA               	movwf	fsr2h,c
  3903  001A3E  0E2E               	movlw	46
  3904  001A40  6EDF               	movwf	indf2,c
  3905  001A42                     
  3906                           ; BSR set to: 0
  3907  001A42  4BAE               	infsnz	efgtoa@n& (0+255),f,b
  3908  001A44  2BAF               	incf	(efgtoa@n+1)& (0+255),f,b
  3909  001A46                     l6193:
  3910                           
  3911                           ; BSR set to: 0
  3912                           ;C:\Program Files (x86)\Microchip\xc8\v2.10\pic\sources\c99\common\doprnt.c: 473:     db
      +                          uf[n] = '\0';
  3913  001A46  0E08               	movlw	low _dbuf
  3914  001A48  25AE               	addwf	efgtoa@n& (0+255),w,b
  3915  001A4A  6ED9               	movwf	fsr2l,c
  3916  001A4C  0E01               	movlw	high _dbuf
  3917  001A4E  21AF               	addwfc	(efgtoa@n+1)& (0+255),w,b
  3918  001A50  6EDA               	movwf	fsr2h,c
  3919  001A52  0E00               	movlw	0
  3920  001A54  6EDF               	movwf	indf2,c
  3921  001A56                     
  3922                           ; BSR set to: 0
  3923                           ;C:\Program Files (x86)\Microchip\xc8\v2.10\pic\sources\c99\common\doprnt.c: 476:     if
      +                           (nmode == 'e') {
  3924  001A56  0E65               	movlw	101
  3925  001A58  199A               	xorwf	efgtoa@nmode& (0+255),w,b
  3926  001A5A  A4D8               	btfss	status,2,c
  3927  001A5C  EF32  F00D         	goto	u7711
  3928  001A60  EF34  F00D         	goto	u7710
  3929  001A64                     u7711:
  3930  001A64  EFE1  F008         	goto	l6005
  3931  001A68                     u7710:
  3932  001A68                     
  3933                           ; BSR set to: 0
  3934                           ;C:\Program Files (x86)\Microchip\xc8\v2.10\pic\sources\c99\common\doprnt.c: 477:       
      +                            i = sizeof(dbuf) - 1;
  3935  001A68  0E00               	movlw	0
  3936  001A6A  6FA7               	movwf	(efgtoa@i+1)& (0+255),b
  3937  001A6C  0E4F               	movlw	79
  3938  001A6E  6FA6               	movwf	efgtoa@i& (0+255),b
  3939  001A70                     
  3940                           ; BSR set to: 0
  3941                           ;C:\Program Files (x86)\Microchip\xc8\v2.10\pic\sources\c99\common\doprnt.c: 478:       
      +                            dbuf[i] = '\0';
  3942  001A70  0E08               	movlw	low _dbuf
  3943  001A72  25A6               	addwf	efgtoa@i& (0+255),w,b
  3944  001A74  6ED9               	movwf	fsr2l,c
  3945  001A76  0E01               	movlw	high _dbuf
  3946  001A78  21A7               	addwfc	(efgtoa@i+1)& (0+255),w,b
  3947  001A7A  6EDA               	movwf	fsr2h,c
  3948  001A7C  0E00               	movlw	0
  3949  001A7E  6EDF               	movwf	indf2,c
  3950  001A80                     
  3951                           ; BSR set to: 0
  3952                           ;C:\Program Files (x86)\Microchip\xc8\v2.10\pic\sources\c99\common\doprnt.c: 479:       
      +                            sign = 0;
  3953  001A80  0E00               	movlw	0
  3954  001A82  6F97               	movwf	(efgtoa@sign+1)& (0+255),b
  3955  001A84  0E00               	movlw	0
  3956  001A86  6F96               	movwf	efgtoa@sign& (0+255),b
  3957  001A88                     
  3958                           ; BSR set to: 0
  3959                           ;C:\Program Files (x86)\Microchip\xc8\v2.10\pic\sources\c99\common\doprnt.c: 480:       
      +                            if (e < 0) {
  3960  001A88  BFAD               	btfsc	(efgtoa@e+1)& (0+255),7,b
  3961  001A8A  EF4B  F00D         	goto	u7720
  3962  001A8E  EF49  F00D         	goto	u7721
  3963  001A92                     u7721:
  3964  001A92  EF53  F00D         	goto	l6209
  3965  001A96                     u7720:
  3966  001A96                     
  3967                           ; BSR set to: 0
  3968                           ;C:\Program Files (x86)\Microchip\xc8\v2.10\pic\sources\c99\common\doprnt.c: 481:       
      +                                sign = 1;
  3969  001A96  0E00               	movlw	0
  3970  001A98  6F97               	movwf	(efgtoa@sign+1)& (0+255),b
  3971  001A9A  0E01               	movlw	1
  3972  001A9C  6F96               	movwf	efgtoa@sign& (0+255),b
  3973  001A9E                     
  3974                           ; BSR set to: 0
  3975                           ;C:\Program Files (x86)\Microchip\xc8\v2.10\pic\sources\c99\common\doprnt.c: 482:       
      +                                e = -e;
  3976  001A9E  6DAC               	negf	efgtoa@e& (0+255),b
  3977  001AA0  1FAD               	comf	(efgtoa@e+1)& (0+255),f,b
  3978  001AA2  B0D8               	btfsc	status,0,c
  3979  001AA4  2BAD               	incf	(efgtoa@e+1)& (0+255),f,b
  3980  001AA6                     l6209:
  3981                           
  3982                           ; BSR set to: 0
  3983                           ;C:\Program Files (x86)\Microchip\xc8\v2.10\pic\sources\c99\common\doprnt.c: 484:       
      +                            p = 2;
  3984  001AA6  0E00               	movlw	0
  3985  001AA8  6F99               	movwf	(efgtoa@p+1)& (0+255),b
  3986  001AAA  0E02               	movlw	2
  3987  001AAC  6F98               	movwf	efgtoa@p& (0+255),b
  3988                           
  3989                           ;C:\Program Files (x86)\Microchip\xc8\v2.10\pic\sources\c99\common\doprnt.c: 485:       
      +                            while (e || (0 < p)) {
  3990  001AAE  EF84  F00D         	goto	l6221
  3991  001AB2                     l6211:
  3992                           
  3993                           ; BSR set to: 0
  3994                           ;C:\Program Files (x86)\Microchip\xc8\v2.10\pic\sources\c99\common\doprnt.c: 486:       
      +                                --i;
  3995  001AB2  07A6               	decf	efgtoa@i& (0+255),f,b
  3996  001AB4  A0D8               	btfss	status,0,c
  3997  001AB6  07A7               	decf	(efgtoa@i+1)& (0+255),f,b
  3998  001AB8                     
  3999                           ; BSR set to: 0
  4000                           ;C:\Program Files (x86)\Microchip\xc8\v2.10\pic\sources\c99\common\doprnt.c: 487:       
      +                                dbuf[i] = '0' + (e % 10);
  4001  001AB8  0E08               	movlw	low _dbuf
  4002  001ABA  25A6               	addwf	efgtoa@i& (0+255),w,b
  4003  001ABC  6ED9               	movwf	fsr2l,c
  4004  001ABE  0E01               	movlw	high _dbuf
  4005  001AC0  21A7               	addwfc	(efgtoa@i+1)& (0+255),w,b
  4006  001AC2  6EDA               	movwf	fsr2h,c
  4007  001AC4  C0AC  F008         	movff	efgtoa@e,___awmod@dividend
  4008  001AC8  C0AD  F009         	movff	efgtoa@e+1,___awmod@dividend+1
  4009  001ACC  0E00               	movlw	0
  4010  001ACE  6E0B               	movwf	(___awmod@divisor+1)^0,c
  4011  001AD0  0E0A               	movlw	10
  4012  001AD2  6E0A               	movwf	___awmod@divisor^0,c
  4013  001AD4  EC56  F01F         	call	___awmod	;wreg free
  4014  001AD8  5008               	movf	?___awmod^0,w,c
  4015  001ADA  0F30               	addlw	48
  4016  001ADC  6EDF               	movwf	indf2,c
  4017  001ADE                     
  4018                           ;C:\Program Files (x86)\Microchip\xc8\v2.10\pic\sources\c99\common\doprnt.c: 488:       
      +                                e = e / 10;
  4019  001ADE  C0AC  F008         	movff	efgtoa@e,___awdiv@dividend
  4020  001AE2  C0AD  F009         	movff	efgtoa@e+1,___awdiv@dividend+1
  4021  001AE6  0E00               	movlw	0
  4022  001AE8  6E0B               	movwf	(___awdiv@divisor+1)^0,c
  4023  001AEA  0E0A               	movlw	10
  4024  001AEC  6E0A               	movwf	___awdiv@divisor^0,c
  4025  001AEE  EC93  F01E         	call	___awdiv	;wreg free
  4026  001AF2  C008  F0AC         	movff	?___awdiv,efgtoa@e
  4027  001AF6  C009  F0AD         	movff	?___awdiv+1,efgtoa@e+1
  4028  001AFA                     
  4029                           ;C:\Program Files (x86)\Microchip\xc8\v2.10\pic\sources\c99\common\doprnt.c: 489:       
      +                                --p;
  4030  001AFA  0100               	movlb	0	; () banked
  4031  001AFC  0798               	decf	efgtoa@p& (0+255),f,b
  4032  001AFE  A0D8               	btfss	status,0,c
  4033  001B00  0799               	decf	(efgtoa@p+1)& (0+255),f,b
  4034  001B02                     
  4035                           ; BSR set to: 0
  4036                           ;C:\Program Files (x86)\Microchip\xc8\v2.10\pic\sources\c99\common\doprnt.c: 490:       
      +                                --w;
  4037  001B02  079B               	decf	efgtoa@w& (0+255),f,b
  4038  001B04  A0D8               	btfss	status,0,c
  4039  001B06  079C               	decf	(efgtoa@w+1)& (0+255),f,b
  4040  001B08                     l6221:
  4041                           
  4042                           ; BSR set to: 0
  4043                           ;C:\Program Files (x86)\Microchip\xc8\v2.10\pic\sources\c99\common\doprnt.c: 485:       
      +                            while (e || (0 < p)) {
  4044  001B08  51AC               	movf	efgtoa@e& (0+255),w,b
  4045  001B0A  11AD               	iorwf	(efgtoa@e+1)& (0+255),w,b
  4046  001B0C  A4D8               	btfss	status,2,c
  4047  001B0E  EF8B  F00D         	goto	u7731
  4048  001B12  EF8D  F00D         	goto	u7730
  4049  001B16                     u7731:
  4050  001B16  EF59  F00D         	goto	l6211
  4051  001B1A                     u7730:
  4052  001B1A                     
  4053                           ; BSR set to: 0
  4054  001B1A  BF99               	btfsc	(efgtoa@p+1)& (0+255),7,b
  4055  001B1C  EF9A  F00D         	goto	u7740
  4056  001B20  5199               	movf	(efgtoa@p+1)& (0+255),w,b
  4057  001B22  E106               	bnz	u7741
  4058  001B24  0598               	decf	efgtoa@p& (0+255),w,b
  4059  001B26  B0D8               	btfsc	status,0,c
  4060  001B28  EF98  F00D         	goto	u7741
  4061  001B2C  EF9A  F00D         	goto	u7740
  4062  001B30                     u7741:
  4063  001B30  EF59  F00D         	goto	l6211
  4064  001B34                     u7740:
  4065  001B34                     
  4066                           ; BSR set to: 0
  4067                           ;C:\Program Files (x86)\Microchip\xc8\v2.10\pic\sources\c99\common\doprnt.c: 492:       
      +                            --i;
  4068  001B34  07A6               	decf	efgtoa@i& (0+255),f,b
  4069  001B36  A0D8               	btfss	status,0,c
  4070  001B38  07A7               	decf	(efgtoa@i+1)& (0+255),f,b
  4071  001B3A                     
  4072                           ; BSR set to: 0
  4073                           ;C:\Program Files (x86)\Microchip\xc8\v2.10\pic\sources\c99\common\doprnt.c: 493:       
      +                            dbuf[i] = sign ? '-' : '+';
  4074  001B3A  5196               	movf	efgtoa@sign& (0+255),w,b
  4075  001B3C  1197               	iorwf	(efgtoa@sign+1)& (0+255),w,b
  4076  001B3E  A4D8               	btfss	status,2,c
  4077  001B40  EFA4  F00D         	goto	u7751
  4078  001B44  EFA6  F00D         	goto	u7750
  4079  001B48                     u7751:
  4080  001B48  EFAC  F00D         	goto	l6231
  4081  001B4C                     u7750:
  4082  001B4C                     
  4083                           ; BSR set to: 0
  4084  001B4C  0E00               	movlw	0
  4085  001B4E  6F87               	movwf	(_efgtoa$1756+1)& (0+255),b
  4086  001B50  0E2B               	movlw	43
  4087  001B52  6F86               	movwf	_efgtoa$1756& (0+255),b
  4088  001B54  EFB0  F00D         	goto	l6233
  4089  001B58                     l6231:
  4090                           
  4091                           ; BSR set to: 0
  4092  001B58  0E00               	movlw	0
  4093  001B5A  6F87               	movwf	(_efgtoa$1756+1)& (0+255),b
  4094  001B5C  0E2D               	movlw	45
  4095  001B5E  6F86               	movwf	_efgtoa$1756& (0+255),b
  4096  001B60                     l6233:
  4097                           
  4098                           ; BSR set to: 0
  4099  001B60  0E08               	movlw	low _dbuf
  4100  001B62  25A6               	addwf	efgtoa@i& (0+255),w,b
  4101  001B64  6ED9               	movwf	fsr2l,c
  4102  001B66  0E01               	movlw	high _dbuf
  4103  001B68  21A7               	addwfc	(efgtoa@i+1)& (0+255),w,b
  4104  001B6A  6EDA               	movwf	fsr2h,c
  4105  001B6C  C086  FFDF         	movff	_efgtoa$1756,indf2
  4106  001B70                     
  4107                           ; BSR set to: 0
  4108                           ;C:\Program Files (x86)\Microchip\xc8\v2.10\pic\sources\c99\common\doprnt.c: 494:       
      +                            --w;
  4109  001B70  079B               	decf	efgtoa@w& (0+255),f,b
  4110  001B72  A0D8               	btfss	status,0,c
  4111  001B74  079C               	decf	(efgtoa@w+1)& (0+255),f,b
  4112  001B76                     
  4113                           ; BSR set to: 0
  4114                           ;C:\Program Files (x86)\Microchip\xc8\v2.10\pic\sources\c99\common\doprnt.c: 496:       
      +                            dbuf[i] = (0 ? isupper((int)c) : ((unsigned)((int)c)-'A') < 26) ? 'E' : 'e';
  4115  001B76  07A6               	decf	efgtoa@i& (0+255),f,b
  4116  001B78  A0D8               	btfss	status,0,c
  4117  001B7A  07A7               	decf	(efgtoa@i+1)& (0+255),f,b
  4118  001B7C                     
  4119                           ; BSR set to: 0
  4120  001B7C  0EBF               	movlw	191
  4121  001B7E  6F77               	movwf	??_efgtoa& (0+255),b
  4122  001B80  0EFF               	movlw	255
  4123  001B82  6F78               	movwf	(??_efgtoa+1)& (0+255),b
  4124  001B84  5176               	movf	efgtoa@c& (0+255),w,b
  4125  001B86  6F79               	movwf	(??_efgtoa+2)& (0+255),b
  4126  001B88  6B7A               	clrf	(??_efgtoa+3)& (0+255),b
  4127  001B8A  5177               	movf	??_efgtoa& (0+255),w,b
  4128  001B8C  2779               	addwf	(??_efgtoa+2)& (0+255),f,b
  4129  001B8E  5178               	movf	(??_efgtoa+1)& (0+255),w,b
  4130  001B90  237A               	addwfc	(??_efgtoa+3)& (0+255),f,b
  4131  001B92  517A               	movf	(??_efgtoa+3)& (0+255),w,b
  4132  001B94  E10A               	bnz	u7760
  4133  001B96  0E1A               	movlw	26
  4134  001B98  5D79               	subwf	(??_efgtoa+2)& (0+255),w,b
  4135  001B9A  A0D8               	btfss	status,0,c
  4136  001B9C  EFD2  F00D         	goto	u7761
  4137  001BA0  EFD5  F00D         	goto	u7760
  4138  001BA4                     u7761:
  4139  001BA4  0E01               	movlw	1
  4140  001BA6  EFD6  F00D         	goto	u7770
  4141  001BAA                     u7760:
  4142  001BAA  0E00               	movlw	0
  4143  001BAC                     u7770:
  4144  001BAC  6F8A               	movwf	_efgtoa$1758& (0+255),b
  4145  001BAE  6B8B               	clrf	(_efgtoa$1758+1)& (0+255),b
  4146  001BB0                     
  4147                           ; BSR set to: 0
  4148  001BB0  518A               	movf	_efgtoa$1758& (0+255),w,b
  4149  001BB2  118B               	iorwf	(_efgtoa$1758+1)& (0+255),w,b
  4150  001BB4  A4D8               	btfss	status,2,c
  4151  001BB6  EFDF  F00D         	goto	u7781
  4152  001BBA  EFE1  F00D         	goto	u7780
  4153  001BBE                     u7781:
  4154  001BBE  EFE7  F00D         	goto	l6247
  4155  001BC2                     u7780:
  4156  001BC2                     
  4157                           ; BSR set to: 0
  4158  001BC2  0E00               	movlw	0
  4159  001BC4  6F89               	movwf	(_efgtoa$1757+1)& (0+255),b
  4160  001BC6  0E65               	movlw	101
  4161  001BC8  6F88               	movwf	_efgtoa$1757& (0+255),b
  4162  001BCA  EFEB  F00D         	goto	l6249
  4163  001BCE                     l6247:
  4164                           
  4165                           ; BSR set to: 0
  4166  001BCE  0E00               	movlw	0
  4167  001BD0  6F89               	movwf	(_efgtoa$1757+1)& (0+255),b
  4168  001BD2  0E45               	movlw	69
  4169  001BD4  6F88               	movwf	_efgtoa$1757& (0+255),b
  4170  001BD6                     l6249:
  4171                           
  4172                           ; BSR set to: 0
  4173  001BD6  0E08               	movlw	low _dbuf
  4174  001BD8  25A6               	addwf	efgtoa@i& (0+255),w,b
  4175  001BDA  6ED9               	movwf	fsr2l,c
  4176  001BDC  0E01               	movlw	high _dbuf
  4177  001BDE  21A7               	addwfc	(efgtoa@i+1)& (0+255),w,b
  4178  001BE0  6EDA               	movwf	fsr2h,c
  4179  001BE2  C088  FFDF         	movff	_efgtoa$1757,indf2
  4180  001BE6                     
  4181                           ; BSR set to: 0
  4182                           ;C:\Program Files (x86)\Microchip\xc8\v2.10\pic\sources\c99\common\doprnt.c: 497:       
      +                            --w;
  4183  001BE6  079B               	decf	efgtoa@w& (0+255),f,b
  4184  001BE8  A0D8               	btfss	status,0,c
  4185  001BEA  079C               	decf	(efgtoa@w+1)& (0+255),f,b
  4186  001BEC                     
  4187                           ; BSR set to: 0
  4188                           ;C:\Program Files (x86)\Microchip\xc8\v2.10\pic\sources\c99\common\doprnt.c: 498:       
      +                            strcpy(&dbuf[n], &dbuf[i]);
  4189  001BEC  0E08               	movlw	low _dbuf
  4190  001BEE  25AE               	addwf	efgtoa@n& (0+255),w,b
  4191  001BF0  6E08               	movwf	strcpy@dest^0,c
  4192  001BF2  0E01               	movlw	high _dbuf
  4193  001BF4  21AF               	addwfc	(efgtoa@n+1)& (0+255),w,b
  4194  001BF6  6E09               	movwf	(strcpy@dest+1)^0,c
  4195  001BF8  0E08               	movlw	low _dbuf
  4196  001BFA  25A6               	addwf	efgtoa@i& (0+255),w,b
  4197  001BFC  6E0A               	movwf	strcpy@src^0,c
  4198  001BFE  0E01               	movlw	high _dbuf
  4199  001C00  21A7               	addwfc	(efgtoa@i+1)& (0+255),w,b
  4200  001C02  6E0B               	movwf	(strcpy@src+1)^0,c
  4201  001C04  ECDB  F020         	call	_strcpy	;wreg free
  4202  001C08  EFE1  F008         	goto	l6005
  4203  001C0C                     l538:
  4204  001C0C  0012               	return		;funcret
  4205  001C0E                     __end_of_efgtoa:
  4206                           	opt callstack 0
  4207                           
  4208 ;; *************** function _tolower *****************
  4209 ;; Defined at:
  4210 ;;		line 4 in file "C:\Program Files (x86)\Microchip\xc8\v2.10\pic\sources\c99\common\tolower.c"
  4211 ;; Parameters:    Size  Location     Type
  4212 ;;  c               2   13[COMRAM] int 
  4213 ;; Auto vars:     Size  Location     Type
  4214 ;;		None
  4215 ;; Return value:  Size  Location     Type
  4216 ;;                  2   13[COMRAM] int 
  4217 ;; Registers used:
  4218 ;;		wreg, status,2, status,0
  4219 ;; Tracked objects:
  4220 ;;		On entry : 0/0
  4221 ;;		On exit  : 0/0
  4222 ;;		Unchanged: 0/0
  4223 ;; Data sizes:     COMRAM   BANK0   BANK1   BANK2   BANK3   BANK4   BANK5   BANK6   BANK7   BANK8   BANK9  BANK10  BANK1
      +1  BANK12  BANK13  BANK14  BANK15
  4224 ;;      Params:         2       0       0       0       0       0       0       0       0       0       0       0       
      +0       0       0       0       0
  4225 ;;      Locals:         2       0       0       0       0       0       0       0       0       0       0       0       
      +0       0       0       0       0
  4226 ;;      Temps:          4       0       0       0       0       0       0       0       0       0       0       0       
      +0       0       0       0       0
  4227 ;;      Totals:         8       0       0       0       0       0       0       0       0       0       0       0       
      +0       0       0       0       0
  4228 ;;Total ram usage:        8 bytes
  4229 ;; Hardware stack levels used:    1
  4230 ;; Hardware stack levels required when called:    4
  4231 ;; This function calls:
  4232 ;;		_isupper
  4233 ;; This function is called by:
  4234 ;;		_efgtoa
  4235 ;;		_vfpfcnvrt
  4236 ;; This function uses a non-reentrant model
  4237 ;;
  4238                           
  4239                           	psect	text7
  4240  004156                     __ptext7:
  4241                           	opt callstack 0
  4242  004156                     _tolower:
  4243                           	opt callstack 23
  4244  004156  0EBF               	movlw	191
  4245  004158  6E10               	movwf	??_tolower^0,c
  4246  00415A  0EFF               	movlw	255
  4247  00415C  6E11               	movwf	(??_tolower+1)^0,c
  4248  00415E  C00E  F012         	movff	tolower@c,??_tolower+2
  4249  004162  C00F  F013         	movff	tolower@c+1,??_tolower+3
  4250  004166  5010               	movf	??_tolower^0,w,c
  4251  004168  2612               	addwf	(??_tolower+2)^0,f,c
  4252  00416A  5011               	movf	(??_tolower+1)^0,w,c
  4253  00416C  2213               	addwfc	(??_tolower+3)^0,f,c
  4254  00416E  5013               	movf	(??_tolower+3)^0,w,c
  4255  004170  E10A               	bnz	u6400
  4256  004172  0E1A               	movlw	26
  4257  004174  5C12               	subwf	(??_tolower+2)^0,w,c
  4258  004176  A0D8               	btfss	status,0,c
  4259  004178  EFC0  F020         	goto	u6401
  4260  00417C  EFC3  F020         	goto	u6400
  4261  004180                     u6401:
  4262  004180  0E01               	movlw	1
  4263  004182  EFC4  F020         	goto	u6410
  4264  004186                     u6400:
  4265  004186  0E00               	movlw	0
  4266  004188                     u6410:
  4267  004188  6E14               	movwf	_tolower$2374^0,c
  4268  00418A  6A15               	clrf	(_tolower$2374+1)^0,c
  4269  00418C  5014               	movf	_tolower$2374^0,w,c
  4270  00418E  1015               	iorwf	(_tolower$2374+1)^0,w,c
  4271  004190  B4D8               	btfsc	status,2,c
  4272  004192  EFCD  F020         	goto	u6421
  4273  004196  EFCF  F020         	goto	u6420
  4274  00419A                     u6421:
  4275  00419A  EFD6  F020         	goto	l1459
  4276  00419E                     u6420:
  4277  00419E  0E20               	movlw	32
  4278  0041A0  100E               	iorwf	tolower@c^0,w,c
  4279  0041A2  6E0E               	movwf	?_tolower^0,c
  4280  0041A4  500F               	movf	(tolower@c+1)^0,w,c
  4281  0041A6  6E0F               	movwf	(?_tolower+1)^0,c
  4282  0041A8  EFDA  F020         	goto	l1464
  4283  0041AC                     l1459:
  4284  0041AC  C00E  F00E         	movff	tolower@c,?_tolower
  4285  0041B0  C00F  F00F         	movff	tolower@c+1,?_tolower+1
  4286  0041B4                     l1464:
  4287  0041B4  0012               	return		;funcret
  4288  0041B6                     __end_of_tolower:
  4289                           	opt callstack 0
  4290                           
  4291 ;; *************** function _isupper *****************
  4292 ;; Defined at:
  4293 ;;		line 5 in file "C:\Program Files (x86)\Microchip\xc8\v2.10\pic\sources\c99\common\isupper.c"
  4294 ;; Parameters:    Size  Location     Type
  4295 ;;  c               2    7[COMRAM] int 
  4296 ;; Auto vars:     Size  Location     Type
  4297 ;;		None
  4298 ;; Return value:  Size  Location     Type
  4299 ;;                  2    7[COMRAM] int 
  4300 ;; Registers used:
  4301 ;;		wreg, status,2, status,0
  4302 ;; Tracked objects:
  4303 ;;		On entry : 0/0
  4304 ;;		On exit  : 0/0
  4305 ;;		Unchanged: 0/0
  4306 ;; Data sizes:     COMRAM   BANK0   BANK1   BANK2   BANK3   BANK4   BANK5   BANK6   BANK7   BANK8   BANK9  BANK10  BANK1
      +1  BANK12  BANK13  BANK14  BANK15
  4307 ;;      Params:         2       0       0       0       0       0       0       0       0       0       0       0       
      +0       0       0       0       0
  4308 ;;      Locals:         0       0       0       0       0       0       0       0       0       0       0       0       
      +0       0       0       0       0
  4309 ;;      Temps:          4       0       0       0       0       0       0       0       0       0       0       0       
      +0       0       0       0       0
  4310 ;;      Totals:         6       0       0       0       0       0       0       0       0       0       0       0       
      +0       0       0       0       0
  4311 ;;Total ram usage:        6 bytes
  4312 ;; Hardware stack levels used:    1
  4313 ;; Hardware stack levels required when called:    3
  4314 ;; This function calls:
  4315 ;;		Nothing
  4316 ;; This function is called by:
  4317 ;;		_efgtoa
  4318 ;;		_vfpfcnvrt
  4319 ;;		_tolower
  4320 ;; This function uses a non-reentrant model
  4321 ;;
  4322                           
  4323                           	psect	text8
  4324  004500                     __ptext8:
  4325                           	opt callstack 0
  4326  004500                     _isupper:
  4327                           	opt callstack 23
  4328  004500  0EBF               	movlw	191
  4329  004502  6E0A               	movwf	??_isupper^0,c
  4330  004504  0EFF               	movlw	255
  4331  004506  6E0B               	movwf	(??_isupper+1)^0,c
  4332  004508  C008  F00C         	movff	isupper@c,??_isupper+2
  4333  00450C  C009  F00D         	movff	isupper@c+1,??_isupper+3
  4334  004510  500A               	movf	??_isupper^0,w,c
  4335  004512  260C               	addwf	(??_isupper+2)^0,f,c
  4336  004514  500B               	movf	(??_isupper+1)^0,w,c
  4337  004516  220D               	addwfc	(??_isupper+3)^0,f,c
  4338  004518  500D               	movf	(??_isupper+3)^0,w,c
  4339  00451A  E10A               	bnz	u5860
  4340  00451C  0E1A               	movlw	26
  4341  00451E  5C0C               	subwf	(??_isupper+2)^0,w,c
  4342  004520  A0D8               	btfss	status,0,c
  4343  004522  EF95  F022         	goto	u5861
  4344  004526  EF98  F022         	goto	u5860
  4345  00452A                     u5861:
  4346  00452A  0E01               	movlw	1
  4347  00452C  EF99  F022         	goto	u5870
  4348  004530                     u5860:
  4349  004530  0E00               	movlw	0
  4350  004532                     u5870:
  4351  004532  6E08               	movwf	?_isupper^0,c
  4352  004534  6A09               	clrf	(?_isupper+1)^0,c
  4353  004536  0012               	return		;funcret
  4354  004538                     __end_of_isupper:
  4355                           	opt callstack 0
  4356                           
  4357 ;; *************** function _strcpy *****************
  4358 ;; Defined at:
  4359 ;;		line 3 in file "C:\Program Files (x86)\Microchip\xc8\v2.10\pic\sources\c99\common\strcpy.c"
  4360 ;; Parameters:    Size  Location     Type
  4361 ;;  dest            2    7[COMRAM] PTR unsigned char 
  4362 ;;		 -> dbuf(80), 
  4363 ;;  src             2    9[COMRAM] PTR const unsigned char 
  4364 ;;		 -> STR_12(4), STR_11(4), STR_8(4), STR_7(4), 
  4365 ;;		 -> dbuf(80), 
  4366 ;; Auto vars:     Size  Location     Type
  4367 ;;  d               2   15[COMRAM] PTR unsigned char 
  4368 ;;		 -> dbuf(80), 
  4369 ;;  s               2   13[COMRAM] PTR const unsigned char 
  4370 ;;		 -> STR_12(4), STR_11(4), STR_8(4), STR_7(4), 
  4371 ;;		 -> dbuf(80), 
  4372 ;; Return value:  Size  Location     Type
  4373 ;;                  2    7[COMRAM] PTR unsigned char 
  4374 ;; Registers used:
  4375 ;;		wreg, fsr0l, fsr0h, fsr2l, fsr2h, status,2, status,0, tblptrl, tblptrh, tblptru
  4376 ;; Tracked objects:
  4377 ;;		On entry : 0/0
  4378 ;;		On exit  : 0/0
  4379 ;;		Unchanged: 0/0
  4380 ;; Data sizes:     COMRAM   BANK0   BANK1   BANK2   BANK3   BANK4   BANK5   BANK6   BANK7   BANK8   BANK9  BANK10  BANK1
      +1  BANK12  BANK13  BANK14  BANK15
  4381 ;;      Params:         4       0       0       0       0       0       0       0       0       0       0       0       
      +0       0       0       0       0
  4382 ;;      Locals:         4       0       0       0       0       0       0       0       0       0       0       0       
      +0       0       0       0       0
  4383 ;;      Temps:          2       0       0       0       0       0       0       0       0       0       0       0       
      +0       0       0       0       0
  4384 ;;      Totals:        10       0       0       0       0       0       0       0       0       0       0       0       
      +0       0       0       0       0
  4385 ;;Total ram usage:       10 bytes
  4386 ;; Hardware stack levels used:    1
  4387 ;; Hardware stack levels required when called:    3
  4388 ;; This function calls:
  4389 ;;		Nothing
  4390 ;; This function is called by:
  4391 ;;		_efgtoa
  4392 ;; This function uses a non-reentrant model
  4393 ;;
  4394                           
  4395                           	psect	text9
  4396  0041B6                     __ptext9:
  4397                           	opt callstack 0
  4398  0041B6                     _strcpy:
  4399                           	opt callstack 23
  4400  0041B6  C00A  F00E         	movff	strcpy@src,strcpy@s
  4401  0041BA  C00B  F00F         	movff	strcpy@src+1,strcpy@s+1
  4402  0041BE  C008  F010         	movff	strcpy@dest,strcpy@d
  4403  0041C2  C009  F011         	movff	strcpy@dest+1,strcpy@d+1
  4404  0041C6                     l5455:
  4405  0041C6  500E               	movf	strcpy@s^0,w,c
  4406  0041C8  6E0C               	movwf	??_strcpy^0,c
  4407  0041CA  500F               	movf	(strcpy@s+1)^0,w,c
  4408  0041CC  6E0D               	movwf	(??_strcpy+1)^0,c
  4409  0041CE  4A0E               	infsnz	strcpy@s^0,f,c
  4410  0041D0  2A0F               	incf	(strcpy@s+1)^0,f,c
  4411  0041D2  C00C  FFF6         	movff	??_strcpy,tblptrl
  4412  0041D6  C00D  FFF7         	movff	??_strcpy+1,tblptrh
  4413  0041DA  0E00               	movlw	low (__smallconst shr (0+16))
  4414  0041DC  6EF8               	movwf	tblptru,c
  4415  0041DE  C010  FFD9         	movff	strcpy@d,fsr2l
  4416  0041E2  C011  FFDA         	movff	strcpy@d+1,fsr2h
  4417  0041E6  4A10               	infsnz	strcpy@d^0,f,c
  4418  0041E8  2A11               	incf	(strcpy@d+1)^0,f,c
  4419  0041EA  0E0F               	movlw	(high __ramtop+-1)
  4420  0041EC  64F7               	cpfsgt	tblptrh,c
  4421  0041EE  D003               	bra	u6387
  4422  0041F0  0008               	tblrd		*
  4423  0041F2  50F5               	movf	tablat,w,c
  4424  0041F4  D005               	bra	u6380
  4425  0041F6                     u6387:
  4426  0041F6  CFF6 FFE9          	movff	tblptrl,fsr0l
  4427  0041FA  CFF7 FFEA          	movff	tblptrh,fsr0h
  4428  0041FE  50EF               	movf	indf0,w,c
  4429  004200                     u6380:
  4430  004200  6EDF               	movwf	indf2,c
  4431  004202  50DF               	movf	indf2,w,c
  4432  004204  A4D8               	btfss	status,2,c
  4433  004206  EF07  F021         	goto	u6391
  4434  00420A  EF09  F021         	goto	u6390
  4435  00420E                     u6391:
  4436  00420E  EFE3  F020         	goto	l5455
  4437  004212                     u6390:
  4438  004212  0012               	return		;funcret
  4439  004214                     __end_of_strcpy:
  4440                           	opt callstack 0
  4441                           
  4442 ;; *************** function _pad *****************
  4443 ;; Defined at:
  4444 ;;		line 72 in file "C:\Program Files (x86)\Microchip\xc8\v2.10\pic\sources\c99\common\doprnt.c"
  4445 ;; Parameters:    Size  Location     Type
  4446 ;;  fp              2   25[COMRAM] PTR struct _IO_FILE
  4447 ;;		 -> sprintf@f(6), NULL(0), 
  4448 ;;  buf             2   27[COMRAM] PTR unsigned char 
  4449 ;;		 -> dbuf(80), 
  4450 ;;  p               2   29[COMRAM] int 
  4451 ;; Auto vars:     Size  Location     Type
  4452 ;;  w               2   34[COMRAM] int 
  4453 ;;  i               2   32[COMRAM] int 
  4454 ;; Return value:  Size  Location     Type
  4455 ;;                  2   25[COMRAM] int 
  4456 ;; Registers used:
  4457 ;;		wreg, fsr1l, fsr1h, fsr2l, fsr2h, status,2, status,0, cstack
  4458 ;; Tracked objects:
  4459 ;;		On entry : 0/0
  4460 ;;		On exit  : 0/0
  4461 ;;		Unchanged: 0/0
  4462 ;; Data sizes:     COMRAM   BANK0   BANK1   BANK2   BANK3   BANK4   BANK5   BANK6   BANK7   BANK8   BANK9  BANK10  BANK1
      +1  BANK12  BANK13  BANK14  BANK15
  4463 ;;      Params:         6       0       0       0       0       0       0       0       0       0       0       0       
      +0       0       0       0       0
  4464 ;;      Locals:         4       0       0       0       0       0       0       0       0       0       0       0       
      +0       0       0       0       0
  4465 ;;      Temps:          1       0       0       0       0       0       0       0       0       0       0       0       
      +0       0       0       0       0
  4466 ;;      Totals:        11       0       0       0       0       0       0       0       0       0       0       0       
      +0       0       0       0       0
  4467 ;;Total ram usage:       11 bytes
  4468 ;; Hardware stack levels used:    1
  4469 ;; Hardware stack levels required when called:    7
  4470 ;; This function calls:
  4471 ;;		_fputc
  4472 ;;		_fputs
  4473 ;;		_strlen
  4474 ;; This function is called by:
  4475 ;;		_efgtoa
  4476 ;; This function uses a non-reentrant model
  4477 ;;
  4478                           
  4479                           	psect	text10
  4480  003DEA                     __ptext10:
  4481                           	opt callstack 0
  4482  003DEA                     _pad:
  4483                           	opt callstack 19
  4484  003DEA                     
  4485                           ;C:\Program Files (x86)\Microchip\xc8\v2.10\pic\sources\c99\common\doprnt.c: 72: static 
      +                          int pad(FILE *fp, char *buf, int p);C:\Program Files (x86)\Microchip\xc8\v2.10\pic\sourc
      +                          es\c99\common\doprnt.c: 73: {;C:\Program Files (x86)\Microchip\xc8\v2.10\pic\sources\c99
      +                          \common\doprnt.c: 74:     int i, w;;C:\Program Files (x86)\Microchip\xc8\v2.10\pic\sourc
      +                          es\c99\common\doprnt.c: 77:     if (flags & (1 << 0)) {
  4486  003DEA  A050               	btfss	_flags^0,0,c
  4487  003DEC  EFFA  F01E         	goto	u6271
  4488  003DF0  EFFC  F01E         	goto	u6270
  4489  003DF4                     u6271:
  4490  003DF4  EF06  F01F         	goto	l5413
  4491  003DF8                     u6270:
  4492  003DF8                     
  4493                           ;C:\Program Files (x86)\Microchip\xc8\v2.10\pic\sources\c99\common\doprnt.c: 78:        
      +                           fputs((const char *)buf, fp);
  4494  003DF8  C01C  F013         	movff	pad@buf,fputs@s
  4495  003DFC  C01D  F014         	movff	pad@buf+1,fputs@s+1
  4496  003E00  C01A  F015         	movff	pad@fp,fputs@fp
  4497  003E04  C01B  F016         	movff	pad@fp+1,fputs@fp+1
  4498  003E08  ECA8  F021         	call	_fputs	;wreg free
  4499  003E0C                     l5413:
  4500                           
  4501                           ;C:\Program Files (x86)\Microchip\xc8\v2.10\pic\sources\c99\common\doprnt.c: 82:     w =
      +                           (p < 0) ? 0 : p;
  4502  003E0C  BE1F               	btfsc	(pad@p+1)^0,7,c
  4503  003E0E  EF0B  F01F         	goto	u6281
  4504  003E12  EF0D  F01F         	goto	u6280
  4505  003E16                     u6281:
  4506  003E16  EF13  F01F         	goto	l5417
  4507  003E1A                     u6280:
  4508  003E1A  C01E  F023         	movff	pad@p,pad@w
  4509  003E1E  C01F  F024         	movff	pad@p+1,pad@w+1
  4510  003E22  EF17  F01F         	goto	l515
  4511  003E26                     l5417:
  4512  003E26  0E00               	movlw	0
  4513  003E28  6E24               	movwf	(pad@w+1)^0,c
  4514  003E2A  0E00               	movlw	0
  4515  003E2C  6E23               	movwf	pad@w^0,c
  4516  003E2E                     l515:
  4517                           
  4518                           ;C:\Program Files (x86)\Microchip\xc8\v2.10\pic\sources\c99\common\doprnt.c: 83:     i =
      +                           0;
  4519  003E2E  0E00               	movlw	0
  4520  003E30  6E22               	movwf	(pad@i+1)^0,c
  4521  003E32  0E00               	movlw	0
  4522  003E34  6E21               	movwf	pad@i^0,c
  4523                           
  4524                           ;C:\Program Files (x86)\Microchip\xc8\v2.10\pic\sources\c99\common\doprnt.c: 84:     whi
      +                          le (i < w) {
  4525  003E36  EF29  F01F         	goto	l5423
  4526  003E3A                     l5419:
  4527                           
  4528                           ;C:\Program Files (x86)\Microchip\xc8\v2.10\pic\sources\c99\common\doprnt.c: 85:        
      +                           fputc(' ', fp);
  4529  003E3A  0E00               	movlw	0
  4530  003E3C  6E0B               	movwf	(fputc@c+1)^0,c
  4531  003E3E  0E20               	movlw	32
  4532  003E40  6E0A               	movwf	fputc@c^0,c
  4533  003E42  C01A  F00C         	movff	pad@fp,fputc@fp
  4534  003E46  C01B  F00D         	movff	pad@fp+1,fputc@fp+1
  4535  003E4A  EC2E  F01E         	call	_fputc	;wreg free
  4536  003E4E                     
  4537                           ;C:\Program Files (x86)\Microchip\xc8\v2.10\pic\sources\c99\common\doprnt.c: 86:        
      +                           ++i;
  4538  003E4E  4A21               	infsnz	pad@i^0,f,c
  4539  003E50  2A22               	incf	(pad@i+1)^0,f,c
  4540  003E52                     l5423:
  4541                           
  4542                           ;C:\Program Files (x86)\Microchip\xc8\v2.10\pic\sources\c99\common\doprnt.c: 84:     whi
      +                          le (i < w) {
  4543  003E52  5023               	movf	pad@w^0,w,c
  4544  003E54  5C21               	subwf	pad@i^0,w,c
  4545  003E56  5022               	movf	(pad@i+1)^0,w,c
  4546  003E58  0A80               	xorlw	128
  4547  003E5A  6E20               	movwf	??_pad^0,c
  4548  003E5C  5024               	movf	(pad@w+1)^0,w,c
  4549  003E5E  0A80               	xorlw	128
  4550  003E60  5820               	subwfb	??_pad^0,w,c
  4551  003E62  A0D8               	btfss	status,0,c
  4552  003E64  EF36  F01F         	goto	u6291
  4553  003E68  EF38  F01F         	goto	u6290
  4554  003E6C                     u6291:
  4555  003E6C  EF1D  F01F         	goto	l5419
  4556  003E70                     u6290:
  4557  003E70                     
  4558                           ;C:\Program Files (x86)\Microchip\xc8\v2.10\pic\sources\c99\common\doprnt.c: 90:     if 
      +                          (!(flags & (1 << 0))) {
  4559  003E70  B050               	btfsc	_flags^0,0,c
  4560  003E72  EF3D  F01F         	goto	u6301
  4561  003E76  EF3F  F01F         	goto	u6300
  4562  003E7A                     u6301:
  4563  003E7A  EF49  F01F         	goto	l5427
  4564  003E7E                     u6300:
  4565  003E7E                     
  4566                           ;C:\Program Files (x86)\Microchip\xc8\v2.10\pic\sources\c99\common\doprnt.c: 91:        
      +                           fputs((const char *)buf, fp);
  4567  003E7E  C01C  F013         	movff	pad@buf,fputs@s
  4568  003E82  C01D  F014         	movff	pad@buf+1,fputs@s+1
  4569  003E86  C01A  F015         	movff	pad@fp,fputs@fp
  4570  003E8A  C01B  F016         	movff	pad@fp+1,fputs@fp+1
  4571  003E8E  ECA8  F021         	call	_fputs	;wreg free
  4572  003E92                     l5427:
  4573                           
  4574                           ;C:\Program Files (x86)\Microchip\xc8\v2.10\pic\sources\c99\common\doprnt.c: 94:     ret
      +                          urn strlen(buf) + w;
  4575  003E92  C01C  F008         	movff	pad@buf,strlen@s
  4576  003E96  C01D  F009         	movff	pad@buf+1,strlen@s+1
  4577  003E9A  ECD4  F022         	call	_strlen	;wreg free
  4578  003E9E  5023               	movf	pad@w^0,w,c
  4579  003EA0  2408               	addwf	?_strlen^0,w,c
  4580  003EA2  6E1A               	movwf	?_pad^0,c
  4581  003EA4  5024               	movf	(pad@w+1)^0,w,c
  4582  003EA6  2009               	addwfc	(?_strlen+1)^0,w,c
  4583  003EA8  6E1B               	movwf	(?_pad+1)^0,c
  4584  003EAA  0012               	return		;funcret
  4585  003EAC                     __end_of_pad:
  4586                           	opt callstack 0
  4587                           
  4588 ;; *************** function _strlen *****************
  4589 ;; Defined at:
  4590 ;;		line 5 in file "C:\Program Files (x86)\Microchip\xc8\v2.10\pic\sources\c99\common\strlen.c"
  4591 ;; Parameters:    Size  Location     Type
  4592 ;;  s               2    7[COMRAM] PTR const unsigned char 
  4593 ;;		 -> dbuf(80), 
  4594 ;; Auto vars:     Size  Location     Type
  4595 ;;  a               2    9[COMRAM] PTR const unsigned char 
  4596 ;;		 -> dbuf(80), 
  4597 ;; Return value:  Size  Location     Type
  4598 ;;                  2    7[COMRAM] unsigned int 
  4599 ;; Registers used:
  4600 ;;		wreg, fsr2l, fsr2h, status,2, status,0
  4601 ;; Tracked objects:
  4602 ;;		On entry : 0/0
  4603 ;;		On exit  : 0/0
  4604 ;;		Unchanged: 0/0
  4605 ;; Data sizes:     COMRAM   BANK0   BANK1   BANK2   BANK3   BANK4   BANK5   BANK6   BANK7   BANK8   BANK9  BANK10  BANK1
      +1  BANK12  BANK13  BANK14  BANK15
  4606 ;;      Params:         2       0       0       0       0       0       0       0       0       0       0       0       
      +0       0       0       0       0
  4607 ;;      Locals:         2       0       0       0       0       0       0       0       0       0       0       0       
      +0       0       0       0       0
  4608 ;;      Temps:          0       0       0       0       0       0       0       0       0       0       0       0       
      +0       0       0       0       0
  4609 ;;      Totals:         4       0       0       0       0       0       0       0       0       0       0       0       
      +0       0       0       0       0
  4610 ;;Total ram usage:        4 bytes
  4611 ;; Hardware stack levels used:    1
  4612 ;; Hardware stack levels required when called:    3
  4613 ;; This function calls:
  4614 ;;		Nothing
  4615 ;; This function is called by:
  4616 ;;		_pad
  4617 ;; This function uses a non-reentrant model
  4618 ;;
  4619                           
  4620                           	psect	text11
  4621  0045A8                     __ptext11:
  4622                           	opt callstack 0
  4623  0045A8                     _strlen:
  4624                           	opt callstack 22
  4625  0045A8  C008  F00A         	movff	strlen@s,strlen@a
  4626  0045AC  C009  F00B         	movff	strlen@s+1,strlen@a+1
  4627  0045B0  EFDC  F022         	goto	l5197
  4628  0045B4                     l5195:
  4629  0045B4  4A08               	infsnz	strlen@s^0,f,c
  4630  0045B6  2A09               	incf	(strlen@s+1)^0,f,c
  4631  0045B8                     l5197:
  4632  0045B8  C008  FFD9         	movff	strlen@s,fsr2l
  4633  0045BC  C009  FFDA         	movff	strlen@s+1,fsr2h
  4634  0045C0  50DF               	movf	indf2,w,c
  4635  0045C2  A4D8               	btfss	status,2,c
  4636  0045C4  EFE6  F022         	goto	u5851
  4637  0045C8  EFE8  F022         	goto	u5850
  4638  0045CC                     u5851:
  4639  0045CC  EFDA  F022         	goto	l5195
  4640  0045D0                     u5850:
  4641  0045D0  500A               	movf	strlen@a^0,w,c
  4642  0045D2  5C08               	subwf	strlen@s^0,w,c
  4643  0045D4  6E08               	movwf	?_strlen^0,c
  4644  0045D6  500B               	movf	(strlen@a+1)^0,w,c
  4645  0045D8  5809               	subwfb	(strlen@s+1)^0,w,c
  4646  0045DA  6E09               	movwf	(?_strlen+1)^0,c
  4647  0045DC  0012               	return		;funcret
  4648  0045DE                     __end_of_strlen:
  4649                           	opt callstack 0
  4650                           
  4651 ;; *************** function _fputs *****************
  4652 ;; Defined at:
  4653 ;;		line 8 in file "C:\Program Files (x86)\Microchip\xc8\v2.10\pic\sources\c99\common\nf_fputs.c"
  4654 ;; Parameters:    Size  Location     Type
  4655 ;;  s               2   18[COMRAM] PTR const unsigned char 
  4656 ;;		 -> dbuf(80), 
  4657 ;;  fp              2   20[COMRAM] PTR struct _IO_FILE
  4658 ;;		 -> sprintf@f(6), NULL(0), 
  4659 ;; Auto vars:     Size  Location     Type
  4660 ;;  i               2   23[COMRAM] int 
  4661 ;;  c               1   22[COMRAM] unsigned char 
  4662 ;; Return value:  Size  Location     Type
  4663 ;;                  2   18[COMRAM] int 
  4664 ;; Registers used:
  4665 ;;		wreg, fsr1l, fsr1h, fsr2l, fsr2h, status,2, status,0, cstack
  4666 ;; Tracked objects:
  4667 ;;		On entry : 0/0
  4668 ;;		On exit  : 0/0
  4669 ;;		Unchanged: 0/0
  4670 ;; Data sizes:     COMRAM   BANK0   BANK1   BANK2   BANK3   BANK4   BANK5   BANK6   BANK7   BANK8   BANK9  BANK10  BANK1
      +1  BANK12  BANK13  BANK14  BANK15
  4671 ;;      Params:         4       0       0       0       0       0       0       0       0       0       0       0       
      +0       0       0       0       0
  4672 ;;      Locals:         3       0       0       0       0       0       0       0       0       0       0       0       
      +0       0       0       0       0
  4673 ;;      Temps:          0       0       0       0       0       0       0       0       0       0       0       0       
      +0       0       0       0       0
  4674 ;;      Totals:         7       0       0       0       0       0       0       0       0       0       0       0       
      +0       0       0       0       0
  4675 ;;Total ram usage:        7 bytes
  4676 ;; Hardware stack levels used:    1
  4677 ;; Hardware stack levels required when called:    6
  4678 ;; This function calls:
  4679 ;;		_fputc
  4680 ;; This function is called by:
  4681 ;;		_pad
  4682 ;; This function uses a non-reentrant model
  4683 ;;
  4684                           
  4685                           	psect	text12
  4686  004350                     __ptext12:
  4687                           	opt callstack 0
  4688  004350                     _fputs:
  4689                           	opt callstack 19
  4690  004350  0E00               	movlw	0
  4691  004352  6E19               	movwf	(fputs@i+1)^0,c
  4692  004354  0E00               	movlw	0
  4693  004356  6E18               	movwf	fputs@i^0,c
  4694  004358  EFB9  F021         	goto	l5191
  4695  00435C                     l5187:
  4696  00435C  C017  F00A         	movff	fputs@c,fputc@c
  4697  004360  6A0B               	clrf	(fputc@c+1)^0,c
  4698  004362  C015  F00C         	movff	fputs@fp,fputc@fp
  4699  004366  C016  F00D         	movff	fputs@fp+1,fputc@fp+1
  4700  00436A  EC2E  F01E         	call	_fputc	;wreg free
  4701  00436E  4A18               	infsnz	fputs@i^0,f,c
  4702  004370  2A19               	incf	(fputs@i+1)^0,f,c
  4703  004372                     l5191:
  4704  004372  5018               	movf	fputs@i^0,w,c
  4705  004374  2413               	addwf	fputs@s^0,w,c
  4706  004376  6ED9               	movwf	fsr2l,c
  4707  004378  5019               	movf	(fputs@i+1)^0,w,c
  4708  00437A  2014               	addwfc	(fputs@s+1)^0,w,c
  4709  00437C  6EDA               	movwf	fsr2h,c
  4710  00437E  50DF               	movf	indf2,w,c
  4711  004380  6E17               	movwf	fputs@c^0,c
  4712  004382  5017               	movf	fputs@c^0,w,c
  4713  004384  A4D8               	btfss	status,2,c
  4714  004386  EFC7  F021         	goto	u5841
  4715  00438A  EFC9  F021         	goto	u5840
  4716  00438E                     u5841:
  4717  00438E  EFAE  F021         	goto	l5187
  4718  004392                     u5840:
  4719  004392  0012               	return		;funcret
  4720  004394                     __end_of_fputs:
  4721                           	opt callstack 0
  4722                           
  4723 ;; *************** function _fputc *****************
  4724 ;; Defined at:
  4725 ;;		line 8 in file "C:\Program Files (x86)\Microchip\xc8\v2.10\pic\sources\c99\common\nf_fputc.c"
  4726 ;; Parameters:    Size  Location     Type
  4727 ;;  c               2    9[COMRAM] int 
  4728 ;;  fp              2   11[COMRAM] PTR struct _IO_FILE
  4729 ;;		 -> sprintf@f(6), NULL(0), 
  4730 ;; Auto vars:     Size  Location     Type
  4731 ;;		None
  4732 ;; Return value:  Size  Location     Type
  4733 ;;                  2    9[COMRAM] int 
  4734 ;; Registers used:
  4735 ;;		wreg, fsr1l, fsr1h, fsr2l, fsr2h, status,2, status,0, cstack
  4736 ;; Tracked objects:
  4737 ;;		On entry : 0/0
  4738 ;;		On exit  : 0/0
  4739 ;;		Unchanged: 0/0
  4740 ;; Data sizes:     COMRAM   BANK0   BANK1   BANK2   BANK3   BANK4   BANK5   BANK6   BANK7   BANK8   BANK9  BANK10  BANK1
      +1  BANK12  BANK13  BANK14  BANK15
  4741 ;;      Params:         4       0       0       0       0       0       0       0       0       0       0       0       
      +0       0       0       0       0
  4742 ;;      Locals:         0       0       0       0       0       0       0       0       0       0       0       0       
      +0       0       0       0       0
  4743 ;;      Temps:          5       0       0       0       0       0       0       0       0       0       0       0       
      +0       0       0       0       0
  4744 ;;      Totals:         9       0       0       0       0       0       0       0       0       0       0       0       
      +0       0       0       0       0
  4745 ;;Total ram usage:        9 bytes
  4746 ;; Hardware stack levels used:    1
  4747 ;; Hardware stack levels required when called:    5
  4748 ;; This function calls:
  4749 ;;		_putch
  4750 ;; This function is called by:
  4751 ;;		_pad
  4752 ;;		_vfpfcnvrt
  4753 ;;		_fputs
  4754 ;; This function uses a non-reentrant model
  4755 ;;
  4756                           
  4757                           	psect	text13
  4758  003C5C                     __ptext13:
  4759                           	opt callstack 0
  4760  003C5C                     _fputc:
  4761                           	opt callstack 22
  4762  003C5C  500C               	movf	fputc@fp^0,w,c
  4763  003C5E  100D               	iorwf	(fputc@fp+1)^0,w,c
  4764  003C60  B4D8               	btfsc	status,2,c
  4765  003C62  EF35  F01E         	goto	u5801
  4766  003C66  EF37  F01E         	goto	u5800
  4767  003C6A                     u5801:
  4768  003C6A  EF40  F01E         	goto	l5175
  4769  003C6E                     u5800:
  4770  003C6E  500C               	movf	fputc@fp^0,w,c
  4771  003C70  100D               	iorwf	(fputc@fp+1)^0,w,c
  4772  003C72  A4D8               	btfss	status,2,c
  4773  003C74  EF3E  F01E         	goto	u5811
  4774  003C78  EF40  F01E         	goto	u5810
  4775  003C7C                     u5811:
  4776  003C7C  EF45  F01E         	goto	l5177
  4777  003C80                     u5810:
  4778  003C80                     l5175:
  4779  003C80  500A               	movf	fputc@c^0,w,c
  4780  003C82  ECEC  F023         	call	_putch
  4781  003C86  EF92  F01E         	goto	l1411
  4782  003C8A                     l5177:
  4783  003C8A  EE20 F004          	lfsr	2,4
  4784  003C8E  500C               	movf	fputc@fp^0,w,c
  4785  003C90  26D9               	addwf	fsr2l,f,c
  4786  003C92  500D               	movf	(fputc@fp+1)^0,w,c
  4787  003C94  22DA               	addwfc	fsr2h,f,c
  4788  003C96  50DE               	movf	postinc2,w,c
  4789  003C98  10DE               	iorwf	postinc2,w,c
  4790  003C9A  B4D8               	btfsc	status,2,c
  4791  003C9C  EF52  F01E         	goto	u5821
  4792  003CA0  EF54  F01E         	goto	u5820
  4793  003CA4                     u5821:
  4794  003CA4  EF6F  F01E         	goto	l5181
  4795  003CA8                     u5820:
  4796  003CA8  EE20 F004          	lfsr	2,4
  4797  003CAC  500C               	movf	fputc@fp^0,w,c
  4798  003CAE  26D9               	addwf	fsr2l,f,c
  4799  003CB0  500D               	movf	(fputc@fp+1)^0,w,c
  4800  003CB2  22DA               	addwfc	fsr2h,f,c
  4801  003CB4  EE10 F002          	lfsr	1,2
  4802  003CB8  500C               	movf	fputc@fp^0,w,c
  4803  003CBA  26E1               	addwf	fsr1l,f,c
  4804  003CBC  500D               	movf	(fputc@fp+1)^0,w,c
  4805  003CBE  22E2               	addwfc	fsr1h,f,c
  4806  003CC0  50DE               	movf	postinc2,w,c
  4807  003CC2  5CE6               	subwf	postinc1,w,c
  4808  003CC4  50E6               	movf	postinc1,w,c
  4809  003CC6  0A80               	xorlw	128
  4810  003CC8  6E12               	movwf	(??_fputc+4)^0,c
  4811  003CCA  50DE               	movf	postinc2,w,c
  4812  003CCC  0A80               	xorlw	128
  4813  003CCE  5812               	subwfb	(??_fputc+4)^0,w,c
  4814  003CD0  B0D8               	btfsc	status,0,c
  4815  003CD2  EF6D  F01E         	goto	u5831
  4816  003CD6  EF6F  F01E         	goto	u5830
  4817  003CDA                     u5831:
  4818  003CDA  EF92  F01E         	goto	l1411
  4819  003CDE                     u5830:
  4820  003CDE                     l5181:
  4821  003CDE  EE20 F002          	lfsr	2,2
  4822  003CE2  500C               	movf	fputc@fp^0,w,c
  4823  003CE4  26D9               	addwf	fsr2l,f,c
  4824  003CE6  500D               	movf	(fputc@fp+1)^0,w,c
  4825  003CE8  22DA               	addwfc	fsr2h,f,c
  4826  003CEA  CFDE F00E          	movff	postinc2,??_fputc
  4827  003CEE  CFDD F00F          	movff	postdec2,??_fputc+1
  4828  003CF2  C00C  FFD9         	movff	fputc@fp,fsr2l
  4829  003CF6  C00D  FFDA         	movff	fputc@fp+1,fsr2h
  4830  003CFA  CFDE F010          	movff	postinc2,??_fputc+2
  4831  003CFE  CFDD F011          	movff	postdec2,??_fputc+3
  4832  003D02  500E               	movf	??_fputc^0,w,c
  4833  003D04  2410               	addwf	(??_fputc+2)^0,w,c
  4834  003D06  6ED9               	movwf	fsr2l,c
  4835  003D08  500F               	movf	(??_fputc+1)^0,w,c
  4836  003D0A  2011               	addwfc	(??_fputc+3)^0,w,c
  4837  003D0C  6EDA               	movwf	fsr2h,c
  4838  003D0E  C00A  FFDF         	movff	fputc@c,indf2
  4839  003D12  EE20 F002          	lfsr	2,2
  4840  003D16  500C               	movf	fputc@fp^0,w,c
  4841  003D18  26D9               	addwf	fsr2l,f,c
  4842  003D1A  500D               	movf	(fputc@fp+1)^0,w,c
  4843  003D1C  22DA               	addwfc	fsr2h,f,c
  4844  003D1E  2ADE               	incf	postinc2,f,c
  4845  003D20  0E00               	movlw	0
  4846  003D22  22DD               	addwfc	postdec2,f,c
  4847  003D24                     l1411:
  4848  003D24  0012               	return		;funcret
  4849  003D26                     __end_of_fputc:
  4850                           	opt callstack 0
  4851                           
  4852 ;; *************** function _putch *****************
  4853 ;; Defined at:
  4854 ;;		line 146 in file "mcc_generated_files/eusart1.c"
  4855 ;; Parameters:    Size  Location     Type
  4856 ;;  txData          1    wreg     unsigned char 
  4857 ;; Auto vars:     Size  Location     Type
  4858 ;;  txData          1    8[COMRAM] unsigned char 
  4859 ;; Return value:  Size  Location     Type
  4860 ;;                  1    wreg      void 
  4861 ;; Registers used:
  4862 ;;		wreg, status,2, cstack
  4863 ;; Tracked objects:
  4864 ;;		On entry : 0/0
  4865 ;;		On exit  : 0/0
  4866 ;;		Unchanged: 0/0
  4867 ;; Data sizes:     COMRAM   BANK0   BANK1   BANK2   BANK3   BANK4   BANK5   BANK6   BANK7   BANK8   BANK9  BANK10  BANK1
      +1  BANK12  BANK13  BANK14  BANK15
  4868 ;;      Params:         0       0       0       0       0       0       0       0       0       0       0       0       
      +0       0       0       0       0
  4869 ;;      Locals:         1       0       0       0       0       0       0       0       0       0       0       0       
      +0       0       0       0       0
  4870 ;;      Temps:          0       0       0       0       0       0       0       0       0       0       0       0       
      +0       0       0       0       0
  4871 ;;      Totals:         1       0       0       0       0       0       0       0       0       0       0       0       
      +0       0       0       0       0
  4872 ;;Total ram usage:        1 bytes
  4873 ;; Hardware stack levels used:    1
  4874 ;; Hardware stack levels required when called:    4
  4875 ;; This function calls:
  4876 ;;		_EUSART1_Write
  4877 ;; This function is called by:
  4878 ;;		_fputc
  4879 ;; This function uses a non-reentrant model
  4880 ;;
  4881                           
  4882                           	psect	text14
  4883  0047D8                     __ptext14:
  4884                           	opt callstack 0
  4885  0047D8                     _putch:
  4886                           	opt callstack 22
  4887                           
  4888                           ;incstack = 0
  4889                           ;putch@txData stored from wreg
  4890  0047D8  6E09               	movwf	putch@txData^0,c
  4891  0047DA                     
  4892                           ;mcc_generated_files/eusart1.c: 146: void putch(char txData);mcc_generated_files/eusart1
      +                          .c: 147: {;mcc_generated_files/eusart1.c: 148:     EUSART1_Write(txData);
  4893  0047DA  5009               	movf	putch@txData^0,w,c
  4894  0047DC  ECC6  F023         	call	_EUSART1_Write
  4895  0047E0  0012               	return		;funcret
  4896  0047E2                     __end_of_putch:
  4897                           	opt callstack 0
  4898                           
  4899 ;; *************** function _EUSART1_Write *****************
  4900 ;; Defined at:
  4901 ;;		line 132 in file "mcc_generated_files/eusart1.c"
  4902 ;; Parameters:    Size  Location     Type
  4903 ;;  txData          1    wreg     unsigned char 
  4904 ;; Auto vars:     Size  Location     Type
  4905 ;;  txData          1    7[COMRAM] unsigned char 
  4906 ;; Return value:  Size  Location     Type
  4907 ;;                  1    wreg      void 
  4908 ;; Registers used:
  4909 ;;		wreg
  4910 ;; Tracked objects:
  4911 ;;		On entry : 0/0
  4912 ;;		On exit  : 0/0
  4913 ;;		Unchanged: 0/0
  4914 ;; Data sizes:     COMRAM   BANK0   BANK1   BANK2   BANK3   BANK4   BANK5   BANK6   BANK7   BANK8   BANK9  BANK10  BANK1
      +1  BANK12  BANK13  BANK14  BANK15
  4915 ;;      Params:         0       0       0       0       0       0       0       0       0       0       0       0       
      +0       0       0       0       0
  4916 ;;      Locals:         1       0       0       0       0       0       0       0       0       0       0       0       
      +0       0       0       0       0
  4917 ;;      Temps:          0       0       0       0       0       0       0       0       0       0       0       0       
      +0       0       0       0       0
  4918 ;;      Totals:         1       0       0       0       0       0       0       0       0       0       0       0       
      +0       0       0       0       0
  4919 ;;Total ram usage:        1 bytes
  4920 ;; Hardware stack levels used:    1
  4921 ;; Hardware stack levels required when called:    3
  4922 ;; This function calls:
  4923 ;;		Nothing
  4924 ;; This function is called by:
  4925 ;;		_putch
  4926 ;; This function uses a non-reentrant model
  4927 ;;
  4928                           
  4929                           	psect	text15
  4930  00478C                     __ptext15:
  4931                           	opt callstack 0
  4932  00478C                     _EUSART1_Write:
  4933                           	opt callstack 22
  4934                           
  4935                           ;incstack = 0
  4936                           ;EUSART1_Write@txData stored from wreg
  4937  00478C  6E08               	movwf	EUSART1_Write@txData^0,c
  4938  00478E                     l447:
  4939                           
  4940                           ;mcc_generated_files/eusart1.c: 134:     while(0 == PIR1bits.TX1IF)
  4941  00478E  A89E               	btfss	158,4,c	;volatile
  4942  004790  EFCC  F023         	goto	u5791
  4943  004794  EFCE  F023         	goto	u5790
  4944  004798                     u5791:
  4945  004798  EFC7  F023         	goto	l447
  4946  00479C                     u5790:
  4947  00479C                     
  4948                           ;mcc_generated_files/eusart1.c: 138:     TXREG1 = txData;
  4949  00479C  C008  FFAD         	movff	EUSART1_Write@txData,4013	;volatile
  4950  0047A0  0012               	return		;funcret
  4951  0047A2                     __end_of_EUSART1_Write:
  4952                           	opt callstack 0
  4953                           
  4954 ;; *************** function _floorf *****************
  4955 ;; Defined at:
  4956 ;;		line 3 in file "C:\Program Files (x86)\Microchip\xc8\v2.10\pic\sources\c99\common\floorf.c"
  4957 ;; Parameters:    Size  Location     Type
  4958 ;;  x               4   71[COMRAM] float 
  4959 ;; Auto vars:     Size  Location     Type
  4960 ;;  u               4   12[BANK0 ] struct .
  4961 ;;  m               4    6[BANK0 ] unsigned long 
  4962 ;;  e               2   10[BANK0 ] int 
  4963 ;; Return value:  Size  Location     Type
  4964 ;;                  4   71[COMRAM] float 
  4965 ;; Registers used:
  4966 ;;		wreg, status,2, status,0
  4967 ;; Tracked objects:
  4968 ;;		On entry : 0/0
  4969 ;;		On exit  : 0/0
  4970 ;;		Unchanged: 0/0
  4971 ;; Data sizes:     COMRAM   BANK0   BANK1   BANK2   BANK3   BANK4   BANK5   BANK6   BANK7   BANK8   BANK9  BANK10  BANK1
      +1  BANK12  BANK13  BANK14  BANK15
  4972 ;;      Params:         4       0       0       0       0       0       0       0       0       0       0       0       
      +0       0       0       0       0
  4973 ;;      Locals:         0      10       0       0       0       0       0       0       0       0       0       0       
      +0       0       0       0       0
  4974 ;;      Temps:          0       6       0       0       0       0       0       0       0       0       0       0       
      +0       0       0       0       0
  4975 ;;      Totals:         4      16       0       0       0       0       0       0       0       0       0       0       
      +0       0       0       0       0
  4976 ;;Total ram usage:       20 bytes
  4977 ;; Hardware stack levels used:    1
  4978 ;; Hardware stack levels required when called:    3
  4979 ;; This function calls:
  4980 ;;		Nothing
  4981 ;; This function is called by:
  4982 ;;		_efgtoa
  4983 ;; This function uses a non-reentrant model
  4984 ;;
  4985                           
  4986                           	psect	text16
  4987  0031BE                     __ptext16:
  4988                           	opt callstack 0
  4989  0031BE                     _floorf:
  4990                           	opt callstack 23
  4991  0031BE  C100  F06C         	movff	floorf@F524,floorf@u
  4992  0031C2  C101  F06D         	movff	floorf@F524+1,floorf@u+1
  4993  0031C6  C102  F06E         	movff	floorf@F524+2,floorf@u+2
  4994  0031CA  C103  F06F         	movff	floorf@F524+3,floorf@u+3
  4995  0031CE  C048  F06C         	movff	floorf@x,floorf@u
  4996  0031D2  C049  F06D         	movff	floorf@x+1,floorf@u+1
  4997  0031D6  C04A  F06E         	movff	floorf@x+2,floorf@u+2
  4998  0031DA  C04B  F06F         	movff	floorf@x+3,floorf@u+3
  4999  0031DE  0E81               	movlw	129
  5000  0031E0  0100               	movlb	0	; () banked
  5001  0031E2  6F60               	movwf	??_floorf& (0+255),b
  5002  0031E4  0EFF               	movlw	255
  5003  0031E6  6F61               	movwf	(??_floorf+1)& (0+255),b
  5004  0031E8  C06C  F062         	movff	floorf@u,??_floorf+2
  5005  0031EC  C06D  F063         	movff	floorf@u+1,??_floorf+3
  5006  0031F0  C06E  F064         	movff	floorf@u+2,??_floorf+4
  5007  0031F4  C06F  F065         	movff	floorf@u+3,??_floorf+5
  5008  0031F8  0E18               	movlw	24
  5009  0031FA  EF04  F019         	goto	u6430
  5010  0031FE                     u6435:
  5011  0031FE  90D8               	bcf	status,0,c
  5012  003200  3365               	rrcf	(??_floorf+5)& (0+255),f,b
  5013  003202  3364               	rrcf	(??_floorf+4)& (0+255),f,b
  5014  003204  3363               	rrcf	(??_floorf+3)& (0+255),f,b
  5015  003206  3362               	rrcf	(??_floorf+2)& (0+255),f,b
  5016  003208                     u6430:
  5017  003208  2EE8               	decfsz	wreg,f,c
  5018  00320A  EFFF  F018         	goto	u6435
  5019  00320E  5162               	movf	(??_floorf+2)& (0+255),w,b
  5020  003210  2560               	addwf	??_floorf& (0+255),w,b
  5021  003212  6F6A               	movwf	floorf@e& (0+255),b
  5022  003214  0E00               	movlw	0
  5023  003216  2161               	addwfc	(??_floorf+1)& (0+255),w,b
  5024  003218  6F6B               	movwf	(floorf@e+1)& (0+255),b
  5025  00321A  BF6B               	btfsc	(floorf@e+1)& (0+255),7,b
  5026  00321C  EF19  F019         	goto	u6441
  5027  003220  516B               	movf	(floorf@e+1)& (0+255),w,b
  5028  003222  E109               	bnz	u6440
  5029  003224  0E17               	movlw	23
  5030  003226  5D6A               	subwf	floorf@e& (0+255),w,b
  5031  003228  A0D8               	btfss	status,0,c
  5032  00322A  EF19  F019         	goto	u6441
  5033  00322E  EF1B  F019         	goto	u6440
  5034  003232                     u6441:
  5035  003232  EF25  F019         	goto	l5473
  5036  003236                     u6440:
  5037  003236                     l5471:
  5038                           
  5039                           ; BSR set to: 0
  5040  003236  C048  F048         	movff	floorf@x,?_floorf
  5041  00323A  C049  F049         	movff	floorf@x+1,?_floorf+1
  5042  00323E  C04A  F04A         	movff	floorf@x+2,?_floorf+2
  5043  003242  C04B  F04B         	movff	floorf@x+3,?_floorf+3
  5044  003246  EFE9  F019         	goto	l1372
  5045  00324A                     l5473:
  5046                           
  5047                           ; BSR set to: 0
  5048  00324A  BF6B               	btfsc	(floorf@e+1)& (0+255),7,b
  5049  00324C  EF2A  F019         	goto	u6451
  5050  003250  EF2C  F019         	goto	u6450
  5051  003254                     u6451:
  5052  003254  EF9D  F019         	goto	l5483
  5053  003258                     u6450:
  5054  003258                     
  5055                           ; BSR set to: 0
  5056  003258  C06A  F060         	movff	floorf@e,??_floorf
  5057  00325C  0EFF               	movlw	255
  5058  00325E  6F61               	movwf	(??_floorf+1)& (0+255),b
  5059  003260  0EFF               	movlw	255
  5060  003262  6F62               	movwf	(??_floorf+2)& (0+255),b
  5061  003264  0E7F               	movlw	127
  5062  003266  6F63               	movwf	(??_floorf+3)& (0+255),b
  5063  003268  0E00               	movlw	0
  5064  00326A  6F64               	movwf	(??_floorf+4)& (0+255),b
  5065  00326C                     u6465:
  5066  00326C  6760               	tstfsz	??_floorf& (0+255),b
  5067  00326E  EF3B  F019         	goto	u6466
  5068  003272  EF43  F019         	goto	u6467
  5069  003276                     u6466:
  5070  003276  3564               	rlcf	(??_floorf+4)& (0+255),w,b
  5071  003278  3364               	rrcf	(??_floorf+4)& (0+255),f,b
  5072  00327A  3363               	rrcf	(??_floorf+3)& (0+255),f,b
  5073  00327C  3362               	rrcf	(??_floorf+2)& (0+255),f,b
  5074  00327E  3361               	rrcf	(??_floorf+1)& (0+255),f,b
  5075  003280  2F60               	decfsz	??_floorf& (0+255),f,b
  5076  003282  EF36  F019         	goto	u6465
  5077  003286                     u6467:
  5078  003286  C061  F066         	movff	??_floorf+1,floorf@m
  5079  00328A  C062  F067         	movff	??_floorf+2,floorf@m+1
  5080  00328E  C063  F068         	movff	??_floorf+3,floorf@m+2
  5081  003292  C064  F069         	movff	??_floorf+4,floorf@m+3
  5082  003296  0100               	movlb	0	; () banked
  5083  003298  5166               	movf	floorf@m& (0+255),w,b
  5084  00329A  156C               	andwf	floorf@u& (0+255),w,b
  5085  00329C  6F60               	movwf	??_floorf& (0+255),b
  5086  00329E  5167               	movf	(floorf@m+1)& (0+255),w,b
  5087  0032A0  156D               	andwf	(floorf@u+1)& (0+255),w,b
  5088  0032A2  6F61               	movwf	(??_floorf+1)& (0+255),b
  5089  0032A4  5168               	movf	(floorf@m+2)& (0+255),w,b
  5090  0032A6  156E               	andwf	(floorf@u+2)& (0+255),w,b
  5091  0032A8  6F62               	movwf	(??_floorf+2)& (0+255),b
  5092  0032AA  5169               	movf	(floorf@m+3)& (0+255),w,b
  5093  0032AC  156F               	andwf	(floorf@u+3)& (0+255),w,b
  5094  0032AE  6F63               	movwf	(??_floorf+3)& (0+255),b
  5095  0032B0  5160               	movf	??_floorf& (0+255),w,b
  5096  0032B2  1161               	iorwf	(??_floorf+1)& (0+255),w,b
  5097  0032B4  1162               	iorwf	(??_floorf+2)& (0+255),w,b
  5098  0032B6  1163               	iorwf	(??_floorf+3)& (0+255),w,b
  5099  0032B8  A4D8               	btfss	status,2,c
  5100  0032BA  EF61  F019         	goto	u6471
  5101  0032BE  EF63  F019         	goto	u6470
  5102  0032C2                     u6471:
  5103  0032C2  EF65  F019         	goto	l5479
  5104  0032C6                     u6470:
  5105  0032C6  EF1B  F019         	goto	l5471
  5106  0032CA                     l5479:
  5107                           
  5108                           ; BSR set to: 0
  5109  0032CA  C06C  F060         	movff	floorf@u,??_floorf
  5110  0032CE  C06D  F061         	movff	floorf@u+1,??_floorf+1
  5111  0032D2  C06E  F062         	movff	floorf@u+2,??_floorf+2
  5112  0032D6  C06F  F063         	movff	floorf@u+3,??_floorf+3
  5113  0032DA  0E20               	movlw	32
  5114  0032DC  EF75  F019         	goto	u6480
  5115  0032E0                     u6485:
  5116  0032E0  90D8               	bcf	status,0,c
  5117  0032E2  3363               	rrcf	(??_floorf+3)& (0+255),f,b
  5118  0032E4  3362               	rrcf	(??_floorf+2)& (0+255),f,b
  5119  0032E6  3361               	rrcf	(??_floorf+1)& (0+255),f,b
  5120  0032E8  3360               	rrcf	??_floorf& (0+255),f,b
  5121  0032EA                     u6480:
  5122  0032EA  2EE8               	decfsz	wreg,f,c
  5123  0032EC  EF70  F019         	goto	u6485
  5124  0032F0  5160               	movf	??_floorf& (0+255),w,b
  5125  0032F2  1161               	iorwf	(??_floorf+1)& (0+255),w,b
  5126  0032F4  1162               	iorwf	(??_floorf+2)& (0+255),w,b
  5127  0032F6  1163               	iorwf	(??_floorf+3)& (0+255),w,b
  5128  0032F8  B4D8               	btfsc	status,2,c
  5129  0032FA  EF81  F019         	goto	u6491
  5130  0032FE  EF83  F019         	goto	u6490
  5131  003302                     u6491:
  5132  003302  EF8B  F019         	goto	l1375
  5133  003306                     u6490:
  5134  003306                     
  5135                           ; BSR set to: 0
  5136  003306  5166               	movf	floorf@m& (0+255),w,b
  5137  003308  276C               	addwf	floorf@u& (0+255),f,b
  5138  00330A  5167               	movf	(floorf@m+1)& (0+255),w,b
  5139  00330C  236D               	addwfc	(floorf@u+1)& (0+255),f,b
  5140  00330E  5168               	movf	(floorf@m+2)& (0+255),w,b
  5141  003310  236E               	addwfc	(floorf@u+2)& (0+255),f,b
  5142  003312  5169               	movf	(floorf@m+3)& (0+255),w,b
  5143  003314  236F               	addwfc	(floorf@u+3)& (0+255),f,b
  5144  003316                     l1375:
  5145                           
  5146                           ; BSR set to: 0
  5147  003316  1D66               	comf	floorf@m& (0+255),w,b
  5148  003318  6F60               	movwf	??_floorf& (0+255),b
  5149  00331A  1D67               	comf	(floorf@m+1)& (0+255),w,b
  5150  00331C  6F61               	movwf	(??_floorf+1)& (0+255),b
  5151  00331E  1D68               	comf	(floorf@m+2)& (0+255),w,b
  5152  003320  6F62               	movwf	(??_floorf+2)& (0+255),b
  5153  003322  1D69               	comf	(floorf@m+3)& (0+255),w,b
  5154  003324  6F63               	movwf	(??_floorf+3)& (0+255),b
  5155  003326  5160               	movf	??_floorf& (0+255),w,b
  5156  003328  176C               	andwf	floorf@u& (0+255),f,b
  5157  00332A  5161               	movf	(??_floorf+1)& (0+255),w,b
  5158  00332C  176D               	andwf	(floorf@u+1)& (0+255),f,b
  5159  00332E  5162               	movf	(??_floorf+2)& (0+255),w,b
  5160  003330  176E               	andwf	(floorf@u+2)& (0+255),f,b
  5161  003332  5163               	movf	(??_floorf+3)& (0+255),w,b
  5162  003334  176F               	andwf	(floorf@u+3)& (0+255),f,b
  5163  003336  EFE1  F019         	goto	l5491
  5164  00333A                     l5483:
  5165                           
  5166                           ; BSR set to: 0
  5167  00333A  C06C  F060         	movff	floorf@u,??_floorf
  5168  00333E  C06D  F061         	movff	floorf@u+1,??_floorf+1
  5169  003342  C06E  F062         	movff	floorf@u+2,??_floorf+2
  5170  003346  C06F  F063         	movff	floorf@u+3,??_floorf+3
  5171  00334A  0E20               	movlw	32
  5172  00334C  EFAD  F019         	goto	u6500
  5173  003350                     u6505:
  5174  003350  90D8               	bcf	status,0,c
  5175  003352  3363               	rrcf	(??_floorf+3)& (0+255),f,b
  5176  003354  3362               	rrcf	(??_floorf+2)& (0+255),f,b
  5177  003356  3361               	rrcf	(??_floorf+1)& (0+255),f,b
  5178  003358  3360               	rrcf	??_floorf& (0+255),f,b
  5179  00335A                     u6500:
  5180  00335A  2EE8               	decfsz	wreg,f,c
  5181  00335C  EFA8  F019         	goto	u6505
  5182  003360  5160               	movf	??_floorf& (0+255),w,b
  5183  003362  1161               	iorwf	(??_floorf+1)& (0+255),w,b
  5184  003364  1162               	iorwf	(??_floorf+2)& (0+255),w,b
  5185  003366  1163               	iorwf	(??_floorf+3)& (0+255),w,b
  5186  003368  A4D8               	btfss	status,2,c
  5187  00336A  EFB9  F019         	goto	u6511
  5188  00336E  EFBB  F019         	goto	u6510
  5189  003372                     u6511:
  5190  003372  EFC5  F019         	goto	l5487
  5191  003376                     u6510:
  5192  003376                     
  5193                           ; BSR set to: 0
  5194  003376  0E00               	movlw	0
  5195  003378  6F6C               	movwf	floorf@u& (0+255),b
  5196  00337A  0E00               	movlw	0
  5197  00337C  6F6D               	movwf	(floorf@u+1)& (0+255),b
  5198  00337E  0E00               	movlw	0
  5199  003380  6F6E               	movwf	(floorf@u+2)& (0+255),b
  5200  003382  0E00               	movlw	0
  5201  003384  6F6F               	movwf	(floorf@u+3)& (0+255),b
  5202  003386  EFE1  F019         	goto	l5491
  5203  00338A                     l5487:
  5204                           
  5205                           ; BSR set to: 0
  5206  00338A  90D8               	bcf	status,0,c
  5207  00338C  356C               	rlcf	floorf@u& (0+255),w,b
  5208  00338E  6F60               	movwf	??_floorf& (0+255),b
  5209  003390  356D               	rlcf	(floorf@u+1)& (0+255),w,b
  5210  003392  6F61               	movwf	(??_floorf+1)& (0+255),b
  5211  003394  356E               	rlcf	(floorf@u+2)& (0+255),w,b
  5212  003396  6F62               	movwf	(??_floorf+2)& (0+255),b
  5213  003398  356F               	rlcf	(floorf@u+3)& (0+255),w,b
  5214  00339A  6F63               	movwf	(??_floorf+3)& (0+255),b
  5215  00339C  5160               	movf	??_floorf& (0+255),w,b
  5216  00339E  1161               	iorwf	(??_floorf+1)& (0+255),w,b
  5217  0033A0  1162               	iorwf	(??_floorf+2)& (0+255),w,b
  5218  0033A2  1163               	iorwf	(??_floorf+3)& (0+255),w,b
  5219  0033A4  B4D8               	btfsc	status,2,c
  5220  0033A6  EFD7  F019         	goto	u6521
  5221  0033AA  EFD9  F019         	goto	u6520
  5222  0033AE                     u6521:
  5223  0033AE  EFE1  F019         	goto	l5491
  5224  0033B2                     u6520:
  5225  0033B2                     
  5226                           ; BSR set to: 0
  5227  0033B2  0E00               	movlw	0
  5228  0033B4  6F6C               	movwf	floorf@u& (0+255),b
  5229  0033B6  0E00               	movlw	0
  5230  0033B8  6F6D               	movwf	(floorf@u+1)& (0+255),b
  5231  0033BA  0E80               	movlw	128
  5232  0033BC  6F6E               	movwf	(floorf@u+2)& (0+255),b
  5233  0033BE  0EBF               	movlw	191
  5234  0033C0  6F6F               	movwf	(floorf@u+3)& (0+255),b
  5235  0033C2                     l5491:
  5236                           
  5237                           ; BSR set to: 0
  5238  0033C2  C06C  F048         	movff	floorf@u,?_floorf
  5239  0033C6  C06D  F049         	movff	floorf@u+1,?_floorf+1
  5240  0033CA  C06E  F04A         	movff	floorf@u+2,?_floorf+2
  5241  0033CE  C06F  F04B         	movff	floorf@u+3,?_floorf+3
  5242  0033D2                     l1372:
  5243                           
  5244                           ; BSR set to: 0
  5245  0033D2  0012               	return		;funcret
  5246  0033D4                     __end_of_floorf:
  5247                           	opt callstack 0
  5248                           
  5249 ;; *************** function ___fpclassifyf *****************
  5250 ;; Defined at:
  5251 ;;		line 4 in file "C:\Program Files (x86)\Microchip\xc8\v2.10\pic\sources\c99\common\__fpclassifyf.c"
  5252 ;; Parameters:    Size  Location     Type
  5253 ;;  x               4    7[COMRAM] float 
  5254 ;; Auto vars:     Size  Location     Type
  5255 ;;  u               4   17[COMRAM] struct .
  5256 ;;  e               2   15[COMRAM] int 
  5257 ;; Return value:  Size  Location     Type
  5258 ;;                  2    7[COMRAM] int 
  5259 ;; Registers used:
  5260 ;;		wreg, status,2, status,0
  5261 ;; Tracked objects:
  5262 ;;		On entry : 0/0
  5263 ;;		On exit  : 0/0
  5264 ;;		Unchanged: 0/0
  5265 ;; Data sizes:     COMRAM   BANK0   BANK1   BANK2   BANK3   BANK4   BANK5   BANK6   BANK7   BANK8   BANK9  BANK10  BANK1
      +1  BANK12  BANK13  BANK14  BANK15
  5266 ;;      Params:         4       0       0       0       0       0       0       0       0       0       0       0       
      +0       0       0       0       0
  5267 ;;      Locals:         6       0       0       0       0       0       0       0       0       0       0       0       
      +0       0       0       0       0
  5268 ;;      Temps:          4       0       0       0       0       0       0       0       0       0       0       0       
      +0       0       0       0       0
  5269 ;;      Totals:        14       0       0       0       0       0       0       0       0       0       0       0       
      +0       0       0       0       0
  5270 ;;Total ram usage:       14 bytes
  5271 ;; Hardware stack levels used:    1
  5272 ;; Hardware stack levels required when called:    3
  5273 ;; This function calls:
  5274 ;;		Nothing
  5275 ;; This function is called by:
  5276 ;;		_efgtoa
  5277 ;; This function uses a non-reentrant model
  5278 ;;
  5279                           
  5280                           	psect	text17
  5281  003A82                     __ptext17:
  5282                           	opt callstack 0
  5283  003A82                     ___fpclassifyf:
  5284                           	opt callstack 23
  5285  003A82  C0E3  F012         	movff	___fpclassifyf@F463,___fpclassifyf@u
  5286  003A86  C0E4  F013         	movff	___fpclassifyf@F463+1,___fpclassifyf@u+1
  5287  003A8A  C0E5  F014         	movff	___fpclassifyf@F463+2,___fpclassifyf@u+2
  5288  003A8E  C0E6  F015         	movff	___fpclassifyf@F463+3,___fpclassifyf@u+3
  5289  003A92  C008  F012         	movff	___fpclassifyf@x,___fpclassifyf@u
  5290  003A96  C009  F013         	movff	___fpclassifyf@x+1,___fpclassifyf@u+1
  5291  003A9A  C00A  F014         	movff	___fpclassifyf@x+2,___fpclassifyf@u+2
  5292  003A9E  C00B  F015         	movff	___fpclassifyf@x+3,___fpclassifyf@u+3
  5293  003AA2  C012  F00C         	movff	___fpclassifyf@u,??___fpclassifyf
  5294  003AA6  C013  F00D         	movff	___fpclassifyf@u+1,??___fpclassifyf+1
  5295  003AAA  C014  F00E         	movff	___fpclassifyf@u+2,??___fpclassifyf+2
  5296  003AAE  C015  F00F         	movff	___fpclassifyf@u+3,??___fpclassifyf+3
  5297  003AB2  0E18               	movlw	24
  5298  003AB4  EF61  F01D         	goto	u6310
  5299  003AB8                     u6315:
  5300  003AB8  90D8               	bcf	status,0,c
  5301  003ABA  320F               	rrcf	(??___fpclassifyf+3)^0,f,c
  5302  003ABC  320E               	rrcf	(??___fpclassifyf+2)^0,f,c
  5303  003ABE  320D               	rrcf	(??___fpclassifyf+1)^0,f,c
  5304  003AC0  320C               	rrcf	??___fpclassifyf^0,f,c
  5305  003AC2                     u6310:
  5306  003AC2  2EE8               	decfsz	wreg,f,c
  5307  003AC4  EF5C  F01D         	goto	u6315
  5308  003AC8  500C               	movf	??___fpclassifyf^0,w,c
  5309  003ACA  6E10               	movwf	___fpclassifyf@e^0,c
  5310  003ACC  6A11               	clrf	(___fpclassifyf@e+1)^0,c
  5311  003ACE  5010               	movf	___fpclassifyf@e^0,w,c
  5312  003AD0  1011               	iorwf	(___fpclassifyf@e+1)^0,w,c
  5313  003AD2  A4D8               	btfss	status,2,c
  5314  003AD4  EF6E  F01D         	goto	u6321
  5315  003AD8  EF70  F01D         	goto	u6320
  5316  003ADC                     u6321:
  5317  003ADC  EF90  F01D         	goto	l5443
  5318  003AE0                     u6320:
  5319  003AE0  90D8               	bcf	status,0,c
  5320  003AE2  3412               	rlcf	___fpclassifyf@u^0,w,c
  5321  003AE4  6E0C               	movwf	??___fpclassifyf^0,c
  5322  003AE6  3413               	rlcf	(___fpclassifyf@u+1)^0,w,c
  5323  003AE8  6E0D               	movwf	(??___fpclassifyf+1)^0,c
  5324  003AEA  3414               	rlcf	(___fpclassifyf@u+2)^0,w,c
  5325  003AEC  6E0E               	movwf	(??___fpclassifyf+2)^0,c
  5326  003AEE  3415               	rlcf	(___fpclassifyf@u+3)^0,w,c
  5327  003AF0  6E0F               	movwf	(??___fpclassifyf+3)^0,c
  5328  003AF2  500C               	movf	??___fpclassifyf^0,w,c
  5329  003AF4  100D               	iorwf	(??___fpclassifyf+1)^0,w,c
  5330  003AF6  100E               	iorwf	(??___fpclassifyf+2)^0,w,c
  5331  003AF8  100F               	iorwf	(??___fpclassifyf+3)^0,w,c
  5332  003AFA  A4D8               	btfss	status,2,c
  5333  003AFC  EF82  F01D         	goto	u6331
  5334  003B00  EF84  F01D         	goto	u6330
  5335  003B04                     u6331:
  5336  003B04  EF8A  F01D         	goto	l5439
  5337  003B08                     u6330:
  5338  003B08  0E00               	movlw	0
  5339  003B0A  6E09               	movwf	(?___fpclassifyf+1)^0,c
  5340  003B0C  0E02               	movlw	2
  5341  003B0E  6E08               	movwf	?___fpclassifyf^0,c
  5342  003B10  EFBF  F01D         	goto	l1334
  5343  003B14                     l5439:
  5344  003B14  0E00               	movlw	0
  5345  003B16  6E09               	movwf	(?___fpclassifyf+1)^0,c
  5346  003B18  0E03               	movlw	3
  5347  003B1A  6E08               	movwf	?___fpclassifyf^0,c
  5348  003B1C  EFBF  F01D         	goto	l1334
  5349  003B20                     l5443:
  5350  003B20  2810               	incf	___fpclassifyf@e^0,w,c
  5351  003B22  1011               	iorwf	(___fpclassifyf@e+1)^0,w,c
  5352  003B24  A4D8               	btfss	status,2,c
  5353  003B26  EF97  F01D         	goto	u6341
  5354  003B2A  EF99  F01D         	goto	u6340
  5355  003B2E                     u6341:
  5356  003B2E  EFBB  F01D         	goto	l5449
  5357  003B32                     u6340:
  5358  003B32  C012  F00C         	movff	___fpclassifyf@u,??___fpclassifyf
  5359  003B36  C013  F00D         	movff	___fpclassifyf@u+1,??___fpclassifyf+1
  5360  003B3A  C014  F00E         	movff	___fpclassifyf@u+2,??___fpclassifyf+2
  5361  003B3E  C015  F00F         	movff	___fpclassifyf@u+3,??___fpclassifyf+3
  5362  003B42  0E09               	movlw	9
  5363  003B44                     u6355:
  5364  003B44  90D8               	bcf	status,0,c
  5365  003B46  360C               	rlcf	??___fpclassifyf^0,f,c
  5366  003B48  360D               	rlcf	(??___fpclassifyf+1)^0,f,c
  5367  003B4A  360E               	rlcf	(??___fpclassifyf+2)^0,f,c
  5368  003B4C  360F               	rlcf	(??___fpclassifyf+3)^0,f,c
  5369  003B4E  2EE8               	decfsz	wreg,f,c
  5370  003B50  EFA2  F01D         	goto	u6355
  5371  003B54  500C               	movf	??___fpclassifyf^0,w,c
  5372  003B56  100D               	iorwf	(??___fpclassifyf+1)^0,w,c
  5373  003B58  100E               	iorwf	(??___fpclassifyf+2)^0,w,c
  5374  003B5A  100F               	iorwf	(??___fpclassifyf+3)^0,w,c
  5375  003B5C  B4D8               	btfsc	status,2,c
  5376  003B5E  EFB3  F01D         	goto	u6361
  5377  003B62  EFB6  F01D         	goto	u6360
  5378  003B66                     u6361:
  5379  003B66  0E01               	movlw	1
  5380  003B68  EFB7  F01D         	goto	u6370
  5381  003B6C                     u6360:
  5382  003B6C  0E00               	movlw	0
  5383  003B6E                     u6370:
  5384  003B6E  6E08               	movwf	?___fpclassifyf^0,c
  5385  003B70  6A09               	clrf	(?___fpclassifyf+1)^0,c
  5386  003B72  EFBF  F01D         	goto	l1334
  5387  003B76                     l5449:
  5388  003B76  0E00               	movlw	0
  5389  003B78  6E09               	movwf	(?___fpclassifyf+1)^0,c
  5390  003B7A  0E04               	movlw	4
  5391  003B7C  6E08               	movwf	?___fpclassifyf^0,c
  5392  003B7E                     l1334:
  5393  003B7E  0012               	return		;funcret
  5394  003B80                     __end_of___fpclassifyf:
  5395                           	opt callstack 0
  5396                           
  5397 ;; *************** function ___fltol *****************
  5398 ;; Defined at:
  5399 ;;		line 43 in file "C:\Program Files (x86)\Microchip\xc8\v2.10\pic\sources\c99\common\fltol.c"
  5400 ;; Parameters:    Size  Location     Type
  5401 ;;  f1              4    7[COMRAM] int 
  5402 ;; Auto vars:     Size  Location     Type
  5403 ;;  exp1            1   16[COMRAM] unsigned char 
  5404 ;;  sign1           1   15[COMRAM] unsigned char 
  5405 ;; Return value:  Size  Location     Type
  5406 ;;                  4    7[COMRAM] long 
  5407 ;; Registers used:
  5408 ;;		wreg, status,2, status,0
  5409 ;; Tracked objects:
  5410 ;;		On entry : 0/0
  5411 ;;		On exit  : 0/0
  5412 ;;		Unchanged: 0/0
  5413 ;; Data sizes:     COMRAM   BANK0   BANK1   BANK2   BANK3   BANK4   BANK5   BANK6   BANK7   BANK8   BANK9  BANK10  BANK1
      +1  BANK12  BANK13  BANK14  BANK15
  5414 ;;      Params:         4       0       0       0       0       0       0       0       0       0       0       0       
      +0       0       0       0       0
  5415 ;;      Locals:         2       0       0       0       0       0       0       0       0       0       0       0       
      +0       0       0       0       0
  5416 ;;      Temps:          4       0       0       0       0       0       0       0       0       0       0       0       
      +0       0       0       0       0
  5417 ;;      Totals:        10       0       0       0       0       0       0       0       0       0       0       0       
      +0       0       0       0       0
  5418 ;;Total ram usage:       10 bytes
  5419 ;; Hardware stack levels used:    1
  5420 ;; Hardware stack levels required when called:    3
  5421 ;; This function calls:
  5422 ;;		Nothing
  5423 ;; This function is called by:
  5424 ;;		_efgtoa
  5425 ;; This function uses a non-reentrant model
  5426 ;;
  5427                           
  5428                           	psect	text18
  5429  003878                     __ptext18:
  5430                           	opt callstack 0
  5431  003878                     ___fltol:
  5432                           	opt callstack 23
  5433  003878  340A               	rlcf	(___fltol@f1+2)^0,w,c
  5434  00387A  340B               	rlcf	(___fltol@f1+3)^0,w,c
  5435  00387C  6E11               	movwf	___fltol@exp1^0,c
  5436  00387E  5011               	movf	___fltol@exp1^0,w,c
  5437  003880  A4D8               	btfss	status,2,c
  5438  003882  EF45  F01C         	goto	u7181
  5439  003886  EF47  F01C         	goto	u7180
  5440  00388A                     u7181:
  5441  00388A  EF51  F01C         	goto	l5911
  5442  00388E                     u7180:
  5443  00388E                     l5907:
  5444  00388E  0E00               	movlw	0
  5445  003890  6E08               	movwf	?___fltol^0,c
  5446  003892  0E00               	movlw	0
  5447  003894  6E09               	movwf	(?___fltol+1)^0,c
  5448  003896  0E00               	movlw	0
  5449  003898  6E0A               	movwf	(?___fltol+2)^0,c
  5450  00389A  0E00               	movlw	0
  5451  00389C  6E0B               	movwf	(?___fltol+3)^0,c
  5452  00389E  EFBE  F01C         	goto	l950
  5453  0038A2                     l5911:
  5454  0038A2  C008  F00C         	movff	___fltol@f1,??___fltol
  5455  0038A6  C009  F00D         	movff	___fltol@f1+1,??___fltol+1
  5456  0038AA  C00A  F00E         	movff	___fltol@f1+2,??___fltol+2
  5457  0038AE  C00B  F00F         	movff	___fltol@f1+3,??___fltol+3
  5458  0038B2  0E20               	movlw	32
  5459  0038B4  EF61  F01C         	goto	u7190
  5460  0038B8                     u7195:
  5461  0038B8  90D8               	bcf	status,0,c
  5462  0038BA  320F               	rrcf	(??___fltol+3)^0,f,c
  5463  0038BC  320E               	rrcf	(??___fltol+2)^0,f,c
  5464  0038BE  320D               	rrcf	(??___fltol+1)^0,f,c
  5465  0038C0  320C               	rrcf	??___fltol^0,f,c
  5466  0038C2                     u7190:
  5467  0038C2  2EE8               	decfsz	wreg,f,c
  5468  0038C4  EF5C  F01C         	goto	u7195
  5469  0038C8  500C               	movf	??___fltol^0,w,c
  5470  0038CA  6E10               	movwf	___fltol@sign1^0,c
  5471  0038CC  8E0A               	bsf	(___fltol@f1+2)^0,7,c
  5472  0038CE  0EFF               	movlw	255
  5473  0038D0  1608               	andwf	___fltol@f1^0,f,c
  5474  0038D2  0EFF               	movlw	255
  5475  0038D4  1609               	andwf	(___fltol@f1+1)^0,f,c
  5476  0038D6  0EFF               	movlw	255
  5477  0038D8  160A               	andwf	(___fltol@f1+2)^0,f,c
  5478  0038DA  0E00               	movlw	0
  5479  0038DC  160B               	andwf	(___fltol@f1+3)^0,f,c
  5480  0038DE  0E96               	movlw	150
  5481  0038E0  5E11               	subwf	___fltol@exp1^0,f,c
  5482  0038E2  BE11               	btfsc	___fltol@exp1^0,7,c
  5483  0038E4  EF78  F01C         	goto	u7200
  5484  0038E8  EF76  F01C         	goto	u7201
  5485  0038EC                     u7201:
  5486  0038EC  EF8E  F01C         	goto	l5931
  5487  0038F0                     u7200:
  5488  0038F0  5011               	movf	___fltol@exp1^0,w,c
  5489  0038F2  0A80               	xorlw	128
  5490  0038F4  0F97               	addlw	151
  5491  0038F6  B0D8               	btfsc	status,0,c
  5492  0038F8  EF80  F01C         	goto	u7211
  5493  0038FC  EF82  F01C         	goto	u7210
  5494  003900                     u7211:
  5495  003900  EF84  F01C         	goto	l5927
  5496  003904                     u7210:
  5497  003904  EF47  F01C         	goto	l5907
  5498  003908                     l5927:
  5499  003908  90D8               	bcf	status,0,c
  5500  00390A  320B               	rrcf	(___fltol@f1+3)^0,f,c
  5501  00390C  320A               	rrcf	(___fltol@f1+2)^0,f,c
  5502  00390E  3209               	rrcf	(___fltol@f1+1)^0,f,c
  5503  003910  3208               	rrcf	___fltol@f1^0,f,c
  5504  003912  3E11               	incfsz	___fltol@exp1^0,f,c
  5505  003914  EF84  F01C         	goto	l5927
  5506  003918  EFA6  F01C         	goto	l5941
  5507  00391C                     l5931:
  5508  00391C  0E1F               	movlw	31
  5509  00391E  6411               	cpfsgt	___fltol@exp1^0,c
  5510  003920  EF94  F01C         	goto	u7221
  5511  003924  EF96  F01C         	goto	u7220
  5512  003928                     u7221:
  5513  003928  EF9E  F01C         	goto	l5939
  5514  00392C                     u7220:
  5515  00392C  EF47  F01C         	goto	l5907
  5516  003930                     l5937:
  5517  003930  90D8               	bcf	status,0,c
  5518  003932  3608               	rlcf	___fltol@f1^0,f,c
  5519  003934  3609               	rlcf	(___fltol@f1+1)^0,f,c
  5520  003936  360A               	rlcf	(___fltol@f1+2)^0,f,c
  5521  003938  360B               	rlcf	(___fltol@f1+3)^0,f,c
  5522  00393A  0611               	decf	___fltol@exp1^0,f,c
  5523  00393C                     l5939:
  5524  00393C  5011               	movf	___fltol@exp1^0,w,c
  5525  00393E  A4D8               	btfss	status,2,c
  5526  003940  EFA4  F01C         	goto	u7231
  5527  003944  EFA6  F01C         	goto	u7230
  5528  003948                     u7231:
  5529  003948  EF98  F01C         	goto	l5937
  5530  00394C                     u7230:
  5531  00394C                     l5941:
  5532  00394C  5010               	movf	___fltol@sign1^0,w,c
  5533  00394E  B4D8               	btfsc	status,2,c
  5534  003950  EFAC  F01C         	goto	u7241
  5535  003954  EFAE  F01C         	goto	u7240
  5536  003958                     u7241:
  5537  003958  EFB6  F01C         	goto	l5945
  5538  00395C                     u7240:
  5539  00395C  1E0B               	comf	(___fltol@f1+3)^0,f,c
  5540  00395E  1E0A               	comf	(___fltol@f1+2)^0,f,c
  5541  003960  1E09               	comf	(___fltol@f1+1)^0,f,c
  5542  003962  6C08               	negf	___fltol@f1^0,c
  5543  003964  0E00               	movlw	0
  5544  003966  2209               	addwfc	(___fltol@f1+1)^0,f,c
  5545  003968  220A               	addwfc	(___fltol@f1+2)^0,f,c
  5546  00396A  220B               	addwfc	(___fltol@f1+3)^0,f,c
  5547  00396C                     l5945:
  5548  00396C  C008  F008         	movff	___fltol@f1,?___fltol
  5549  003970  C009  F009         	movff	___fltol@f1+1,?___fltol+1
  5550  003974  C00A  F00A         	movff	___fltol@f1+2,?___fltol+2
  5551  003978  C00B  F00B         	movff	___fltol@f1+3,?___fltol+3
  5552  00397C                     l950:
  5553  00397C  0012               	return		;funcret
  5554  00397E                     __end_of___fltol:
  5555                           	opt callstack 0
  5556                           
  5557 ;; *************** function ___flsub *****************
  5558 ;; Defined at:
  5559 ;;		line 245 in file "C:\Program Files (x86)\Microchip\xc8\v2.10\pic\sources\c99\common\sprcadd.c"
  5560 ;; Parameters:    Size  Location     Type
  5561 ;;  b               4   46[COMRAM] long 
  5562 ;;  a               4   50[COMRAM] long 
  5563 ;; Auto vars:     Size  Location     Type
  5564 ;;		None
  5565 ;; Return value:  Size  Location     Type
  5566 ;;                  4   46[COMRAM] long 
  5567 ;; Registers used:
  5568 ;;		wreg, status,2, status,0, cstack
  5569 ;; Tracked objects:
  5570 ;;		On entry : 0/0
  5571 ;;		On exit  : 0/0
  5572 ;;		Unchanged: 0/0
  5573 ;; Data sizes:     COMRAM   BANK0   BANK1   BANK2   BANK3   BANK4   BANK5   BANK6   BANK7   BANK8   BANK9  BANK10  BANK1
      +1  BANK12  BANK13  BANK14  BANK15
  5574 ;;      Params:         8       0       0       0       0       0       0       0       0       0       0       0       
      +0       0       0       0       0
  5575 ;;      Locals:         0       0       0       0       0       0       0       0       0       0       0       0       
      +0       0       0       0       0
  5576 ;;      Temps:          0       0       0       0       0       0       0       0       0       0       0       0       
      +0       0       0       0       0
  5577 ;;      Totals:         8       0       0       0       0       0       0       0       0       0       0       0       
      +0       0       0       0       0
  5578 ;;Total ram usage:        8 bytes
  5579 ;; Hardware stack levels used:    1
  5580 ;; Hardware stack levels required when called:    4
  5581 ;; This function calls:
  5582 ;;		___fladd
  5583 ;; This function is called by:
  5584 ;;		_efgtoa
  5585 ;; This function uses a non-reentrant model
  5586 ;;
  5587                           
  5588                           	psect	text19
  5589  00430A                     __ptext19:
  5590                           	opt callstack 0
  5591  00430A                     ___flsub:
  5592                           	opt callstack 22
  5593  00430A  0E00               	movlw	0
  5594  00430C  1A33               	xorwf	___flsub@a^0,f,c
  5595  00430E  0E00               	movlw	0
  5596  004310  1A34               	xorwf	(___flsub@a+1)^0,f,c
  5597  004312  0E00               	movlw	0
  5598  004314  1A35               	xorwf	(___flsub@a+2)^0,f,c
  5599  004316  0E80               	movlw	128
  5600  004318  1A36               	xorwf	(___flsub@a+3)^0,f,c
  5601  00431A  C02F  F008         	movff	___flsub@b,___fladd@b
  5602  00431E  C030  F009         	movff	___flsub@b+1,___fladd@b+1
  5603  004322  C031  F00A         	movff	___flsub@b+2,___fladd@b+2
  5604  004326  C032  F00B         	movff	___flsub@b+3,___fladd@b+3
  5605  00432A  C033  F00C         	movff	___flsub@a,___fladd@a
  5606  00432E  C034  F00D         	movff	___flsub@a+1,___fladd@a+1
  5607  004332  C035  F00E         	movff	___flsub@a+2,___fladd@a+2
  5608  004336  C036  F00F         	movff	___flsub@a+3,___fladd@a+3
  5609  00433A  EC0E  F011         	call	___fladd	;wreg free
  5610  00433E  C008  F02F         	movff	?___fladd,?___flsub
  5611  004342  C009  F030         	movff	?___fladd+1,?___flsub+1
  5612  004346  C00A  F031         	movff	?___fladd+2,?___flsub+2
  5613  00434A  C00B  F032         	movff	?___fladd+3,?___flsub+3
  5614  00434E  0012               	return		;funcret
  5615  004350                     __end_of___flsub:
  5616                           	opt callstack 0
  5617                           
  5618 ;; *************** function ___fladd *****************
  5619 ;; Defined at:
  5620 ;;		line 10 in file "C:\Program Files (x86)\Microchip\xc8\v2.10\pic\sources\c99\common\sprcadd.c"
  5621 ;; Parameters:    Size  Location     Type
  5622 ;;  b               4    7[COMRAM] long 
  5623 ;;  a               4   11[COMRAM] long 
  5624 ;; Auto vars:     Size  Location     Type
  5625 ;;  grs             1   22[COMRAM] unsigned char 
  5626 ;;  bexp            1   21[COMRAM] unsigned char 
  5627 ;;  aexp            1   20[COMRAM] unsigned char 
  5628 ;;  signs           1   19[COMRAM] unsigned char 
  5629 ;; Return value:  Size  Location     Type
  5630 ;;                  4    7[COMRAM] unsigned char 
  5631 ;; Registers used:
  5632 ;;		wreg, status,2, status,0
  5633 ;; Tracked objects:
  5634 ;;		On entry : 0/0
  5635 ;;		On exit  : 0/0
  5636 ;;		Unchanged: 0/0
  5637 ;; Data sizes:     COMRAM   BANK0   BANK1   BANK2   BANK3   BANK4   BANK5   BANK6   BANK7   BANK8   BANK9  BANK10  BANK1
      +1  BANK12  BANK13  BANK14  BANK15
  5638 ;;      Params:         8       0       0       0       0       0       0       0       0       0       0       0       
      +0       0       0       0       0
  5639 ;;      Locals:         4       0       0       0       0       0       0       0       0       0       0       0       
      +0       0       0       0       0
  5640 ;;      Temps:          4       0       0       0       0       0       0       0       0       0       0       0       
      +0       0       0       0       0
  5641 ;;      Totals:        16       0       0       0       0       0       0       0       0       0       0       0       
      +0       0       0       0       0
  5642 ;;Total ram usage:       16 bytes
  5643 ;; Hardware stack levels used:    1
  5644 ;; Hardware stack levels required when called:    3
  5645 ;; This function calls:
  5646 ;;		Nothing
  5647 ;; This function is called by:
  5648 ;;		_efgtoa
  5649 ;;		___flsub
  5650 ;; This function uses a non-reentrant model
  5651 ;;
  5652                           
  5653                           	psect	text20
  5654  00221C                     __ptext20:
  5655                           	opt callstack 0
  5656  00221C                     ___fladd:
  5657                           	opt callstack 22
  5658  00221C  500B               	movf	(___fladd@b+3)^0,w,c
  5659  00221E  0B80               	andlw	128
  5660  002220  6E14               	movwf	___fladd@signs^0,c
  5661  002222  500B               	movf	(___fladd@b+3)^0,w,c
  5662  002224  240B               	addwf	(___fladd@b+3)^0,w,c
  5663  002226  6E16               	movwf	___fladd@bexp^0,c
  5664  002228  AE0A               	btfss	(___fladd@b+2)^0,7,c
  5665  00222A  EF19  F011         	goto	u5881
  5666  00222E  EF1B  F011         	goto	u5880
  5667  002232                     u5881:
  5668  002232  EF1C  F011         	goto	l5213
  5669  002236                     u5880:
  5670  002236  8016               	bsf	___fladd@bexp^0,0,c
  5671  002238                     l5213:
  5672  002238  5016               	movf	___fladd@bexp^0,w,c
  5673  00223A  B4D8               	btfsc	status,2,c
  5674  00223C  EF22  F011         	goto	u5891
  5675  002240  EF24  F011         	goto	u5890
  5676  002244                     u5891:
  5677  002244  EF39  F011         	goto	l5223
  5678  002248                     u5890:
  5679  002248  2816               	incf	___fladd@bexp^0,w,c
  5680  00224A  A4D8               	btfss	status,2,c
  5681  00224C  EF2A  F011         	goto	u5901
  5682  002250  EF2C  F011         	goto	u5900
  5683  002254                     u5901:
  5684  002254  EF34  F011         	goto	l5219
  5685  002258                     u5900:
  5686  002258  0E00               	movlw	0
  5687  00225A  6E08               	movwf	___fladd@b^0,c
  5688  00225C  0E00               	movlw	0
  5689  00225E  6E09               	movwf	(___fladd@b+1)^0,c
  5690  002260  0E00               	movlw	0
  5691  002262  6E0A               	movwf	(___fladd@b+2)^0,c
  5692  002264  0E00               	movlw	0
  5693  002266  6E0B               	movwf	(___fladd@b+3)^0,c
  5694  002268                     l5219:
  5695  002268  8E0A               	bsf	(___fladd@b+2)^0,7,c
  5696  00226A  0E00               	movlw	0
  5697  00226C  6E0B               	movwf	(___fladd@b+3)^0,c
  5698  00226E  EF41  F011         	goto	l5225
  5699  002272                     l5223:
  5700  002272  0E00               	movlw	0
  5701  002274  6E08               	movwf	___fladd@b^0,c
  5702  002276  0E00               	movlw	0
  5703  002278  6E09               	movwf	(___fladd@b+1)^0,c
  5704  00227A  0E00               	movlw	0
  5705  00227C  6E0A               	movwf	(___fladd@b+2)^0,c
  5706  00227E  0E00               	movlw	0
  5707  002280  6E0B               	movwf	(___fladd@b+3)^0,c
  5708  002282                     l5225:
  5709  002282  500F               	movf	(___fladd@a+3)^0,w,c
  5710  002284  0B80               	andlw	128
  5711  002286  6E15               	movwf	___fladd@aexp^0,c
  5712  002288  5014               	movf	___fladd@signs^0,w,c
  5713  00228A  1815               	xorwf	___fladd@aexp^0,w,c
  5714  00228C  B4D8               	btfsc	status,2,c
  5715  00228E  EF4B  F011         	goto	u5911
  5716  002292  EF4D  F011         	goto	u5910
  5717  002296                     u5911:
  5718  002296  EF4E  F011         	goto	l5231
  5719  00229A                     u5910:
  5720  00229A  8C14               	bsf	___fladd@signs^0,6,c
  5721  00229C                     l5231:
  5722  00229C  500F               	movf	(___fladd@a+3)^0,w,c
  5723  00229E  240F               	addwf	(___fladd@a+3)^0,w,c
  5724  0022A0  6E15               	movwf	___fladd@aexp^0,c
  5725  0022A2  AE0E               	btfss	(___fladd@a+2)^0,7,c
  5726  0022A4  EF56  F011         	goto	u5921
  5727  0022A8  EF58  F011         	goto	u5920
  5728  0022AC                     u5921:
  5729  0022AC  EF59  F011         	goto	l5237
  5730  0022B0                     u5920:
  5731  0022B0  8015               	bsf	___fladd@aexp^0,0,c
  5732  0022B2                     l5237:
  5733  0022B2  5015               	movf	___fladd@aexp^0,w,c
  5734  0022B4  B4D8               	btfsc	status,2,c
  5735  0022B6  EF5F  F011         	goto	u5931
  5736  0022BA  EF61  F011         	goto	u5930
  5737  0022BE                     u5931:
  5738  0022BE  EF76  F011         	goto	l5247
  5739  0022C2                     u5930:
  5740  0022C2  2815               	incf	___fladd@aexp^0,w,c
  5741  0022C4  A4D8               	btfss	status,2,c
  5742  0022C6  EF67  F011         	goto	u5941
  5743  0022CA  EF69  F011         	goto	u5940
  5744  0022CE                     u5941:
  5745  0022CE  EF71  F011         	goto	l5243
  5746  0022D2                     u5940:
  5747  0022D2  0E00               	movlw	0
  5748  0022D4  6E0C               	movwf	___fladd@a^0,c
  5749  0022D6  0E00               	movlw	0
  5750  0022D8  6E0D               	movwf	(___fladd@a+1)^0,c
  5751  0022DA  0E00               	movlw	0
  5752  0022DC  6E0E               	movwf	(___fladd@a+2)^0,c
  5753  0022DE  0E00               	movlw	0
  5754  0022E0  6E0F               	movwf	(___fladd@a+3)^0,c
  5755  0022E2                     l5243:
  5756  0022E2  8E0E               	bsf	(___fladd@a+2)^0,7,c
  5757  0022E4  0E00               	movlw	0
  5758  0022E6  6E0F               	movwf	(___fladd@a+3)^0,c
  5759  0022E8  EF7E  F011         	goto	l5249
  5760  0022EC                     l5247:
  5761  0022EC  0E00               	movlw	0
  5762  0022EE  6E0C               	movwf	___fladd@a^0,c
  5763  0022F0  0E00               	movlw	0
  5764  0022F2  6E0D               	movwf	(___fladd@a+1)^0,c
  5765  0022F4  0E00               	movlw	0
  5766  0022F6  6E0E               	movwf	(___fladd@a+2)^0,c
  5767  0022F8  0E00               	movlw	0
  5768  0022FA  6E0F               	movwf	(___fladd@a+3)^0,c
  5769  0022FC                     l5249:
  5770  0022FC  5016               	movf	___fladd@bexp^0,w,c
  5771  0022FE  5C15               	subwf	___fladd@aexp^0,w,c
  5772  002300  B0D8               	btfsc	status,0,c
  5773  002302  EF85  F011         	goto	u5951
  5774  002306  EF87  F011         	goto	u5950
  5775  00230A                     u5951:
  5776  00230A  EFAE  F011         	goto	l5285
  5777  00230E                     u5950:
  5778  00230E  AC14               	btfss	___fladd@signs^0,6,c
  5779  002310  EF8C  F011         	goto	u5961
  5780  002314  EF8E  F011         	goto	u5960
  5781  002318                     u5961:
  5782  002318  EF90  F011         	goto	l5255
  5783  00231C                     u5960:
  5784  00231C  0E80               	movlw	128
  5785  00231E  1A14               	xorwf	___fladd@signs^0,f,c
  5786  002320                     l5255:
  5787  002320  C016  F017         	movff	___fladd@bexp,___fladd@grs
  5788  002324  C015  F016         	movff	___fladd@aexp,___fladd@bexp
  5789  002328  C017  F015         	movff	___fladd@grs,___fladd@aexp
  5790  00232C  C008  F017         	movff	___fladd@b,___fladd@grs
  5791  002330  C00C  F008         	movff	___fladd@a,___fladd@b
  5792  002334  C017  F00C         	movff	___fladd@grs,___fladd@a
  5793  002338  C009  F017         	movff	___fladd@b+1,___fladd@grs
  5794  00233C  C00D  F009         	movff	___fladd@a+1,___fladd@b+1
  5795  002340  C017  F00D         	movff	___fladd@grs,___fladd@a+1
  5796  002344  C00A  F017         	movff	___fladd@b+2,___fladd@grs
  5797  002348  C00E  F00A         	movff	___fladd@a+2,___fladd@b+2
  5798  00234C  C017  F00E         	movff	___fladd@grs,___fladd@a+2
  5799  002350  C00B  F017         	movff	___fladd@b+3,___fladd@grs
  5800  002354  C00F  F00B         	movff	___fladd@a+3,___fladd@b+3
  5801  002358  C017  F00F         	movff	___fladd@grs,___fladd@a+3
  5802  00235C                     l5285:
  5803  00235C  0E00               	movlw	0
  5804  00235E  6E17               	movwf	___fladd@grs^0,c
  5805  002360  5016               	movf	___fladd@bexp^0,w,c
  5806  002362  C015  F010         	movff	___fladd@aexp,??___fladd
  5807  002366  6A11               	clrf	(??___fladd+1)^0,c
  5808  002368  5E10               	subwf	??___fladd^0,f,c
  5809  00236A  0E00               	movlw	0
  5810  00236C  5A11               	subwfb	(??___fladd+1)^0,f,c
  5811  00236E  BE11               	btfsc	(??___fladd+1)^0,7,c
  5812  002370  EFC3  F011         	goto	u5971
  5813  002374  5011               	movf	(??___fladd+1)^0,w,c
  5814  002376  E109               	bnz	u5970
  5815  002378  0E1A               	movlw	26
  5816  00237A  5C10               	subwf	??___fladd^0,w,c
  5817  00237C  A0D8               	btfss	status,0,c
  5818  00237E  EFC3  F011         	goto	u5971
  5819  002382  EFC5  F011         	goto	u5970
  5820  002386                     u5971:
  5821  002386  EFFC  F011         	goto	l1182
  5822  00238A                     u5970:
  5823  00238A  5008               	movf	___fladd@b^0,w,c
  5824  00238C  1009               	iorwf	(___fladd@b+1)^0,w,c
  5825  00238E  100A               	iorwf	(___fladd@b+2)^0,w,c
  5826  002390  100B               	iorwf	(___fladd@b+3)^0,w,c
  5827  002392  A4D8               	btfss	status,2,c
  5828  002394  EFCE  F011         	goto	u5981
  5829  002398  EFD1  F011         	goto	u5980
  5830  00239C                     u5981:
  5831  00239C  0E01               	movlw	1
  5832  00239E  EFD2  F011         	goto	u5990
  5833  0023A2                     u5980:
  5834  0023A2  0E00               	movlw	0
  5835  0023A4                     u5990:
  5836  0023A4  6E17               	movwf	___fladd@grs^0,c
  5837  0023A6  0E00               	movlw	0
  5838  0023A8  6E08               	movwf	___fladd@b^0,c
  5839  0023AA  0E00               	movlw	0
  5840  0023AC  6E09               	movwf	(___fladd@b+1)^0,c
  5841  0023AE  0E00               	movlw	0
  5842  0023B0  6E0A               	movwf	(___fladd@b+2)^0,c
  5843  0023B2  0E00               	movlw	0
  5844  0023B4  6E0B               	movwf	(___fladd@b+3)^0,c
  5845  0023B6  C015  F016         	movff	___fladd@aexp,___fladd@bexp
  5846  0023BA  EF05  F012         	goto	l1181
  5847  0023BE                     l1183:
  5848  0023BE  A017               	btfss	___fladd@grs^0,0,c
  5849  0023C0  EFE4  F011         	goto	u6001
  5850  0023C4  EFE6  F011         	goto	u6000
  5851  0023C8                     u6001:
  5852  0023C8  EFEC  F011         	goto	l5297
  5853  0023CC                     u6000:
  5854  0023CC  90D8               	bcf	status,0,c
  5855  0023CE  3017               	rrcf	___fladd@grs^0,w,c
  5856  0023D0  0901               	iorlw	1
  5857  0023D2  6E17               	movwf	___fladd@grs^0,c
  5858  0023D4  EFEE  F011         	goto	l5299
  5859  0023D8                     l5297:
  5860  0023D8  90D8               	bcf	status,0,c
  5861  0023DA  3217               	rrcf	___fladd@grs^0,f,c
  5862  0023DC                     l5299:
  5863  0023DC  A008               	btfss	___fladd@b^0,0,c
  5864  0023DE  EFF3  F011         	goto	u6011
  5865  0023E2  EFF5  F011         	goto	u6010
  5866  0023E6                     u6011:
  5867  0023E6  EFF6  F011         	goto	l5303
  5868  0023EA                     u6010:
  5869  0023EA  8E17               	bsf	___fladd@grs^0,7,c
  5870  0023EC                     l5303:
  5871  0023EC  340B               	rlcf	(___fladd@b+3)^0,w,c
  5872  0023EE  320B               	rrcf	(___fladd@b+3)^0,f,c
  5873  0023F0  320A               	rrcf	(___fladd@b+2)^0,f,c
  5874  0023F2  3209               	rrcf	(___fladd@b+1)^0,f,c
  5875  0023F4  3208               	rrcf	___fladd@b^0,f,c
  5876  0023F6  2A16               	incf	___fladd@bexp^0,f,c
  5877  0023F8                     l1182:
  5878  0023F8  5015               	movf	___fladd@aexp^0,w,c
  5879  0023FA  5C16               	subwf	___fladd@bexp^0,w,c
  5880  0023FC  A0D8               	btfss	status,0,c
  5881  0023FE  EF03  F012         	goto	u6021
  5882  002402  EF05  F012         	goto	u6020
  5883  002406                     u6021:
  5884  002406  EFDF  F011         	goto	l1183
  5885  00240A                     u6020:
  5886  00240A                     l1181:
  5887  00240A  BC14               	btfsc	___fladd@signs^0,6,c
  5888  00240C  EF0A  F012         	goto	u6031
  5889  002410  EF0C  F012         	goto	u6030
  5890  002414                     u6031:
  5891  002414  EF4C  F012         	goto	l5331
  5892  002418                     u6030:
  5893  002418  5016               	movf	___fladd@bexp^0,w,c
  5894  00241A  A4D8               	btfss	status,2,c
  5895  00241C  EF12  F012         	goto	u6041
  5896  002420  EF14  F012         	goto	u6040
  5897  002424                     u6041:
  5898  002424  EF1E  F012         	goto	l5313
  5899  002428                     u6040:
  5900  002428  0E00               	movlw	0
  5901  00242A  6E08               	movwf	?___fladd^0,c
  5902  00242C  0E00               	movlw	0
  5903  00242E  6E09               	movwf	(?___fladd+1)^0,c
  5904  002430  0E00               	movlw	0
  5905  002432  6E0A               	movwf	(?___fladd+2)^0,c
  5906  002434  0E00               	movlw	0
  5907  002436  6E0B               	movwf	(?___fladd+3)^0,c
  5908  002438  EF6D  F013         	goto	l1190
  5909  00243C                     l5313:
  5910  00243C  500C               	movf	___fladd@a^0,w,c
  5911  00243E  2608               	addwf	___fladd@b^0,f,c
  5912  002440  500D               	movf	(___fladd@a+1)^0,w,c
  5913  002442  2209               	addwfc	(___fladd@b+1)^0,f,c
  5914  002444  500E               	movf	(___fladd@a+2)^0,w,c
  5915  002446  220A               	addwfc	(___fladd@b+2)^0,f,c
  5916  002448  500F               	movf	(___fladd@a+3)^0,w,c
  5917  00244A  220B               	addwfc	(___fladd@b+3)^0,f,c
  5918  00244C  A00B               	btfss	(___fladd@b+3)^0,0,c
  5919  00244E  EF2B  F012         	goto	u6051
  5920  002452  EF2D  F012         	goto	u6050
  5921  002456                     u6051:
  5922  002456  EFD9  F012         	goto	l5367
  5923  00245A                     u6050:
  5924  00245A  A017               	btfss	___fladd@grs^0,0,c
  5925  00245C  EF32  F012         	goto	u6061
  5926  002460  EF34  F012         	goto	u6060
  5927  002464                     u6061:
  5928  002464  EF3A  F012         	goto	l5321
  5929  002468                     u6060:
  5930  002468  90D8               	bcf	status,0,c
  5931  00246A  3017               	rrcf	___fladd@grs^0,w,c
  5932  00246C  0901               	iorlw	1
  5933  00246E  6E17               	movwf	___fladd@grs^0,c
  5934  002470  EF3C  F012         	goto	l5323
  5935  002474                     l5321:
  5936  002474  90D8               	bcf	status,0,c
  5937  002476  3217               	rrcf	___fladd@grs^0,f,c
  5938  002478                     l5323:
  5939  002478  A008               	btfss	___fladd@b^0,0,c
  5940  00247A  EF41  F012         	goto	u6071
  5941  00247E  EF43  F012         	goto	u6070
  5942  002482                     u6071:
  5943  002482  EF44  F012         	goto	l5327
  5944  002486                     u6070:
  5945  002486  8E17               	bsf	___fladd@grs^0,7,c
  5946  002488                     l5327:
  5947  002488  340B               	rlcf	(___fladd@b+3)^0,w,c
  5948  00248A  320B               	rrcf	(___fladd@b+3)^0,f,c
  5949  00248C  320A               	rrcf	(___fladd@b+2)^0,f,c
  5950  00248E  3209               	rrcf	(___fladd@b+1)^0,f,c
  5951  002490  3208               	rrcf	___fladd@b^0,f,c
  5952  002492  2A16               	incf	___fladd@bexp^0,f,c
  5953  002494  EFD9  F012         	goto	l5367
  5954  002498                     l5331:
  5955  002498  500C               	movf	___fladd@a^0,w,c
  5956  00249A  5C08               	subwf	___fladd@b^0,w,c
  5957  00249C  500D               	movf	(___fladd@a+1)^0,w,c
  5958  00249E  5809               	subwfb	(___fladd@b+1)^0,w,c
  5959  0024A0  500E               	movf	(___fladd@a+2)^0,w,c
  5960  0024A2  580A               	subwfb	(___fladd@b+2)^0,w,c
  5961  0024A4  500B               	movf	(___fladd@b+3)^0,w,c
  5962  0024A6  0A80               	xorlw	128
  5963  0024A8  6E10               	movwf	??___fladd^0,c
  5964  0024AA  500F               	movf	(___fladd@a+3)^0,w,c
  5965  0024AC  0A80               	xorlw	128
  5966  0024AE  5810               	subwfb	??___fladd^0,w,c
  5967  0024B0  B0D8               	btfsc	status,0,c
  5968  0024B2  EF5D  F012         	goto	u6081
  5969  0024B6  EF5F  F012         	goto	u6080
  5970  0024BA                     u6081:
  5971  0024BA  EF8A  F012         	goto	l5341
  5972  0024BE                     u6080:
  5973  0024BE  5008               	movf	___fladd@b^0,w,c
  5974  0024C0  5C0C               	subwf	___fladd@a^0,w,c
  5975  0024C2  6E10               	movwf	??___fladd^0,c
  5976  0024C4  5009               	movf	(___fladd@b+1)^0,w,c
  5977  0024C6  580D               	subwfb	(___fladd@a+1)^0,w,c
  5978  0024C8  6E11               	movwf	(??___fladd+1)^0,c
  5979  0024CA  500A               	movf	(___fladd@b+2)^0,w,c
  5980  0024CC  580E               	subwfb	(___fladd@a+2)^0,w,c
  5981  0024CE  6E12               	movwf	(??___fladd+2)^0,c
  5982  0024D0  500B               	movf	(___fladd@b+3)^0,w,c
  5983  0024D2  580F               	subwfb	(___fladd@a+3)^0,w,c
  5984  0024D4  6E13               	movwf	(??___fladd+3)^0,c
  5985  0024D6  0EFF               	movlw	255
  5986  0024D8  2410               	addwf	??___fladd^0,w,c
  5987  0024DA  6E08               	movwf	___fladd@b^0,c
  5988  0024DC  0EFF               	movlw	255
  5989  0024DE  2011               	addwfc	(??___fladd+1)^0,w,c
  5990  0024E0  6E09               	movwf	(___fladd@b+1)^0,c
  5991  0024E2  0EFF               	movlw	255
  5992  0024E4  2012               	addwfc	(??___fladd+2)^0,w,c
  5993  0024E6  6E0A               	movwf	(___fladd@b+2)^0,c
  5994  0024E8  0EFF               	movlw	255
  5995  0024EA  2013               	addwfc	(??___fladd+3)^0,w,c
  5996  0024EC  6E0B               	movwf	(___fladd@b+3)^0,c
  5997  0024EE  0E80               	movlw	128
  5998  0024F0  1A14               	xorwf	___fladd@signs^0,f,c
  5999  0024F2  6C17               	negf	___fladd@grs^0,c
  6000  0024F4  5017               	movf	___fladd@grs^0,w,c
  6001  0024F6  A4D8               	btfss	status,2,c
  6002  0024F8  EF80  F012         	goto	u6091
  6003  0024FC  EF82  F012         	goto	u6090
  6004  002500                     u6091:
  6005  002500  EF92  F012         	goto	l1198
  6006  002504                     u6090:
  6007  002504  0E01               	movlw	1
  6008  002506  2608               	addwf	___fladd@b^0,f,c
  6009  002508  0E00               	movlw	0
  6010  00250A  2209               	addwfc	(___fladd@b+1)^0,f,c
  6011  00250C  220A               	addwfc	(___fladd@b+2)^0,f,c
  6012  00250E  220B               	addwfc	(___fladd@b+3)^0,f,c
  6013  002510  EF92  F012         	goto	l1198
  6014  002514                     l5341:
  6015  002514  500C               	movf	___fladd@a^0,w,c
  6016  002516  5E08               	subwf	___fladd@b^0,f,c
  6017  002518  500D               	movf	(___fladd@a+1)^0,w,c
  6018  00251A  5A09               	subwfb	(___fladd@b+1)^0,f,c
  6019  00251C  500E               	movf	(___fladd@a+2)^0,w,c
  6020  00251E  5A0A               	subwfb	(___fladd@b+2)^0,f,c
  6021  002520  500F               	movf	(___fladd@a+3)^0,w,c
  6022  002522  5A0B               	subwfb	(___fladd@b+3)^0,f,c
  6023  002524                     l1198:
  6024  002524  5008               	movf	___fladd@b^0,w,c
  6025  002526  1009               	iorwf	(___fladd@b+1)^0,w,c
  6026  002528  100A               	iorwf	(___fladd@b+2)^0,w,c
  6027  00252A  100B               	iorwf	(___fladd@b+3)^0,w,c
  6028  00252C  A4D8               	btfss	status,2,c
  6029  00252E  EF9B  F012         	goto	u6101
  6030  002532  EF9D  F012         	goto	u6100
  6031  002536                     u6101:
  6032  002536  EFD2  F012         	goto	l5365
  6033  00253A                     u6100:
  6034  00253A  5017               	movf	___fladd@grs^0,w,c
  6035  00253C  A4D8               	btfss	status,2,c
  6036  00253E  EFA3  F012         	goto	u6111
  6037  002542  EFA5  F012         	goto	u6110
  6038  002546                     u6111:
  6039  002546  EFD2  F012         	goto	l5365
  6040  00254A                     u6110:
  6041  00254A  0E00               	movlw	0
  6042  00254C  6E08               	movwf	?___fladd^0,c
  6043  00254E  0E00               	movlw	0
  6044  002550  6E09               	movwf	(?___fladd+1)^0,c
  6045  002552  0E00               	movlw	0
  6046  002554  6E0A               	movwf	(?___fladd+2)^0,c
  6047  002556  0E00               	movlw	0
  6048  002558  6E0B               	movwf	(?___fladd+3)^0,c
  6049  00255A  EF6D  F013         	goto	l1190
  6050  00255E                     l5349:
  6051  00255E  90D8               	bcf	status,0,c
  6052  002560  3608               	rlcf	___fladd@b^0,f,c
  6053  002562  3609               	rlcf	(___fladd@b+1)^0,f,c
  6054  002564  360A               	rlcf	(___fladd@b+2)^0,f,c
  6055  002566  360B               	rlcf	(___fladd@b+3)^0,f,c
  6056  002568  AE17               	btfss	___fladd@grs^0,7,c
  6057  00256A  EFB9  F012         	goto	u6121
  6058  00256E  EFBB  F012         	goto	u6120
  6059  002572                     u6121:
  6060  002572  EFBC  F012         	goto	l5355
  6061  002576                     u6120:
  6062  002576  8008               	bsf	___fladd@b^0,0,c
  6063  002578                     l5355:
  6064  002578  A017               	btfss	___fladd@grs^0,0,c
  6065  00257A  EFC1  F012         	goto	u6131
  6066  00257E  EFC3  F012         	goto	u6130
  6067  002582                     u6131:
  6068  002582  EFC7  F012         	goto	l5359
  6069  002586                     u6130:
  6070  002586  80D8               	bsf	status,0,c
  6071  002588  3617               	rlcf	___fladd@grs^0,f,c
  6072  00258A  EFC9  F012         	goto	l5361
  6073  00258E                     l5359:
  6074  00258E  90D8               	bcf	status,0,c
  6075  002590  3617               	rlcf	___fladd@grs^0,f,c
  6076  002592                     l5361:
  6077  002592  5016               	movf	___fladd@bexp^0,w,c
  6078  002594  B4D8               	btfsc	status,2,c
  6079  002596  EFCF  F012         	goto	u6141
  6080  00259A  EFD1  F012         	goto	u6140
  6081  00259E                     u6141:
  6082  00259E  EFD2  F012         	goto	l5365
  6083  0025A2                     u6140:
  6084  0025A2  0616               	decf	___fladd@bexp^0,f,c
  6085  0025A4                     l5365:
  6086  0025A4  AE0A               	btfss	(___fladd@b+2)^0,7,c
  6087  0025A6  EFD7  F012         	goto	u6151
  6088  0025AA  EFD9  F012         	goto	u6150
  6089  0025AE                     u6151:
  6090  0025AE  EFAF  F012         	goto	l5349
  6091  0025B2                     u6150:
  6092  0025B2                     l5367:
  6093  0025B2  0E00               	movlw	0
  6094  0025B4  6E15               	movwf	___fladd@aexp^0,c
  6095  0025B6  AE17               	btfss	___fladd@grs^0,7,c
  6096  0025B8  EFE0  F012         	goto	u6161
  6097  0025BC  EFE2  F012         	goto	u6160
  6098  0025C0                     u6161:
  6099  0025C0  EFFA  F012         	goto	l1207
  6100  0025C4                     u6160:
  6101  0025C4  C017  F010         	movff	___fladd@grs,??___fladd
  6102  0025C8  0E7F               	movlw	127
  6103  0025CA  1610               	andwf	??___fladd^0,f,c
  6104  0025CC  B4D8               	btfsc	status,2,c
  6105  0025CE  EFEB  F012         	goto	u6171
  6106  0025D2  EFED  F012         	goto	u6170
  6107  0025D6                     u6171:
  6108  0025D6  EFF1  F012         	goto	l1208
  6109  0025DA                     u6170:
  6110  0025DA                     l5373:
  6111  0025DA  0E01               	movlw	1
  6112  0025DC  6E15               	movwf	___fladd@aexp^0,c
  6113  0025DE  EFFA  F012         	goto	l1207
  6114  0025E2                     l1208:
  6115  0025E2  A008               	btfss	___fladd@b^0,0,c
  6116  0025E4  EFF6  F012         	goto	u6181
  6117  0025E8  EFF8  F012         	goto	u6180
  6118  0025EC                     u6181:
  6119  0025EC  EFFA  F012         	goto	l1207
  6120  0025F0                     u6180:
  6121  0025F0  EFED  F012         	goto	l5373
  6122  0025F4                     l1207:
  6123  0025F4  5015               	movf	___fladd@aexp^0,w,c
  6124  0025F6  B4D8               	btfsc	status,2,c
  6125  0025F8  EF00  F013         	goto	u6191
  6126  0025FC  EF02  F013         	goto	u6190
  6127  002600                     u6191:
  6128  002600  EF2D  F013         	goto	l5385
  6129  002604                     u6190:
  6130  002604  0E01               	movlw	1
  6131  002606  2608               	addwf	___fladd@b^0,f,c
  6132  002608  0E00               	movlw	0
  6133  00260A  2209               	addwfc	(___fladd@b+1)^0,f,c
  6134  00260C  220A               	addwfc	(___fladd@b+2)^0,f,c
  6135  00260E  220B               	addwfc	(___fladd@b+3)^0,f,c
  6136  002610  A00B               	btfss	(___fladd@b+3)^0,0,c
  6137  002612  EF0D  F013         	goto	u6201
  6138  002616  EF0F  F013         	goto	u6200
  6139  00261A                     u6201:
  6140  00261A  EF2D  F013         	goto	l5385
  6141  00261E                     u6200:
  6142  00261E  C008  F010         	movff	___fladd@b,??___fladd
  6143  002622  C009  F011         	movff	___fladd@b+1,??___fladd+1
  6144  002626  C00A  F012         	movff	___fladd@b+2,??___fladd+2
  6145  00262A  C00B  F013         	movff	___fladd@b+3,??___fladd+3
  6146  00262E  3413               	rlcf	(??___fladd+3)^0,w,c
  6147  002630  3213               	rrcf	(??___fladd+3)^0,f,c
  6148  002632  3212               	rrcf	(??___fladd+2)^0,f,c
  6149  002634  3211               	rrcf	(??___fladd+1)^0,f,c
  6150  002636  3210               	rrcf	??___fladd^0,f,c
  6151  002638  C010  F008         	movff	??___fladd,___fladd@b
  6152  00263C  C011  F009         	movff	??___fladd+1,___fladd@b+1
  6153  002640  C012  F00A         	movff	??___fladd+2,___fladd@b+2
  6154  002644  C013  F00B         	movff	??___fladd+3,___fladd@b+3
  6155  002648  2816               	incf	___fladd@bexp^0,w,c
  6156  00264A  B4D8               	btfsc	status,2,c
  6157  00264C  EF2A  F013         	goto	u6211
  6158  002650  EF2C  F013         	goto	u6210
  6159  002654                     u6211:
  6160  002654  EF2D  F013         	goto	l5385
  6161  002658                     u6210:
  6162  002658  2A16               	incf	___fladd@bexp^0,f,c
  6163  00265A                     l5385:
  6164  00265A  2816               	incf	___fladd@bexp^0,w,c
  6165  00265C  B4D8               	btfsc	status,2,c
  6166  00265E  EF33  F013         	goto	u6221
  6167  002662  EF35  F013         	goto	u6220
  6168  002666                     u6221:
  6169  002666  EF3D  F013         	goto	l5389
  6170  00266A                     u6220:
  6171  00266A  5016               	movf	___fladd@bexp^0,w,c
  6172  00266C  A4D8               	btfss	status,2,c
  6173  00266E  EF3B  F013         	goto	u6231
  6174  002672  EF3D  F013         	goto	u6230
  6175  002676                     u6231:
  6176  002676  EF4F  F013         	goto	l5393
  6177  00267A                     u6230:
  6178  00267A                     l5389:
  6179  00267A  0E00               	movlw	0
  6180  00267C  6E08               	movwf	___fladd@b^0,c
  6181  00267E  0E00               	movlw	0
  6182  002680  6E09               	movwf	(___fladd@b+1)^0,c
  6183  002682  0E00               	movlw	0
  6184  002684  6E0A               	movwf	(___fladd@b+2)^0,c
  6185  002686  0E00               	movlw	0
  6186  002688  6E0B               	movwf	(___fladd@b+3)^0,c
  6187  00268A  5016               	movf	___fladd@bexp^0,w,c
  6188  00268C  A4D8               	btfss	status,2,c
  6189  00268E  EF4B  F013         	goto	u6241
  6190  002692  EF4D  F013         	goto	u6240
  6191  002696                     u6241:
  6192  002696  EF4F  F013         	goto	l5393
  6193  00269A                     u6240:
  6194  00269A  0E00               	movlw	0
  6195  00269C  6E14               	movwf	___fladd@signs^0,c
  6196  00269E                     l5393:
  6197  00269E  A016               	btfss	___fladd@bexp^0,0,c
  6198  0026A0  EF54  F013         	goto	u6251
  6199  0026A4  EF56  F013         	goto	u6250
  6200  0026A8                     u6251:
  6201  0026A8  EF59  F013         	goto	l5397
  6202  0026AC                     u6250:
  6203  0026AC  8E0A               	bsf	(___fladd@b+2)^0,7,c
  6204  0026AE  EF5A  F013         	goto	l5399
  6205  0026B2                     l5397:
  6206  0026B2  9E0A               	bcf	(___fladd@b+2)^0,7,c
  6207  0026B4                     l5399:
  6208  0026B4  90D8               	bcf	status,0,c
  6209  0026B6  3016               	rrcf	___fladd@bexp^0,w,c
  6210  0026B8  6E0B               	movwf	(___fladd@b+3)^0,c
  6211  0026BA  AE14               	btfss	___fladd@signs^0,7,c
  6212  0026BC  EF62  F013         	goto	u6261
  6213  0026C0  EF64  F013         	goto	u6260
  6214  0026C4                     u6261:
  6215  0026C4  EF65  F013         	goto	l5405
  6216  0026C8                     u6260:
  6217  0026C8  8E0B               	bsf	(___fladd@b+3)^0,7,c
  6218  0026CA                     l5405:
  6219  0026CA  C008  F008         	movff	___fladd@b,?___fladd
  6220  0026CE  C009  F009         	movff	___fladd@b+1,?___fladd+1
  6221  0026D2  C00A  F00A         	movff	___fladd@b+2,?___fladd+2
  6222  0026D6  C00B  F00B         	movff	___fladd@b+3,?___fladd+3
  6223  0026DA                     l1190:
  6224  0026DA  0012               	return		;funcret
  6225  0026DC                     __end_of___fladd:
  6226                           	opt callstack 0
  6227                           
  6228 ;; *************** function ___flneg *****************
  6229 ;; Defined at:
  6230 ;;		line 15 in file "C:\Program Files (x86)\Microchip\xc8\v2.10\pic\sources\c99\common\flneg.c"
  6231 ;; Parameters:    Size  Location     Type
  6232 ;;  f1              4    7[COMRAM] unsigned char 
  6233 ;; Auto vars:     Size  Location     Type
  6234 ;;		None
  6235 ;; Return value:  Size  Location     Type
  6236 ;;                  4    7[COMRAM] unsigned char 
  6237 ;; Registers used:
  6238 ;;		wreg, status,2, status,0
  6239 ;; Tracked objects:
  6240 ;;		On entry : 0/0
  6241 ;;		On exit  : 0/0
  6242 ;;		Unchanged: 0/0
  6243 ;; Data sizes:     COMRAM   BANK0   BANK1   BANK2   BANK3   BANK4   BANK5   BANK6   BANK7   BANK8   BANK9  BANK10  BANK1
      +1  BANK12  BANK13  BANK14  BANK15
  6244 ;;      Params:         4       0       0       0       0       0       0       0       0       0       0       0       
      +0       0       0       0       0
  6245 ;;      Locals:         0       0       0       0       0       0       0       0       0       0       0       0       
      +0       0       0       0       0
  6246 ;;      Temps:          0       0       0       0       0       0       0       0       0       0       0       0       
      +0       0       0       0       0
  6247 ;;      Totals:         4       0       0       0       0       0       0       0       0       0       0       0       
      +0       0       0       0       0
  6248 ;;Total ram usage:        4 bytes
  6249 ;; Hardware stack levels used:    1
  6250 ;; Hardware stack levels required when called:    3
  6251 ;; This function calls:
  6252 ;;		Nothing
  6253 ;; This function is called by:
  6254 ;;		_efgtoa
  6255 ;; This function uses a non-reentrant model
  6256 ;;
  6257                           
  6258                           	psect	text21
  6259  004538                     __ptext21:
  6260                           	opt callstack 0
  6261  004538                     ___flneg:
  6262                           	opt callstack 23
  6263  004538  5008               	movf	___flneg@f1^0,w,c
  6264  00453A  1009               	iorwf	(___flneg@f1+1)^0,w,c
  6265  00453C  100A               	iorwf	(___flneg@f1+2)^0,w,c
  6266  00453E  100B               	iorwf	(___flneg@f1+3)^0,w,c
  6267  004540  B4D8               	btfsc	status,2,c
  6268  004542  EFA5  F022         	goto	u7171
  6269  004546  EFA7  F022         	goto	u7170
  6270  00454A                     u7171:
  6271  00454A  EFAF  F022         	goto	l5901
  6272  00454E                     u7170:
  6273  00454E  0E00               	movlw	0
  6274  004550  1A08               	xorwf	___flneg@f1^0,f,c
  6275  004552  0E00               	movlw	0
  6276  004554  1A09               	xorwf	(___flneg@f1+1)^0,f,c
  6277  004556  0E00               	movlw	0
  6278  004558  1A0A               	xorwf	(___flneg@f1+2)^0,f,c
  6279  00455A  0E80               	movlw	128
  6280  00455C  1A0B               	xorwf	(___flneg@f1+3)^0,f,c
  6281  00455E                     l5901:
  6282  00455E  C008  F008         	movff	___flneg@f1,?___flneg
  6283  004562  C009  F009         	movff	___flneg@f1+1,?___flneg+1
  6284  004566  C00A  F00A         	movff	___flneg@f1+2,?___flneg+2
  6285  00456A  C00B  F00B         	movff	___flneg@f1+3,?___flneg+3
  6286  00456E  0012               	return		;funcret
  6287  004570                     __end_of___flneg:
  6288                           	opt callstack 0
  6289                           
  6290 ;; *************** function ___flmul *****************
  6291 ;; Defined at:
  6292 ;;		line 8 in file "C:\Program Files (x86)\Microchip\xc8\v2.10\pic\sources\c99\common\sprcmul.c"
  6293 ;; Parameters:    Size  Location     Type
  6294 ;;  b               4   21[COMRAM] unsigned char 
  6295 ;;  a               4   25[COMRAM] unsigned char 
  6296 ;; Auto vars:     Size  Location     Type
  6297 ;;  prod            4   40[COMRAM] struct .
  6298 ;;  grs             4   35[COMRAM] unsigned long 
  6299 ;;  temp            2   44[COMRAM] struct .
  6300 ;;  bexp            1   39[COMRAM] unsigned char 
  6301 ;;  aexp            1   34[COMRAM] unsigned char 
  6302 ;;  sign            1   33[COMRAM] unsigned char 
  6303 ;; Return value:  Size  Location     Type
  6304 ;;                  4   21[COMRAM] unsigned char 
  6305 ;; Registers used:
  6306 ;;		wreg, status,2, status,0, prodl, prodh
  6307 ;; Tracked objects:
  6308 ;;		On entry : 0/0
  6309 ;;		On exit  : 0/0
  6310 ;;		Unchanged: 0/0
  6311 ;; Data sizes:     COMRAM   BANK0   BANK1   BANK2   BANK3   BANK4   BANK5   BANK6   BANK7   BANK8   BANK9  BANK10  BANK1
      +1  BANK12  BANK13  BANK14  BANK15
  6312 ;;      Params:         8       0       0       0       0       0       0       0       0       0       0       0       
      +0       0       0       0       0
  6313 ;;      Locals:        13       0       0       0       0       0       0       0       0       0       0       0       
      +0       0       0       0       0
  6314 ;;      Temps:          4       0       0       0       0       0       0       0       0       0       0       0       
      +0       0       0       0       0
  6315 ;;      Totals:        25       0       0       0       0       0       0       0       0       0       0       0       
      +0       0       0       0       0
  6316 ;;Total ram usage:       25 bytes
  6317 ;; Hardware stack levels used:    1
  6318 ;; Hardware stack levels required when called:    3
  6319 ;; This function calls:
  6320 ;;		Nothing
  6321 ;; This function is called by:
  6322 ;;		_main
  6323 ;;		_efgtoa
  6324 ;; This function uses a non-reentrant model
  6325 ;;
  6326                           
  6327                           	psect	text22
  6328  0026DC                     __ptext22:
  6329                           	opt callstack 0
  6330  0026DC                     ___flmul:
  6331                           	opt callstack 23
  6332  0026DC  5019               	movf	(___flmul@b+3)^0,w,c
  6333  0026DE  0B80               	andlw	128
  6334  0026E0  6E22               	movwf	___flmul@sign^0,c
  6335  0026E2  5019               	movf	(___flmul@b+3)^0,w,c
  6336  0026E4  2419               	addwf	(___flmul@b+3)^0,w,c
  6337  0026E6  6E28               	movwf	___flmul@bexp^0,c
  6338  0026E8  AE18               	btfss	(___flmul@b+2)^0,7,c
  6339  0026EA  EF79  F013         	goto	u6781
  6340  0026EE  EF7B  F013         	goto	u6780
  6341  0026F2                     u6781:
  6342  0026F2  EF7C  F013         	goto	l5649
  6343  0026F6                     u6780:
  6344  0026F6  8028               	bsf	___flmul@bexp^0,0,c
  6345  0026F8                     l5649:
  6346  0026F8  5028               	movf	___flmul@bexp^0,w,c
  6347  0026FA  B4D8               	btfsc	status,2,c
  6348  0026FC  EF82  F013         	goto	u6791
  6349  002700  EF84  F013         	goto	u6790
  6350  002704                     u6791:
  6351  002704  EF97  F013         	goto	l5657
  6352  002708                     u6790:
  6353  002708  2828               	incf	___flmul@bexp^0,w,c
  6354  00270A  A4D8               	btfss	status,2,c
  6355  00270C  EF8A  F013         	goto	u6801
  6356  002710  EF8C  F013         	goto	u6800
  6357  002714                     u6801:
  6358  002714  EF94  F013         	goto	l5655
  6359  002718                     u6800:
  6360  002718  0E00               	movlw	0
  6361  00271A  6E16               	movwf	___flmul@b^0,c
  6362  00271C  0E00               	movlw	0
  6363  00271E  6E17               	movwf	(___flmul@b+1)^0,c
  6364  002720  0E00               	movlw	0
  6365  002722  6E18               	movwf	(___flmul@b+2)^0,c
  6366  002724  0E00               	movlw	0
  6367  002726  6E19               	movwf	(___flmul@b+3)^0,c
  6368  002728                     l5655:
  6369  002728  8E18               	bsf	(___flmul@b+2)^0,7,c
  6370  00272A  EF9F  F013         	goto	l5659
  6371  00272E                     l5657:
  6372  00272E  0E00               	movlw	0
  6373  002730  6E16               	movwf	___flmul@b^0,c
  6374  002732  0E00               	movlw	0
  6375  002734  6E17               	movwf	(___flmul@b+1)^0,c
  6376  002736  0E00               	movlw	0
  6377  002738  6E18               	movwf	(___flmul@b+2)^0,c
  6378  00273A  0E00               	movlw	0
  6379  00273C  6E19               	movwf	(___flmul@b+3)^0,c
  6380  00273E                     l5659:
  6381  00273E  501D               	movf	(___flmul@a+3)^0,w,c
  6382  002740  0B80               	andlw	128
  6383  002742  1A22               	xorwf	___flmul@sign^0,f,c
  6384  002744  501D               	movf	(___flmul@a+3)^0,w,c
  6385  002746  241D               	addwf	(___flmul@a+3)^0,w,c
  6386  002748  6E23               	movwf	___flmul@aexp^0,c
  6387  00274A  AE1C               	btfss	(___flmul@a+2)^0,7,c
  6388  00274C  EFAA  F013         	goto	u6811
  6389  002750  EFAC  F013         	goto	u6810
  6390  002754                     u6811:
  6391  002754  EFAD  F013         	goto	l5667
  6392  002758                     u6810:
  6393  002758  8023               	bsf	___flmul@aexp^0,0,c
  6394  00275A                     l5667:
  6395  00275A  5023               	movf	___flmul@aexp^0,w,c
  6396  00275C  B4D8               	btfsc	status,2,c
  6397  00275E  EFB3  F013         	goto	u6821
  6398  002762  EFB5  F013         	goto	u6820
  6399  002766                     u6821:
  6400  002766  EFC8  F013         	goto	l5675
  6401  00276A                     u6820:
  6402  00276A  2823               	incf	___flmul@aexp^0,w,c
  6403  00276C  A4D8               	btfss	status,2,c
  6404  00276E  EFBB  F013         	goto	u6831
  6405  002772  EFBD  F013         	goto	u6830
  6406  002776                     u6831:
  6407  002776  EFC5  F013         	goto	l5673
  6408  00277A                     u6830:
  6409  00277A  0E00               	movlw	0
  6410  00277C  6E1A               	movwf	___flmul@a^0,c
  6411  00277E  0E00               	movlw	0
  6412  002780  6E1B               	movwf	(___flmul@a+1)^0,c
  6413  002782  0E00               	movlw	0
  6414  002784  6E1C               	movwf	(___flmul@a+2)^0,c
  6415  002786  0E00               	movlw	0
  6416  002788  6E1D               	movwf	(___flmul@a+3)^0,c
  6417  00278A                     l5673:
  6418  00278A  8E1C               	bsf	(___flmul@a+2)^0,7,c
  6419  00278C  EFD0  F013         	goto	l1267
  6420  002790                     l5675:
  6421  002790  0E00               	movlw	0
  6422  002792  6E1A               	movwf	___flmul@a^0,c
  6423  002794  0E00               	movlw	0
  6424  002796  6E1B               	movwf	(___flmul@a+1)^0,c
  6425  002798  0E00               	movlw	0
  6426  00279A  6E1C               	movwf	(___flmul@a+2)^0,c
  6427  00279C  0E00               	movlw	0
  6428  00279E  6E1D               	movwf	(___flmul@a+3)^0,c
  6429  0027A0                     l1267:
  6430  0027A0  5023               	movf	___flmul@aexp^0,w,c
  6431  0027A2  B4D8               	btfsc	status,2,c
  6432  0027A4  EFD6  F013         	goto	u6841
  6433  0027A8  EFD8  F013         	goto	u6840
  6434  0027AC                     u6841:
  6435  0027AC  EFE0  F013         	goto	l5679
  6436  0027B0                     u6840:
  6437  0027B0  5028               	movf	___flmul@bexp^0,w,c
  6438  0027B2  A4D8               	btfss	status,2,c
  6439  0027B4  EFDE  F013         	goto	u6851
  6440  0027B8  EFE0  F013         	goto	u6850
  6441  0027BC                     u6851:
  6442  0027BC  EFEA  F013         	goto	l5683
  6443  0027C0                     u6850:
  6444  0027C0                     l5679:
  6445  0027C0  0E00               	movlw	0
  6446  0027C2  6E16               	movwf	?___flmul^0,c
  6447  0027C4  0E00               	movlw	0
  6448  0027C6  6E17               	movwf	(?___flmul+1)^0,c
  6449  0027C8  0E00               	movlw	0
  6450  0027CA  6E18               	movwf	(?___flmul+2)^0,c
  6451  0027CC  0E00               	movlw	0
  6452  0027CE  6E19               	movwf	(?___flmul+3)^0,c
  6453  0027D0  EF82  F015         	goto	l1271
  6454  0027D4                     l5683:
  6455  0027D4  501C               	movf	(___flmul@a+2)^0,w,c
  6456  0027D6  0216               	mulwf	___flmul@b^0,c
  6457  0027D8  CFF3 F02D          	movff	prodl,___flmul@temp
  6458  0027DC  CFF4 F02E          	movff	prodh,___flmul@temp+1
  6459  0027E0  502D               	movf	___flmul@temp^0,w,c
  6460  0027E2  6E24               	movwf	___flmul@grs^0,c
  6461  0027E4  6A25               	clrf	(___flmul@grs+1)^0,c
  6462  0027E6  6A26               	clrf	(___flmul@grs+2)^0,c
  6463  0027E8  6A27               	clrf	(___flmul@grs+3)^0,c
  6464  0027EA  502E               	movf	(___flmul@temp+1)^0,w,c
  6465  0027EC  6E29               	movwf	___flmul@prod^0,c
  6466  0027EE  6A2A               	clrf	(___flmul@prod+1)^0,c
  6467  0027F0  6A2B               	clrf	(___flmul@prod+2)^0,c
  6468  0027F2  6A2C               	clrf	(___flmul@prod+3)^0,c
  6469  0027F4  501B               	movf	(___flmul@a+1)^0,w,c
  6470  0027F6  0217               	mulwf	(___flmul@b+1)^0,c
  6471  0027F8  CFF3 F02D          	movff	prodl,___flmul@temp
  6472  0027FC  CFF4 F02E          	movff	prodh,___flmul@temp+1
  6473  002800  502D               	movf	___flmul@temp^0,w,c
  6474  002802  2624               	addwf	___flmul@grs^0,f,c
  6475  002804  0E00               	movlw	0
  6476  002806  2225               	addwfc	(___flmul@grs+1)^0,f,c
  6477  002808  2226               	addwfc	(___flmul@grs+2)^0,f,c
  6478  00280A  2227               	addwfc	(___flmul@grs+3)^0,f,c
  6479  00280C  502E               	movf	(___flmul@temp+1)^0,w,c
  6480  00280E  2629               	addwf	___flmul@prod^0,f,c
  6481  002810  0E00               	movlw	0
  6482  002812  222A               	addwfc	(___flmul@prod+1)^0,f,c
  6483  002814  222B               	addwfc	(___flmul@prod+2)^0,f,c
  6484  002816  222C               	addwfc	(___flmul@prod+3)^0,f,c
  6485  002818  501A               	movf	___flmul@a^0,w,c
  6486  00281A  0218               	mulwf	(___flmul@b+2)^0,c
  6487  00281C  CFF3 F02D          	movff	prodl,___flmul@temp
  6488  002820  CFF4 F02E          	movff	prodh,___flmul@temp+1
  6489  002824  502D               	movf	___flmul@temp^0,w,c
  6490  002826  2624               	addwf	___flmul@grs^0,f,c
  6491  002828  0E00               	movlw	0
  6492  00282A  2225               	addwfc	(___flmul@grs+1)^0,f,c
  6493  00282C  2226               	addwfc	(___flmul@grs+2)^0,f,c
  6494  00282E  2227               	addwfc	(___flmul@grs+3)^0,f,c
  6495  002830  502E               	movf	(___flmul@temp+1)^0,w,c
  6496  002832  2629               	addwf	___flmul@prod^0,f,c
  6497  002834  0E00               	movlw	0
  6498  002836  222A               	addwfc	(___flmul@prod+1)^0,f,c
  6499  002838  222B               	addwfc	(___flmul@prod+2)^0,f,c
  6500  00283A  222C               	addwfc	(___flmul@prod+3)^0,f,c
  6501  00283C  C026  F027         	movff	___flmul@grs+2,___flmul@grs+3
  6502  002840  C025  F026         	movff	___flmul@grs+1,___flmul@grs+2
  6503  002844  C024  F025         	movff	___flmul@grs,___flmul@grs+1
  6504  002848  6A24               	clrf	___flmul@grs^0,c
  6505  00284A  501A               	movf	___flmul@a^0,w,c
  6506  00284C  0217               	mulwf	(___flmul@b+1)^0,c
  6507  00284E  CFF3 F02D          	movff	prodl,___flmul@temp
  6508  002852  CFF4 F02E          	movff	prodh,___flmul@temp+1
  6509  002856  502D               	movf	___flmul@temp^0,w,c
  6510  002858  2624               	addwf	___flmul@grs^0,f,c
  6511  00285A  502E               	movf	(___flmul@temp+1)^0,w,c
  6512  00285C  2225               	addwfc	(___flmul@grs+1)^0,f,c
  6513  00285E  0E00               	movlw	0
  6514  002860  2226               	addwfc	(___flmul@grs+2)^0,f,c
  6515  002862  0E00               	movlw	0
  6516  002864  2227               	addwfc	(___flmul@grs+3)^0,f,c
  6517  002866  501B               	movf	(___flmul@a+1)^0,w,c
  6518  002868  0216               	mulwf	___flmul@b^0,c
  6519  00286A  CFF3 F02D          	movff	prodl,___flmul@temp
  6520  00286E  CFF4 F02E          	movff	prodh,___flmul@temp+1
  6521  002872  502D               	movf	___flmul@temp^0,w,c
  6522  002874  2624               	addwf	___flmul@grs^0,f,c
  6523  002876  502E               	movf	(___flmul@temp+1)^0,w,c
  6524  002878  2225               	addwfc	(___flmul@grs+1)^0,f,c
  6525  00287A  0E00               	movlw	0
  6526  00287C  2226               	addwfc	(___flmul@grs+2)^0,f,c
  6527  00287E  0E00               	movlw	0
  6528  002880  2227               	addwfc	(___flmul@grs+3)^0,f,c
  6529  002882  C026  F027         	movff	___flmul@grs+2,___flmul@grs+3
  6530  002886  C025  F026         	movff	___flmul@grs+1,___flmul@grs+2
  6531  00288A  C024  F025         	movff	___flmul@grs,___flmul@grs+1
  6532  00288E  6A24               	clrf	___flmul@grs^0,c
  6533  002890  501A               	movf	___flmul@a^0,w,c
  6534  002892  0216               	mulwf	___flmul@b^0,c
  6535  002894  CFF3 F02D          	movff	prodl,___flmul@temp
  6536  002898  CFF4 F02E          	movff	prodh,___flmul@temp+1
  6537  00289C  502D               	movf	___flmul@temp^0,w,c
  6538  00289E  2624               	addwf	___flmul@grs^0,f,c
  6539  0028A0  502E               	movf	(___flmul@temp+1)^0,w,c
  6540  0028A2  2225               	addwfc	(___flmul@grs+1)^0,f,c
  6541  0028A4  0E00               	movlw	0
  6542  0028A6  2226               	addwfc	(___flmul@grs+2)^0,f,c
  6543  0028A8  0E00               	movlw	0
  6544  0028AA  2227               	addwfc	(___flmul@grs+3)^0,f,c
  6545  0028AC  501C               	movf	(___flmul@a+2)^0,w,c
  6546  0028AE  0217               	mulwf	(___flmul@b+1)^0,c
  6547  0028B0  CFF3 F02D          	movff	prodl,___flmul@temp
  6548  0028B4  CFF4 F02E          	movff	prodh,___flmul@temp+1
  6549  0028B8  502D               	movf	___flmul@temp^0,w,c
  6550  0028BA  2629               	addwf	___flmul@prod^0,f,c
  6551  0028BC  502E               	movf	(___flmul@temp+1)^0,w,c
  6552  0028BE  222A               	addwfc	(___flmul@prod+1)^0,f,c
  6553  0028C0  0E00               	movlw	0
  6554  0028C2  222B               	addwfc	(___flmul@prod+2)^0,f,c
  6555  0028C4  0E00               	movlw	0
  6556  0028C6  222C               	addwfc	(___flmul@prod+3)^0,f,c
  6557  0028C8  501B               	movf	(___flmul@a+1)^0,w,c
  6558  0028CA  0218               	mulwf	(___flmul@b+2)^0,c
  6559  0028CC  CFF3 F02D          	movff	prodl,___flmul@temp
  6560  0028D0  CFF4 F02E          	movff	prodh,___flmul@temp+1
  6561  0028D4  502D               	movf	___flmul@temp^0,w,c
  6562  0028D6  2629               	addwf	___flmul@prod^0,f,c
  6563  0028D8  502E               	movf	(___flmul@temp+1)^0,w,c
  6564  0028DA  222A               	addwfc	(___flmul@prod+1)^0,f,c
  6565  0028DC  0E00               	movlw	0
  6566  0028DE  222B               	addwfc	(___flmul@prod+2)^0,f,c
  6567  0028E0  0E00               	movlw	0
  6568  0028E2  222C               	addwfc	(___flmul@prod+3)^0,f,c
  6569  0028E4  501C               	movf	(___flmul@a+2)^0,w,c
  6570  0028E6  0218               	mulwf	(___flmul@b+2)^0,c
  6571  0028E8  CFF3 F02D          	movff	prodl,___flmul@temp
  6572  0028EC  CFF4 F02E          	movff	prodh,___flmul@temp+1
  6573  0028F0  502D               	movf	___flmul@temp^0,w,c
  6574  0028F2  6E1E               	movwf	??___flmul^0,c
  6575  0028F4  502E               	movf	(___flmul@temp+1)^0,w,c
  6576  0028F6  6E1F               	movwf	(??___flmul+1)^0,c
  6577  0028F8  6A20               	clrf	(??___flmul+2)^0,c
  6578  0028FA  6A21               	clrf	(??___flmul+3)^0,c
  6579  0028FC  C020  F021         	movff	??___flmul+2,??___flmul+3
  6580  002900  C01F  F020         	movff	??___flmul+1,??___flmul+2
  6581  002904  C01E  F01F         	movff	??___flmul,??___flmul+1
  6582  002908  6A1E               	clrf	??___flmul^0,c
  6583  00290A  501E               	movf	??___flmul^0,w,c
  6584  00290C  2629               	addwf	___flmul@prod^0,f,c
  6585  00290E  501F               	movf	(??___flmul+1)^0,w,c
  6586  002910  222A               	addwfc	(___flmul@prod+1)^0,f,c
  6587  002912  5020               	movf	(??___flmul+2)^0,w,c
  6588  002914  222B               	addwfc	(___flmul@prod+2)^0,f,c
  6589  002916  5021               	movf	(??___flmul+3)^0,w,c
  6590  002918  222C               	addwfc	(___flmul@prod+3)^0,f,c
  6591  00291A  C024  F01E         	movff	___flmul@grs,??___flmul
  6592  00291E  C025  F01F         	movff	___flmul@grs+1,??___flmul+1
  6593  002922  C026  F020         	movff	___flmul@grs+2,??___flmul+2
  6594  002926  C027  F021         	movff	___flmul@grs+3,??___flmul+3
  6595  00292A  0E19               	movlw	25
  6596  00292C  EF9D  F014         	goto	u6860
  6597  002930                     u6865:
  6598  002930  90D8               	bcf	status,0,c
  6599  002932  3221               	rrcf	(??___flmul+3)^0,f,c
  6600  002934  3220               	rrcf	(??___flmul+2)^0,f,c
  6601  002936  321F               	rrcf	(??___flmul+1)^0,f,c
  6602  002938  321E               	rrcf	??___flmul^0,f,c
  6603  00293A                     u6860:
  6604  00293A  2EE8               	decfsz	wreg,f,c
  6605  00293C  EF98  F014         	goto	u6865
  6606  002940  501E               	movf	??___flmul^0,w,c
  6607  002942  2629               	addwf	___flmul@prod^0,f,c
  6608  002944  501F               	movf	(??___flmul+1)^0,w,c
  6609  002946  222A               	addwfc	(___flmul@prod+1)^0,f,c
  6610  002948  5020               	movf	(??___flmul+2)^0,w,c
  6611  00294A  222B               	addwfc	(___flmul@prod+2)^0,f,c
  6612  00294C  5021               	movf	(??___flmul+3)^0,w,c
  6613  00294E  222C               	addwfc	(___flmul@prod+3)^0,f,c
  6614  002950  C026  F027         	movff	___flmul@grs+2,___flmul@grs+3
  6615  002954  C025  F026         	movff	___flmul@grs+1,___flmul@grs+2
  6616  002958  C024  F025         	movff	___flmul@grs,___flmul@grs+1
  6617  00295C  6A24               	clrf	___flmul@grs^0,c
  6618  00295E  5023               	movf	___flmul@aexp^0,w,c
  6619  002960  C028  F01E         	movff	___flmul@bexp,??___flmul
  6620  002964  6A1F               	clrf	(??___flmul+1)^0,c
  6621  002966  261E               	addwf	??___flmul^0,f,c
  6622  002968  0E00               	movlw	0
  6623  00296A  221F               	addwfc	(??___flmul+1)^0,f,c
  6624  00296C  0E82               	movlw	130
  6625  00296E  241E               	addwf	??___flmul^0,w,c
  6626  002970  6E2D               	movwf	___flmul@temp^0,c
  6627  002972  0EFF               	movlw	255
  6628  002974  201F               	addwfc	(??___flmul+1)^0,w,c
  6629  002976  6E2E               	movwf	(___flmul@temp+1)^0,c
  6630  002978  EFD3  F014         	goto	l5731
  6631  00297C                     l5725:
  6632  00297C  90D8               	bcf	status,0,c
  6633  00297E  3629               	rlcf	___flmul@prod^0,f,c
  6634  002980  362A               	rlcf	(___flmul@prod+1)^0,f,c
  6635  002982  362B               	rlcf	(___flmul@prod+2)^0,f,c
  6636  002984  362C               	rlcf	(___flmul@prod+3)^0,f,c
  6637  002986  AE27               	btfss	(___flmul@grs+3)^0,7,c
  6638  002988  EFC8  F014         	goto	u6871
  6639  00298C  EFCA  F014         	goto	u6870
  6640  002990                     u6871:
  6641  002990  EFCB  F014         	goto	l1274
  6642  002994                     u6870:
  6643  002994  8029               	bsf	___flmul@prod^0,0,c
  6644  002996                     l1274:
  6645  002996  90D8               	bcf	status,0,c
  6646  002998  3624               	rlcf	___flmul@grs^0,f,c
  6647  00299A  3625               	rlcf	(___flmul@grs+1)^0,f,c
  6648  00299C  3626               	rlcf	(___flmul@grs+2)^0,f,c
  6649  00299E  3627               	rlcf	(___flmul@grs+3)^0,f,c
  6650  0029A0  062D               	decf	___flmul@temp^0,f,c
  6651  0029A2  A0D8               	btfss	status,0,c
  6652  0029A4  062E               	decf	(___flmul@temp+1)^0,f,c
  6653  0029A6                     l5731:
  6654  0029A6  AE2B               	btfss	(___flmul@prod+2)^0,7,c
  6655  0029A8  EFD8  F014         	goto	u6881
  6656  0029AC  EFDA  F014         	goto	u6880
  6657  0029B0                     u6881:
  6658  0029B0  EFBE  F014         	goto	l5725
  6659  0029B4                     u6880:
  6660  0029B4  0E00               	movlw	0
  6661  0029B6  6E23               	movwf	___flmul@aexp^0,c
  6662  0029B8  AE27               	btfss	(___flmul@grs+3)^0,7,c
  6663  0029BA  EFE1  F014         	goto	u6891
  6664  0029BE  EFE3  F014         	goto	u6890
  6665  0029C2                     u6891:
  6666  0029C2  EF07  F015         	goto	l1276
  6667  0029C6                     u6890:
  6668  0029C6  0EFF               	movlw	255
  6669  0029C8  1424               	andwf	___flmul@grs^0,w,c
  6670  0029CA  6E1E               	movwf	??___flmul^0,c
  6671  0029CC  0EFF               	movlw	255
  6672  0029CE  1425               	andwf	(___flmul@grs+1)^0,w,c
  6673  0029D0  6E1F               	movwf	(??___flmul+1)^0,c
  6674  0029D2  0EFF               	movlw	255
  6675  0029D4  1426               	andwf	(___flmul@grs+2)^0,w,c
  6676  0029D6  6E20               	movwf	(??___flmul+2)^0,c
  6677  0029D8  0E7F               	movlw	127
  6678  0029DA  1427               	andwf	(___flmul@grs+3)^0,w,c
  6679  0029DC  6E21               	movwf	(??___flmul+3)^0,c
  6680  0029DE  501E               	movf	??___flmul^0,w,c
  6681  0029E0  101F               	iorwf	(??___flmul+1)^0,w,c
  6682  0029E2  1020               	iorwf	(??___flmul+2)^0,w,c
  6683  0029E4  1021               	iorwf	(??___flmul+3)^0,w,c
  6684  0029E6  B4D8               	btfsc	status,2,c
  6685  0029E8  EFF8  F014         	goto	u6901
  6686  0029EC  EFFA  F014         	goto	u6900
  6687  0029F0                     u6901:
  6688  0029F0  EFFE  F014         	goto	l1277
  6689  0029F4                     u6900:
  6690  0029F4                     l5739:
  6691  0029F4  0E01               	movlw	1
  6692  0029F6  6E23               	movwf	___flmul@aexp^0,c
  6693  0029F8  EF07  F015         	goto	l1276
  6694  0029FC                     l1277:
  6695  0029FC  A029               	btfss	___flmul@prod^0,0,c
  6696  0029FE  EF03  F015         	goto	u6911
  6697  002A02  EF05  F015         	goto	u6910
  6698  002A06                     u6911:
  6699  002A06  EF07  F015         	goto	l1276
  6700  002A0A                     u6910:
  6701  002A0A  EFFA  F014         	goto	l5739
  6702  002A0E                     l1276:
  6703  002A0E  5023               	movf	___flmul@aexp^0,w,c
  6704  002A10  B4D8               	btfsc	status,2,c
  6705  002A12  EF0D  F015         	goto	u6921
  6706  002A16  EF0F  F015         	goto	u6920
  6707  002A1A                     u6921:
  6708  002A1A  EF33  F015         	goto	l5751
  6709  002A1E                     u6920:
  6710  002A1E  0E01               	movlw	1
  6711  002A20  2629               	addwf	___flmul@prod^0,f,c
  6712  002A22  0E00               	movlw	0
  6713  002A24  222A               	addwfc	(___flmul@prod+1)^0,f,c
  6714  002A26  222B               	addwfc	(___flmul@prod+2)^0,f,c
  6715  002A28  222C               	addwfc	(___flmul@prod+3)^0,f,c
  6716  002A2A  A02C               	btfss	(___flmul@prod+3)^0,0,c
  6717  002A2C  EF1A  F015         	goto	u6931
  6718  002A30  EF1C  F015         	goto	u6930
  6719  002A34                     u6931:
  6720  002A34  EF33  F015         	goto	l5751
  6721  002A38                     u6930:
  6722  002A38  C029  F01E         	movff	___flmul@prod,??___flmul
  6723  002A3C  C02A  F01F         	movff	___flmul@prod+1,??___flmul+1
  6724  002A40  C02B  F020         	movff	___flmul@prod+2,??___flmul+2
  6725  002A44  C02C  F021         	movff	___flmul@prod+3,??___flmul+3
  6726  002A48  3421               	rlcf	(??___flmul+3)^0,w,c
  6727  002A4A  3221               	rrcf	(??___flmul+3)^0,f,c
  6728  002A4C  3220               	rrcf	(??___flmul+2)^0,f,c
  6729  002A4E  321F               	rrcf	(??___flmul+1)^0,f,c
  6730  002A50  321E               	rrcf	??___flmul^0,f,c
  6731  002A52  C01E  F029         	movff	??___flmul,___flmul@prod
  6732  002A56  C01F  F02A         	movff	??___flmul+1,___flmul@prod+1
  6733  002A5A  C020  F02B         	movff	??___flmul+2,___flmul@prod+2
  6734  002A5E  C021  F02C         	movff	??___flmul+3,___flmul@prod+3
  6735  002A62  4A2D               	infsnz	___flmul@temp^0,f,c
  6736  002A64  2A2E               	incf	(___flmul@temp+1)^0,f,c
  6737  002A66                     l5751:
  6738  002A66  BE2E               	btfsc	(___flmul@temp+1)^0,7,c
  6739  002A68  EF3E  F015         	goto	u6941
  6740  002A6C  502E               	movf	(___flmul@temp+1)^0,w,c
  6741  002A6E  E108               	bnz	u6940
  6742  002A70  282D               	incf	___flmul@temp^0,w,c
  6743  002A72  A0D8               	btfss	status,0,c
  6744  002A74  EF3E  F015         	goto	u6941
  6745  002A78  EF40  F015         	goto	u6940
  6746  002A7C                     u6941:
  6747  002A7C  EF4A  F015         	goto	l5755
  6748  002A80                     u6940:
  6749  002A80  0E00               	movlw	0
  6750  002A82  6E29               	movwf	___flmul@prod^0,c
  6751  002A84  0E00               	movlw	0
  6752  002A86  6E2A               	movwf	(___flmul@prod+1)^0,c
  6753  002A88  0E80               	movlw	128
  6754  002A8A  6E2B               	movwf	(___flmul@prod+2)^0,c
  6755  002A8C  0E7F               	movlw	127
  6756  002A8E  6E2C               	movwf	(___flmul@prod+3)^0,c
  6757  002A90  EF78  F015         	goto	l5767
  6758  002A94                     l5755:
  6759  002A94  BE2E               	btfsc	(___flmul@temp+1)^0,7,c
  6760  002A96  EF57  F015         	goto	u6950
  6761  002A9A  502E               	movf	(___flmul@temp+1)^0,w,c
  6762  002A9C  E106               	bnz	u6951
  6763  002A9E  042D               	decf	___flmul@temp^0,w,c
  6764  002AA0  B0D8               	btfsc	status,0,c
  6765  002AA2  EF55  F015         	goto	u6951
  6766  002AA6  EF57  F015         	goto	u6950
  6767  002AAA                     u6951:
  6768  002AAA  EF63  F015         	goto	l1284
  6769  002AAE                     u6950:
  6770  002AAE  0E00               	movlw	0
  6771  002AB0  6E29               	movwf	___flmul@prod^0,c
  6772  002AB2  0E00               	movlw	0
  6773  002AB4  6E2A               	movwf	(___flmul@prod+1)^0,c
  6774  002AB6  0E00               	movlw	0
  6775  002AB8  6E2B               	movwf	(___flmul@prod+2)^0,c
  6776  002ABA  0E00               	movlw	0
  6777  002ABC  6E2C               	movwf	(___flmul@prod+3)^0,c
  6778  002ABE  0E00               	movlw	0
  6779  002AC0  6E22               	movwf	___flmul@sign^0,c
  6780  002AC2  EF78  F015         	goto	l5767
  6781  002AC6                     l1284:
  6782  002AC6  C02D  F028         	movff	___flmul@temp,___flmul@bexp
  6783  002ACA  0EFF               	movlw	255
  6784  002ACC  1629               	andwf	___flmul@prod^0,f,c
  6785  002ACE  0EFF               	movlw	255
  6786  002AD0  162A               	andwf	(___flmul@prod+1)^0,f,c
  6787  002AD2  0E7F               	movlw	127
  6788  002AD4  162B               	andwf	(___flmul@prod+2)^0,f,c
  6789  002AD6  0E00               	movlw	0
  6790  002AD8  162C               	andwf	(___flmul@prod+3)^0,f,c
  6791  002ADA  A028               	btfss	___flmul@bexp^0,0,c
  6792  002ADC  EF72  F015         	goto	u6961
  6793  002AE0  EF74  F015         	goto	u6960
  6794  002AE4                     u6961:
  6795  002AE4  EF75  F015         	goto	l5765
  6796  002AE8                     u6960:
  6797  002AE8  8E2B               	bsf	(___flmul@prod+2)^0,7,c
  6798  002AEA                     l5765:
  6799  002AEA  90D8               	bcf	status,0,c
  6800  002AEC  3028               	rrcf	___flmul@bexp^0,w,c
  6801  002AEE  6E2C               	movwf	(___flmul@prod+3)^0,c
  6802  002AF0                     l5767:
  6803  002AF0  5022               	movf	___flmul@sign^0,w,c
  6804  002AF2  122C               	iorwf	(___flmul@prod+3)^0,f,c
  6805  002AF4  C029  F016         	movff	___flmul@prod,?___flmul
  6806  002AF8  C02A  F017         	movff	___flmul@prod+1,?___flmul+1
  6807  002AFC  C02B  F018         	movff	___flmul@prod+2,?___flmul+2
  6808  002B00  C02C  F019         	movff	___flmul@prod+3,?___flmul+3
  6809  002B04                     l1271:
  6810  002B04  0012               	return		;funcret
  6811  002B06                     __end_of___flmul:
  6812                           	opt callstack 0
  6813                           
  6814 ;; *************** function ___flge *****************
  6815 ;; Defined at:
  6816 ;;		line 4 in file "C:\Program Files (x86)\Microchip\xc8\v2.10\pic\sources\c99\common\flge.c"
  6817 ;; Parameters:    Size  Location     Type
  6818 ;;  ff1             4   46[COMRAM] unsigned char 
  6819 ;;  ff2             4   50[COMRAM] unsigned char 
  6820 ;; Auto vars:     Size  Location     Type
  6821 ;;		None
  6822 ;; Return value:  Size  Location     Type
  6823 ;;		None               void
  6824 ;; Registers used:
  6825 ;;		wreg, status,2, status,0
  6826 ;; Tracked objects:
  6827 ;;		On entry : 0/0
  6828 ;;		On exit  : 0/0
  6829 ;;		Unchanged: 0/0
  6830 ;; Data sizes:     COMRAM   BANK0   BANK1   BANK2   BANK3   BANK4   BANK5   BANK6   BANK7   BANK8   BANK9  BANK10  BANK1
      +1  BANK12  BANK13  BANK14  BANK15
  6831 ;;      Params:         8       0       0       0       0       0       0       0       0       0       0       0       
      +0       0       0       0       0
  6832 ;;      Locals:         0       0       0       0       0       0       0       0       0       0       0       0       
      +0       0       0       0       0
  6833 ;;      Temps:          4       0       0       0       0       0       0       0       0       0       0       0       
      +0       0       0       0       0
  6834 ;;      Totals:        12       0       0       0       0       0       0       0       0       0       0       0       
      +0       0       0       0       0
  6835 ;;Total ram usage:       12 bytes
  6836 ;; Hardware stack levels used:    1
  6837 ;; Hardware stack levels required when called:    3
  6838 ;; This function calls:
  6839 ;;		Nothing
  6840 ;; This function is called by:
  6841 ;;		_efgtoa
  6842 ;; This function uses a non-reentrant model
  6843 ;;
  6844                           
  6845                           	psect	text23
  6846  00397E                     __ptext23:
  6847                           	opt callstack 0
  6848  00397E                     ___flge:
  6849                           	opt callstack 23
  6850  00397E  0E00               	movlw	0
  6851  003980  142F               	andwf	___flge@ff1^0,w,c
  6852  003982  6E37               	movwf	??___flge^0,c
  6853  003984  0E00               	movlw	0
  6854  003986  1430               	andwf	(___flge@ff1+1)^0,w,c
  6855  003988  6E38               	movwf	(??___flge+1)^0,c
  6856  00398A  0E80               	movlw	128
  6857  00398C  1431               	andwf	(___flge@ff1+2)^0,w,c
  6858  00398E  6E39               	movwf	(??___flge+2)^0,c
  6859  003990  0E7F               	movlw	127
  6860  003992  1432               	andwf	(___flge@ff1+3)^0,w,c
  6861  003994  6E3A               	movwf	(??___flge+3)^0,c
  6862  003996  5037               	movf	??___flge^0,w,c
  6863  003998  1038               	iorwf	(??___flge+1)^0,w,c
  6864  00399A  1039               	iorwf	(??___flge+2)^0,w,c
  6865  00399C  103A               	iorwf	(??___flge+3)^0,w,c
  6866  00399E  A4D8               	btfss	status,2,c
  6867  0039A0  EFD4  F01C         	goto	u7121
  6868  0039A4  EFD6  F01C         	goto	u7120
  6869  0039A8                     u7121:
  6870  0039A8  EFDE  F01C         	goto	l5879
  6871  0039AC                     u7120:
  6872  0039AC  0E00               	movlw	0
  6873  0039AE  6E2F               	movwf	___flge@ff1^0,c
  6874  0039B0  0E00               	movlw	0
  6875  0039B2  6E30               	movwf	(___flge@ff1+1)^0,c
  6876  0039B4  0E00               	movlw	0
  6877  0039B6  6E31               	movwf	(___flge@ff1+2)^0,c
  6878  0039B8  0E00               	movlw	0
  6879  0039BA  6E32               	movwf	(___flge@ff1+3)^0,c
  6880  0039BC                     l5879:
  6881  0039BC  0E00               	movlw	0
  6882  0039BE  1433               	andwf	___flge@ff2^0,w,c
  6883  0039C0  6E37               	movwf	??___flge^0,c
  6884  0039C2  0E00               	movlw	0
  6885  0039C4  1434               	andwf	(___flge@ff2+1)^0,w,c
  6886  0039C6  6E38               	movwf	(??___flge+1)^0,c
  6887  0039C8  0E80               	movlw	128
  6888  0039CA  1435               	andwf	(___flge@ff2+2)^0,w,c
  6889  0039CC  6E39               	movwf	(??___flge+2)^0,c
  6890  0039CE  0E7F               	movlw	127
  6891  0039D0  1436               	andwf	(___flge@ff2+3)^0,w,c
  6892  0039D2  6E3A               	movwf	(??___flge+3)^0,c
  6893  0039D4  5037               	movf	??___flge^0,w,c
  6894  0039D6  1038               	iorwf	(??___flge+1)^0,w,c
  6895  0039D8  1039               	iorwf	(??___flge+2)^0,w,c
  6896  0039DA  103A               	iorwf	(??___flge+3)^0,w,c
  6897  0039DC  A4D8               	btfss	status,2,c
  6898  0039DE  EFF3  F01C         	goto	u7131
  6899  0039E2  EFF5  F01C         	goto	u7130
  6900  0039E6                     u7131:
  6901  0039E6  EFFD  F01C         	goto	l5883
  6902  0039EA                     u7130:
  6903  0039EA  0E00               	movlw	0
  6904  0039EC  6E33               	movwf	___flge@ff2^0,c
  6905  0039EE  0E00               	movlw	0
  6906  0039F0  6E34               	movwf	(___flge@ff2+1)^0,c
  6907  0039F2  0E00               	movlw	0
  6908  0039F4  6E35               	movwf	(___flge@ff2+2)^0,c
  6909  0039F6  0E00               	movlw	0
  6910  0039F8  6E36               	movwf	(___flge@ff2+3)^0,c
  6911  0039FA                     l5883:
  6912  0039FA  AE32               	btfss	(___flge@ff1+3)^0,7,c
  6913  0039FC  EF02  F01D         	goto	u7141
  6914  003A00  EF04  F01D         	goto	u7140
  6915  003A04                     u7141:
  6916  003A04  EF0D  F01D         	goto	l5887
  6917  003A08                     u7140:
  6918  003A08  6C2F               	negf	___flge@ff1^0,c
  6919  003A0A  1E30               	comf	(___flge@ff1+1)^0,f,c
  6920  003A0C  B0D8               	btfsc	status,0,c
  6921  003A0E  2A30               	incf	(___flge@ff1+1)^0,f,c
  6922  003A10  1E31               	comf	(___flge@ff1+2)^0,f,c
  6923  003A12  B0D8               	btfsc	status,0,c
  6924  003A14  2A31               	incf	(___flge@ff1+2)^0,f,c
  6925  003A16  0E80               	movlw	128
  6926  003A18  5632               	subfwb	(___flge@ff1+3)^0,f,c
  6927  003A1A                     l5887:
  6928  003A1A  AE36               	btfss	(___flge@ff2+3)^0,7,c
  6929  003A1C  EF12  F01D         	goto	u7151
  6930  003A20  EF14  F01D         	goto	u7150
  6931  003A24                     u7151:
  6932  003A24  EF1D  F01D         	goto	l918
  6933  003A28                     u7150:
  6934  003A28  6C33               	negf	___flge@ff2^0,c
  6935  003A2A  1E34               	comf	(___flge@ff2+1)^0,f,c
  6936  003A2C  B0D8               	btfsc	status,0,c
  6937  003A2E  2A34               	incf	(___flge@ff2+1)^0,f,c
  6938  003A30  1E35               	comf	(___flge@ff2+2)^0,f,c
  6939  003A32  B0D8               	btfsc	status,0,c
  6940  003A34  2A35               	incf	(___flge@ff2+2)^0,f,c
  6941  003A36  0E80               	movlw	128
  6942  003A38  5636               	subfwb	(___flge@ff2+3)^0,f,c
  6943  003A3A                     l918:
  6944  003A3A  0E00               	movlw	0
  6945  003A3C  1A2F               	xorwf	___flge@ff1^0,f,c
  6946  003A3E  0E00               	movlw	0
  6947  003A40  1A30               	xorwf	(___flge@ff1+1)^0,f,c
  6948  003A42  0E00               	movlw	0
  6949  003A44  1A31               	xorwf	(___flge@ff1+2)^0,f,c
  6950  003A46  0E80               	movlw	128
  6951  003A48  1A32               	xorwf	(___flge@ff1+3)^0,f,c
  6952  003A4A  0E00               	movlw	0
  6953  003A4C  1A33               	xorwf	___flge@ff2^0,f,c
  6954  003A4E  0E00               	movlw	0
  6955  003A50  1A34               	xorwf	(___flge@ff2+1)^0,f,c
  6956  003A52  0E00               	movlw	0
  6957  003A54  1A35               	xorwf	(___flge@ff2+2)^0,f,c
  6958  003A56  0E80               	movlw	128
  6959  003A58  1A36               	xorwf	(___flge@ff2+3)^0,f,c
  6960  003A5A  5033               	movf	___flge@ff2^0,w,c
  6961  003A5C  5C2F               	subwf	___flge@ff1^0,w,c
  6962  003A5E  5034               	movf	(___flge@ff2+1)^0,w,c
  6963  003A60  5830               	subwfb	(___flge@ff1+1)^0,w,c
  6964  003A62  5035               	movf	(___flge@ff2+2)^0,w,c
  6965  003A64  5831               	subwfb	(___flge@ff1+2)^0,w,c
  6966  003A66  5036               	movf	(___flge@ff2+3)^0,w,c
  6967  003A68  5832               	subwfb	(___flge@ff1+3)^0,w,c
  6968  003A6A  B0D8               	btfsc	status,0,c
  6969  003A6C  EF3A  F01D         	goto	u7161
  6970  003A70  EF3C  F01D         	goto	u7160
  6971  003A74                     u7161:
  6972  003A74  EF3F  F01D         	goto	l5893
  6973  003A78                     u7160:
  6974  003A78  90D8               	bcf	status,0,c
  6975  003A7A  EF40  F01D         	goto	l923
  6976  003A7E                     l5893:
  6977  003A7E  80D8               	bsf	status,0,c
  6978  003A80                     l923:
  6979  003A80  0012               	return		;funcret
  6980  003A82                     __end_of___flge:
  6981                           	opt callstack 0
  6982                           
  6983 ;; *************** function ___fleq *****************
  6984 ;; Defined at:
  6985 ;;		line 4 in file "C:\Program Files (x86)\Microchip\xc8\v2.10\pic\sources\c99\common\fleq.c"
  6986 ;; Parameters:    Size  Location     Type
  6987 ;;  ff1             4    7[COMRAM] unsigned char 
  6988 ;;  ff2             4   11[COMRAM] unsigned char 
  6989 ;; Auto vars:     Size  Location     Type
  6990 ;;		None
  6991 ;; Return value:  Size  Location     Type
  6992 ;;		None               void
  6993 ;; Registers used:
  6994 ;;		wreg, status,2, status,0
  6995 ;; Tracked objects:
  6996 ;;		On entry : 0/0
  6997 ;;		On exit  : 0/0
  6998 ;;		Unchanged: 0/0
  6999 ;; Data sizes:     COMRAM   BANK0   BANK1   BANK2   BANK3   BANK4   BANK5   BANK6   BANK7   BANK8   BANK9  BANK10  BANK1
      +1  BANK12  BANK13  BANK14  BANK15
  7000 ;;      Params:         8       0       0       0       0       0       0       0       0       0       0       0       
      +0       0       0       0       0
  7001 ;;      Locals:         0       0       0       0       0       0       0       0       0       0       0       0       
      +0       0       0       0       0
  7002 ;;      Temps:          4       0       0       0       0       0       0       0       0       0       0       0       
      +0       0       0       0       0
  7003 ;;      Totals:        12       0       0       0       0       0       0       0       0       0       0       0       
      +0       0       0       0       0
  7004 ;;Total ram usage:       12 bytes
  7005 ;; Hardware stack levels used:    1
  7006 ;; Hardware stack levels required when called:    3
  7007 ;; This function calls:
  7008 ;;		Nothing
  7009 ;; This function is called by:
  7010 ;;		_efgtoa
  7011 ;; This function uses a non-reentrant model
  7012 ;;
  7013                           
  7014                           	psect	text24
  7015  003F5C                     __ptext24:
  7016                           	opt callstack 0
  7017  003F5C                     ___fleq:
  7018                           	opt callstack 23
  7019  003F5C  0E00               	movlw	0
  7020  003F5E  1408               	andwf	___fleq@ff1^0,w,c
  7021  003F60  6E10               	movwf	??___fleq^0,c
  7022  003F62  0E00               	movlw	0
  7023  003F64  1409               	andwf	(___fleq@ff1+1)^0,w,c
  7024  003F66  6E11               	movwf	(??___fleq+1)^0,c
  7025  003F68  0E80               	movlw	128
  7026  003F6A  140A               	andwf	(___fleq@ff1+2)^0,w,c
  7027  003F6C  6E12               	movwf	(??___fleq+2)^0,c
  7028  003F6E  0E7F               	movlw	127
  7029  003F70  140B               	andwf	(___fleq@ff1+3)^0,w,c
  7030  003F72  6E13               	movwf	(??___fleq+3)^0,c
  7031  003F74  5010               	movf	??___fleq^0,w,c
  7032  003F76  1011               	iorwf	(??___fleq+1)^0,w,c
  7033  003F78  1012               	iorwf	(??___fleq+2)^0,w,c
  7034  003F7A  1013               	iorwf	(??___fleq+3)^0,w,c
  7035  003F7C  A4D8               	btfss	status,2,c
  7036  003F7E  EFC3  F01F         	goto	u7091
  7037  003F82  EFC5  F01F         	goto	u7090
  7038  003F86                     u7091:
  7039  003F86  EFCD  F01F         	goto	l5863
  7040  003F8A                     u7090:
  7041  003F8A  0E00               	movlw	0
  7042  003F8C  6E08               	movwf	___fleq@ff1^0,c
  7043  003F8E  0E00               	movlw	0
  7044  003F90  6E09               	movwf	(___fleq@ff1+1)^0,c
  7045  003F92  0E00               	movlw	0
  7046  003F94  6E0A               	movwf	(___fleq@ff1+2)^0,c
  7047  003F96  0E00               	movlw	0
  7048  003F98  6E0B               	movwf	(___fleq@ff1+3)^0,c
  7049  003F9A                     l5863:
  7050  003F9A  0E00               	movlw	0
  7051  003F9C  140C               	andwf	___fleq@ff2^0,w,c
  7052  003F9E  6E10               	movwf	??___fleq^0,c
  7053  003FA0  0E00               	movlw	0
  7054  003FA2  140D               	andwf	(___fleq@ff2+1)^0,w,c
  7055  003FA4  6E11               	movwf	(??___fleq+1)^0,c
  7056  003FA6  0E80               	movlw	128
  7057  003FA8  140E               	andwf	(___fleq@ff2+2)^0,w,c
  7058  003FAA  6E12               	movwf	(??___fleq+2)^0,c
  7059  003FAC  0E7F               	movlw	127
  7060  003FAE  140F               	andwf	(___fleq@ff2+3)^0,w,c
  7061  003FB0  6E13               	movwf	(??___fleq+3)^0,c
  7062  003FB2  5010               	movf	??___fleq^0,w,c
  7063  003FB4  1011               	iorwf	(??___fleq+1)^0,w,c
  7064  003FB6  1012               	iorwf	(??___fleq+2)^0,w,c
  7065  003FB8  1013               	iorwf	(??___fleq+3)^0,w,c
  7066  003FBA  A4D8               	btfss	status,2,c
  7067  003FBC  EFE2  F01F         	goto	u7101
  7068  003FC0  EFE4  F01F         	goto	u7100
  7069  003FC4                     u7101:
  7070  003FC4  EFEC  F01F         	goto	l5867
  7071  003FC8                     u7100:
  7072  003FC8  0E00               	movlw	0
  7073  003FCA  6E0C               	movwf	___fleq@ff2^0,c
  7074  003FCC  0E00               	movlw	0
  7075  003FCE  6E0D               	movwf	(___fleq@ff2+1)^0,c
  7076  003FD0  0E00               	movlw	0
  7077  003FD2  6E0E               	movwf	(___fleq@ff2+2)^0,c
  7078  003FD4  0E00               	movlw	0
  7079  003FD6  6E0F               	movwf	(___fleq@ff2+3)^0,c
  7080  003FD8                     l5867:
  7081  003FD8  500C               	movf	___fleq@ff2^0,w,c
  7082  003FDA  1808               	xorwf	___fleq@ff1^0,w,c
  7083  003FDC  E10F               	bnz	u7110
  7084  003FDE  500D               	movf	(___fleq@ff2+1)^0,w,c
  7085  003FE0  1809               	xorwf	(___fleq@ff1+1)^0,w,c
  7086  003FE2  E10C               	bnz	u7110
  7087  003FE4  500E               	movf	(___fleq@ff2+2)^0,w,c
  7088  003FE6  180A               	xorwf	(___fleq@ff1+2)^0,w,c
  7089  003FE8  E109               	bnz	u7110
  7090  003FEA  500F               	movf	(___fleq@ff2+3)^0,w,c
  7091  003FEC  180B               	xorwf	(___fleq@ff1+3)^0,w,c
  7092  003FEE  B4D8               	btfsc	status,2,c
  7093  003FF0  EFFC  F01F         	goto	u7111
  7094  003FF4  EFFE  F01F         	goto	u7110
  7095  003FF8                     u7111:
  7096  003FF8  EF01  F020         	goto	l5871
  7097  003FFC                     u7110:
  7098  003FFC  90D8               	bcf	status,0,c
  7099  003FFE  EF02  F020         	goto	l912
  7100  004002                     l5871:
  7101  004002  80D8               	bsf	status,0,c
  7102  004004                     l912:
  7103  004004  0012               	return		;funcret
  7104  004006                     __end_of___fleq:
  7105                           	opt callstack 0
  7106                           
  7107 ;; *************** function ___fldiv *****************
  7108 ;; Defined at:
  7109 ;;		line 11 in file "C:\Program Files (x86)\Microchip\xc8\v2.10\pic\sources\c99\common\sprcdiv.c"
  7110 ;; Parameters:    Size  Location     Type
  7111 ;;  b               4   46[COMRAM] unsigned char 
  7112 ;;  a               4   50[COMRAM] unsigned char 
  7113 ;; Auto vars:     Size  Location     Type
  7114 ;;  grs             4   65[COMRAM] unsigned long 
  7115 ;;  rem             4   58[COMRAM] unsigned long 
  7116 ;;  new_exp         2   63[COMRAM] short 
  7117 ;;  aexp            1   70[COMRAM] unsigned char 
  7118 ;;  bexp            1   69[COMRAM] unsigned char 
  7119 ;;  sign            1   62[COMRAM] unsigned char 
  7120 ;; Return value:  Size  Location     Type
  7121 ;;                  4   46[COMRAM] unsigned char 
  7122 ;; Registers used:
  7123 ;;		wreg, status,2, status,0
  7124 ;; Tracked objects:
  7125 ;;		On entry : 0/0
  7126 ;;		On exit  : 0/0
  7127 ;;		Unchanged: 0/0
  7128 ;; Data sizes:     COMRAM   BANK0   BANK1   BANK2   BANK3   BANK4   BANK5   BANK6   BANK7   BANK8   BANK9  BANK10  BANK1
      +1  BANK12  BANK13  BANK14  BANK15
  7129 ;;      Params:         8       0       0       0       0       0       0       0       0       0       0       0       
      +0       0       0       0       0
  7130 ;;      Locals:        13       0       0       0       0       0       0       0       0       0       0       0       
      +0       0       0       0       0
  7131 ;;      Temps:          4       0       0       0       0       0       0       0       0       0       0       0       
      +0       0       0       0       0
  7132 ;;      Totals:        25       0       0       0       0       0       0       0       0       0       0       0       
      +0       0       0       0       0
  7133 ;;Total ram usage:       25 bytes
  7134 ;; Hardware stack levels used:    1
  7135 ;; Hardware stack levels required when called:    3
  7136 ;; This function calls:
  7137 ;;		Nothing
  7138 ;; This function is called by:
  7139 ;;		_main
  7140 ;;		_efgtoa
  7141 ;; This function uses a non-reentrant model
  7142 ;;
  7143                           
  7144                           	psect	text25
  7145  002B06                     __ptext25:
  7146                           	opt callstack 0
  7147  002B06                     ___fldiv:
  7148                           	opt callstack 23
  7149  002B06  5032               	movf	(___fldiv@b+3)^0,w,c
  7150  002B08  0B80               	andlw	128
  7151  002B0A  6E3F               	movwf	___fldiv@sign^0,c
  7152  002B0C  5032               	movf	(___fldiv@b+3)^0,w,c
  7153  002B0E  2432               	addwf	(___fldiv@b+3)^0,w,c
  7154  002B10  6E46               	movwf	___fldiv@bexp^0,c
  7155  002B12  AE31               	btfss	(___fldiv@b+2)^0,7,c
  7156  002B14  EF8E  F015         	goto	u6551
  7157  002B18  EF90  F015         	goto	u6550
  7158  002B1C                     u6551:
  7159  002B1C  EF91  F015         	goto	l5511
  7160  002B20                     u6550:
  7161  002B20  8046               	bsf	___fldiv@bexp^0,0,c
  7162  002B22                     l5511:
  7163  002B22  5046               	movf	___fldiv@bexp^0,w,c
  7164  002B24  B4D8               	btfsc	status,2,c
  7165  002B26  EF97  F015         	goto	u6561
  7166  002B2A  EF99  F015         	goto	u6560
  7167  002B2E                     u6561:
  7168  002B2E  EFAE  F015         	goto	l5521
  7169  002B32                     u6560:
  7170  002B32  2846               	incf	___fldiv@bexp^0,w,c
  7171  002B34  A4D8               	btfss	status,2,c
  7172  002B36  EF9F  F015         	goto	u6571
  7173  002B3A  EFA1  F015         	goto	u6570
  7174  002B3E                     u6571:
  7175  002B3E  EFA9  F015         	goto	l5517
  7176  002B42                     u6570:
  7177  002B42  0E00               	movlw	0
  7178  002B44  6E2F               	movwf	___fldiv@b^0,c
  7179  002B46  0E00               	movlw	0
  7180  002B48  6E30               	movwf	(___fldiv@b+1)^0,c
  7181  002B4A  0E00               	movlw	0
  7182  002B4C  6E31               	movwf	(___fldiv@b+2)^0,c
  7183  002B4E  0E00               	movlw	0
  7184  002B50  6E32               	movwf	(___fldiv@b+3)^0,c
  7185  002B52                     l5517:
  7186  002B52  8E31               	bsf	(___fldiv@b+2)^0,7,c
  7187  002B54  0E00               	movlw	0
  7188  002B56  6E32               	movwf	(___fldiv@b+3)^0,c
  7189  002B58  EFB6  F015         	goto	l5523
  7190  002B5C                     l5521:
  7191  002B5C  0E00               	movlw	0
  7192  002B5E  6E2F               	movwf	___fldiv@b^0,c
  7193  002B60  0E00               	movlw	0
  7194  002B62  6E30               	movwf	(___fldiv@b+1)^0,c
  7195  002B64  0E00               	movlw	0
  7196  002B66  6E31               	movwf	(___fldiv@b+2)^0,c
  7197  002B68  0E00               	movlw	0
  7198  002B6A  6E32               	movwf	(___fldiv@b+3)^0,c
  7199  002B6C                     l5523:
  7200  002B6C  5036               	movf	(___fldiv@a+3)^0,w,c
  7201  002B6E  0B80               	andlw	128
  7202  002B70  1A3F               	xorwf	___fldiv@sign^0,f,c
  7203  002B72  5036               	movf	(___fldiv@a+3)^0,w,c
  7204  002B74  2436               	addwf	(___fldiv@a+3)^0,w,c
  7205  002B76  6E47               	movwf	___fldiv@aexp^0,c
  7206  002B78  AE35               	btfss	(___fldiv@a+2)^0,7,c
  7207  002B7A  EFC1  F015         	goto	u6581
  7208  002B7E  EFC3  F015         	goto	u6580
  7209  002B82                     u6581:
  7210  002B82  EFC4  F015         	goto	l5531
  7211  002B86                     u6580:
  7212  002B86  8047               	bsf	___fldiv@aexp^0,0,c
  7213  002B88                     l5531:
  7214  002B88  5047               	movf	___fldiv@aexp^0,w,c
  7215  002B8A  B4D8               	btfsc	status,2,c
  7216  002B8C  EFCA  F015         	goto	u6591
  7217  002B90  EFCC  F015         	goto	u6590
  7218  002B94                     u6591:
  7219  002B94  EFE1  F015         	goto	l5541
  7220  002B98                     u6590:
  7221  002B98  2847               	incf	___fldiv@aexp^0,w,c
  7222  002B9A  A4D8               	btfss	status,2,c
  7223  002B9C  EFD2  F015         	goto	u6601
  7224  002BA0  EFD4  F015         	goto	u6600
  7225  002BA4                     u6601:
  7226  002BA4  EFDC  F015         	goto	l5537
  7227  002BA8                     u6600:
  7228  002BA8  0E00               	movlw	0
  7229  002BAA  6E33               	movwf	___fldiv@a^0,c
  7230  002BAC  0E00               	movlw	0
  7231  002BAE  6E34               	movwf	(___fldiv@a+1)^0,c
  7232  002BB0  0E00               	movlw	0
  7233  002BB2  6E35               	movwf	(___fldiv@a+2)^0,c
  7234  002BB4  0E00               	movlw	0
  7235  002BB6  6E36               	movwf	(___fldiv@a+3)^0,c
  7236  002BB8                     l5537:
  7237  002BB8  8E35               	bsf	(___fldiv@a+2)^0,7,c
  7238  002BBA  0E00               	movlw	0
  7239  002BBC  6E36               	movwf	(___fldiv@a+3)^0,c
  7240  002BBE  EFE9  F015         	goto	l5543
  7241  002BC2                     l5541:
  7242  002BC2  0E00               	movlw	0
  7243  002BC4  6E33               	movwf	___fldiv@a^0,c
  7244  002BC6  0E00               	movlw	0
  7245  002BC8  6E34               	movwf	(___fldiv@a+1)^0,c
  7246  002BCA  0E00               	movlw	0
  7247  002BCC  6E35               	movwf	(___fldiv@a+2)^0,c
  7248  002BCE  0E00               	movlw	0
  7249  002BD0  6E36               	movwf	(___fldiv@a+3)^0,c
  7250  002BD2                     l5543:
  7251  002BD2  5033               	movf	___fldiv@a^0,w,c
  7252  002BD4  1034               	iorwf	(___fldiv@a+1)^0,w,c
  7253  002BD6  1035               	iorwf	(___fldiv@a+2)^0,w,c
  7254  002BD8  1036               	iorwf	(___fldiv@a+3)^0,w,c
  7255  002BDA  A4D8               	btfss	status,2,c
  7256  002BDC  EFF2  F015         	goto	u6611
  7257  002BE0  EFF4  F015         	goto	u6610
  7258  002BE4                     u6611:
  7259  002BE4  EF0C  F016         	goto	l5555
  7260  002BE8                     u6610:
  7261  002BE8  0E00               	movlw	0
  7262  002BEA  6E2F               	movwf	___fldiv@b^0,c
  7263  002BEC  0E00               	movlw	0
  7264  002BEE  6E30               	movwf	(___fldiv@b+1)^0,c
  7265  002BF0  0E00               	movlw	0
  7266  002BF2  6E31               	movwf	(___fldiv@b+2)^0,c
  7267  002BF4  0E00               	movlw	0
  7268  002BF6  6E32               	movwf	(___fldiv@b+3)^0,c
  7269  002BF8  0E80               	movlw	128
  7270  002BFA  1231               	iorwf	(___fldiv@b+2)^0,f,c
  7271  002BFC  0E7F               	movlw	127
  7272  002BFE  1232               	iorwf	(___fldiv@b+3)^0,f,c
  7273  002C00                     l5549:
  7274  002C00  503F               	movf	___fldiv@sign^0,w,c
  7275  002C02  1232               	iorwf	(___fldiv@b+3)^0,f,c
  7276  002C04  C02F  F02F         	movff	___fldiv@b,?___fldiv
  7277  002C08  C030  F030         	movff	___fldiv@b+1,?___fldiv+1
  7278  002C0C  C031  F031         	movff	___fldiv@b+2,?___fldiv+2
  7279  002C10  C032  F032         	movff	___fldiv@b+3,?___fldiv+3
  7280  002C14  EF4F  F017         	goto	l1235
  7281  002C18                     l5555:
  7282  002C18  5046               	movf	___fldiv@bexp^0,w,c
  7283  002C1A  A4D8               	btfss	status,2,c
  7284  002C1C  EF12  F016         	goto	u6621
  7285  002C20  EF14  F016         	goto	u6620
  7286  002C24                     u6621:
  7287  002C24  EF1E  F016         	goto	l5563
  7288  002C28                     u6620:
  7289  002C28  0E00               	movlw	0
  7290  002C2A  6E2F               	movwf	?___fldiv^0,c
  7291  002C2C  0E00               	movlw	0
  7292  002C2E  6E30               	movwf	(?___fldiv+1)^0,c
  7293  002C30  0E00               	movlw	0
  7294  002C32  6E31               	movwf	(?___fldiv+2)^0,c
  7295  002C34  0E00               	movlw	0
  7296  002C36  6E32               	movwf	(?___fldiv+3)^0,c
  7297  002C38  EF4F  F017         	goto	l1235
  7298  002C3C                     l5563:
  7299  002C3C  5047               	movf	___fldiv@aexp^0,w,c
  7300  002C3E  C046  F037         	movff	___fldiv@bexp,??___fldiv
  7301  002C42  6A38               	clrf	(??___fldiv+1)^0,c
  7302  002C44  5E37               	subwf	??___fldiv^0,f,c
  7303  002C46  0E00               	movlw	0
  7304  002C48  5A38               	subwfb	(??___fldiv+1)^0,f,c
  7305  002C4A  0E7F               	movlw	127
  7306  002C4C  2437               	addwf	??___fldiv^0,w,c
  7307  002C4E  6E40               	movwf	___fldiv@new_exp^0,c
  7308  002C50  0E00               	movlw	0
  7309  002C52  2038               	addwfc	(??___fldiv+1)^0,w,c
  7310  002C54  6E41               	movwf	(___fldiv@new_exp+1)^0,c
  7311  002C56  C02F  F03B         	movff	___fldiv@b,___fldiv@rem
  7312  002C5A  C030  F03C         	movff	___fldiv@b+1,___fldiv@rem+1
  7313  002C5E  C031  F03D         	movff	___fldiv@b+2,___fldiv@rem+2
  7314  002C62  C032  F03E         	movff	___fldiv@b+3,___fldiv@rem+3
  7315  002C66  0E00               	movlw	0
  7316  002C68  6E2F               	movwf	___fldiv@b^0,c
  7317  002C6A  0E00               	movlw	0
  7318  002C6C  6E30               	movwf	(___fldiv@b+1)^0,c
  7319  002C6E  0E00               	movlw	0
  7320  002C70  6E31               	movwf	(___fldiv@b+2)^0,c
  7321  002C72  0E00               	movlw	0
  7322  002C74  6E32               	movwf	(___fldiv@b+3)^0,c
  7323  002C76  0E00               	movlw	0
  7324  002C78  6E42               	movwf	___fldiv@grs^0,c
  7325  002C7A  0E00               	movlw	0
  7326  002C7C  6E43               	movwf	(___fldiv@grs+1)^0,c
  7327  002C7E  0E00               	movlw	0
  7328  002C80  6E44               	movwf	(___fldiv@grs+2)^0,c
  7329  002C82  0E00               	movlw	0
  7330  002C84  6E45               	movwf	(___fldiv@grs+3)^0,c
  7331  002C86  0E00               	movlw	0
  7332  002C88  6E47               	movwf	___fldiv@aexp^0,c
  7333  002C8A  EF7F  F016         	goto	l1237
  7334  002C8E                     l5573:
  7335  002C8E  5047               	movf	___fldiv@aexp^0,w,c
  7336  002C90  B4D8               	btfsc	status,2,c
  7337  002C92  EF4D  F016         	goto	u6631
  7338  002C96  EF4F  F016         	goto	u6630
  7339  002C9A                     u6631:
  7340  002C9A  EF66  F016         	goto	l5581
  7341  002C9E                     u6630:
  7342  002C9E  90D8               	bcf	status,0,c
  7343  002CA0  363B               	rlcf	___fldiv@rem^0,f,c
  7344  002CA2  363C               	rlcf	(___fldiv@rem+1)^0,f,c
  7345  002CA4  363D               	rlcf	(___fldiv@rem+2)^0,f,c
  7346  002CA6  363E               	rlcf	(___fldiv@rem+3)^0,f,c
  7347  002CA8  90D8               	bcf	status,0,c
  7348  002CAA  362F               	rlcf	___fldiv@b^0,f,c
  7349  002CAC  3630               	rlcf	(___fldiv@b+1)^0,f,c
  7350  002CAE  3631               	rlcf	(___fldiv@b+2)^0,f,c
  7351  002CB0  3632               	rlcf	(___fldiv@b+3)^0,f,c
  7352  002CB2  AE45               	btfss	(___fldiv@grs+3)^0,7,c
  7353  002CB4  EF5E  F016         	goto	u6641
  7354  002CB8  EF60  F016         	goto	u6640
  7355  002CBC                     u6641:
  7356  002CBC  EF61  F016         	goto	l1240
  7357  002CC0                     u6640:
  7358  002CC0  802F               	bsf	___fldiv@b^0,0,c
  7359  002CC2                     l1240:
  7360  002CC2  90D8               	bcf	status,0,c
  7361  002CC4  3642               	rlcf	___fldiv@grs^0,f,c
  7362  002CC6  3643               	rlcf	(___fldiv@grs+1)^0,f,c
  7363  002CC8  3644               	rlcf	(___fldiv@grs+2)^0,f,c
  7364  002CCA  3645               	rlcf	(___fldiv@grs+3)^0,f,c
  7365  002CCC                     l5581:
  7366  002CCC  5033               	movf	___fldiv@a^0,w,c
  7367  002CCE  5C3B               	subwf	___fldiv@rem^0,w,c
  7368  002CD0  5034               	movf	(___fldiv@a+1)^0,w,c
  7369  002CD2  583C               	subwfb	(___fldiv@rem+1)^0,w,c
  7370  002CD4  5035               	movf	(___fldiv@a+2)^0,w,c
  7371  002CD6  583D               	subwfb	(___fldiv@rem+2)^0,w,c
  7372  002CD8  5036               	movf	(___fldiv@a+3)^0,w,c
  7373  002CDA  583E               	subwfb	(___fldiv@rem+3)^0,w,c
  7374  002CDC  A0D8               	btfss	status,0,c
  7375  002CDE  EF73  F016         	goto	u6651
  7376  002CE2  EF75  F016         	goto	u6650
  7377  002CE6                     u6651:
  7378  002CE6  EF7E  F016         	goto	l5587
  7379  002CEA                     u6650:
  7380  002CEA  8C45               	bsf	(___fldiv@grs+3)^0,6,c
  7381  002CEC  5033               	movf	___fldiv@a^0,w,c
  7382  002CEE  5E3B               	subwf	___fldiv@rem^0,f,c
  7383  002CF0  5034               	movf	(___fldiv@a+1)^0,w,c
  7384  002CF2  5A3C               	subwfb	(___fldiv@rem+1)^0,f,c
  7385  002CF4  5035               	movf	(___fldiv@a+2)^0,w,c
  7386  002CF6  5A3D               	subwfb	(___fldiv@rem+2)^0,f,c
  7387  002CF8  5036               	movf	(___fldiv@a+3)^0,w,c
  7388  002CFA  5A3E               	subwfb	(___fldiv@rem+3)^0,f,c
  7389  002CFC                     l5587:
  7390  002CFC  2A47               	incf	___fldiv@aexp^0,f,c
  7391  002CFE                     l1237:
  7392  002CFE  0E19               	movlw	25
  7393  002D00  6447               	cpfsgt	___fldiv@aexp^0,c
  7394  002D02  EF85  F016         	goto	u6661
  7395  002D06  EF87  F016         	goto	u6660
  7396  002D0A                     u6661:
  7397  002D0A  EF47  F016         	goto	l5573
  7398  002D0E                     u6660:
  7399  002D0E  503B               	movf	___fldiv@rem^0,w,c
  7400  002D10  103C               	iorwf	(___fldiv@rem+1)^0,w,c
  7401  002D12  103D               	iorwf	(___fldiv@rem+2)^0,w,c
  7402  002D14  103E               	iorwf	(___fldiv@rem+3)^0,w,c
  7403  002D16  B4D8               	btfsc	status,2,c
  7404  002D18  EF90  F016         	goto	u6671
  7405  002D1C  EF92  F016         	goto	u6670
  7406  002D20                     u6671:
  7407  002D20  EFAA  F016         	goto	l5599
  7408  002D24                     u6670:
  7409  002D24  8042               	bsf	___fldiv@grs^0,0,c
  7410  002D26  EFAA  F016         	goto	l5599
  7411  002D2A                     l5593:
  7412  002D2A  90D8               	bcf	status,0,c
  7413  002D2C  362F               	rlcf	___fldiv@b^0,f,c
  7414  002D2E  3630               	rlcf	(___fldiv@b+1)^0,f,c
  7415  002D30  3631               	rlcf	(___fldiv@b+2)^0,f,c
  7416  002D32  3632               	rlcf	(___fldiv@b+3)^0,f,c
  7417  002D34  AE45               	btfss	(___fldiv@grs+3)^0,7,c
  7418  002D36  EF9F  F016         	goto	u6681
  7419  002D3A  EFA1  F016         	goto	u6680
  7420  002D3E                     u6681:
  7421  002D3E  EFA2  F016         	goto	l1246
  7422  002D42                     u6680:
  7423  002D42  802F               	bsf	___fldiv@b^0,0,c
  7424  002D44                     l1246:
  7425  002D44  90D8               	bcf	status,0,c
  7426  002D46  3642               	rlcf	___fldiv@grs^0,f,c
  7427  002D48  3643               	rlcf	(___fldiv@grs+1)^0,f,c
  7428  002D4A  3644               	rlcf	(___fldiv@grs+2)^0,f,c
  7429  002D4C  3645               	rlcf	(___fldiv@grs+3)^0,f,c
  7430  002D4E  0640               	decf	___fldiv@new_exp^0,f,c
  7431  002D50  A0D8               	btfss	status,0,c
  7432  002D52  0641               	decf	(___fldiv@new_exp+1)^0,f,c
  7433  002D54                     l5599:
  7434  002D54  AE31               	btfss	(___fldiv@b+2)^0,7,c
  7435  002D56  EFAF  F016         	goto	u6691
  7436  002D5A  EFB1  F016         	goto	u6690
  7437  002D5E                     u6691:
  7438  002D5E  EF95  F016         	goto	l5593
  7439  002D62                     u6690:
  7440  002D62  0E00               	movlw	0
  7441  002D64  6E47               	movwf	___fldiv@aexp^0,c
  7442  002D66  AE45               	btfss	(___fldiv@grs+3)^0,7,c
  7443  002D68  EFB8  F016         	goto	u6701
  7444  002D6C  EFBA  F016         	goto	u6700
  7445  002D70                     u6701:
  7446  002D70  EFDE  F016         	goto	l1248
  7447  002D74                     u6700:
  7448  002D74  0EFF               	movlw	255
  7449  002D76  1442               	andwf	___fldiv@grs^0,w,c
  7450  002D78  6E37               	movwf	??___fldiv^0,c
  7451  002D7A  0EFF               	movlw	255
  7452  002D7C  1443               	andwf	(___fldiv@grs+1)^0,w,c
  7453  002D7E  6E38               	movwf	(??___fldiv+1)^0,c
  7454  002D80  0EFF               	movlw	255
  7455  002D82  1444               	andwf	(___fldiv@grs+2)^0,w,c
  7456  002D84  6E39               	movwf	(??___fldiv+2)^0,c
  7457  002D86  0E7F               	movlw	127
  7458  002D88  1445               	andwf	(___fldiv@grs+3)^0,w,c
  7459  002D8A  6E3A               	movwf	(??___fldiv+3)^0,c
  7460  002D8C  5037               	movf	??___fldiv^0,w,c
  7461  002D8E  1038               	iorwf	(??___fldiv+1)^0,w,c
  7462  002D90  1039               	iorwf	(??___fldiv+2)^0,w,c
  7463  002D92  103A               	iorwf	(??___fldiv+3)^0,w,c
  7464  002D94  B4D8               	btfsc	status,2,c
  7465  002D96  EFCF  F016         	goto	u6711
  7466  002D9A  EFD1  F016         	goto	u6710
  7467  002D9E                     u6711:
  7468  002D9E  EFD5  F016         	goto	l1249
  7469  002DA2                     u6710:
  7470  002DA2                     l5607:
  7471  002DA2  0E01               	movlw	1
  7472  002DA4  6E47               	movwf	___fldiv@aexp^0,c
  7473  002DA6  EFDE  F016         	goto	l1248
  7474  002DAA                     l1249:
  7475  002DAA  A02F               	btfss	___fldiv@b^0,0,c
  7476  002DAC  EFDA  F016         	goto	u6721
  7477  002DB0  EFDC  F016         	goto	u6720
  7478  002DB4                     u6721:
  7479  002DB4  EFDE  F016         	goto	l1248
  7480  002DB8                     u6720:
  7481  002DB8  EFD1  F016         	goto	l5607
  7482  002DBC                     l1248:
  7483  002DBC  5047               	movf	___fldiv@aexp^0,w,c
  7484  002DBE  B4D8               	btfsc	status,2,c
  7485  002DC0  EFE4  F016         	goto	u6731
  7486  002DC4  EFE6  F016         	goto	u6730
  7487  002DC8                     u6731:
  7488  002DC8  EF0A  F017         	goto	l5619
  7489  002DCC                     u6730:
  7490  002DCC  0E01               	movlw	1
  7491  002DCE  262F               	addwf	___fldiv@b^0,f,c
  7492  002DD0  0E00               	movlw	0
  7493  002DD2  2230               	addwfc	(___fldiv@b+1)^0,f,c
  7494  002DD4  2231               	addwfc	(___fldiv@b+2)^0,f,c
  7495  002DD6  2232               	addwfc	(___fldiv@b+3)^0,f,c
  7496  002DD8  A032               	btfss	(___fldiv@b+3)^0,0,c
  7497  002DDA  EFF1  F016         	goto	u6741
  7498  002DDE  EFF3  F016         	goto	u6740
  7499  002DE2                     u6741:
  7500  002DE2  EF0A  F017         	goto	l5619
  7501  002DE6                     u6740:
  7502  002DE6  C02F  F037         	movff	___fldiv@b,??___fldiv
  7503  002DEA  C030  F038         	movff	___fldiv@b+1,??___fldiv+1
  7504  002DEE  C031  F039         	movff	___fldiv@b+2,??___fldiv+2
  7505  002DF2  C032  F03A         	movff	___fldiv@b+3,??___fldiv+3
  7506  002DF6  343A               	rlcf	(??___fldiv+3)^0,w,c
  7507  002DF8  323A               	rrcf	(??___fldiv+3)^0,f,c
  7508  002DFA  3239               	rrcf	(??___fldiv+2)^0,f,c
  7509  002DFC  3238               	rrcf	(??___fldiv+1)^0,f,c
  7510  002DFE  3237               	rrcf	??___fldiv^0,f,c
  7511  002E00  C037  F02F         	movff	??___fldiv,___fldiv@b
  7512  002E04  C038  F030         	movff	??___fldiv+1,___fldiv@b+1
  7513  002E08  C039  F031         	movff	??___fldiv+2,___fldiv@b+2
  7514  002E0C  C03A  F032         	movff	??___fldiv+3,___fldiv@b+3
  7515  002E10  4A40               	infsnz	___fldiv@new_exp^0,f,c
  7516  002E12  2A41               	incf	(___fldiv@new_exp+1)^0,f,c
  7517  002E14                     l5619:
  7518  002E14  BE41               	btfsc	(___fldiv@new_exp+1)^0,7,c
  7519  002E16  EF15  F017         	goto	u6751
  7520  002E1A  5041               	movf	(___fldiv@new_exp+1)^0,w,c
  7521  002E1C  E108               	bnz	u6750
  7522  002E1E  2840               	incf	___fldiv@new_exp^0,w,c
  7523  002E20  A0D8               	btfss	status,0,c
  7524  002E22  EF15  F017         	goto	u6751
  7525  002E26  EF17  F017         	goto	u6750
  7526  002E2A                     u6751:
  7527  002E2A  EF22  F017         	goto	l5623
  7528  002E2E                     u6750:
  7529  002E2E  0E00               	movlw	0
  7530  002E30  6E41               	movwf	(___fldiv@new_exp+1)^0,c
  7531  002E32  6840               	setf	___fldiv@new_exp^0,c
  7532  002E34  0E00               	movlw	0
  7533  002E36  6E2F               	movwf	___fldiv@b^0,c
  7534  002E38  0E00               	movlw	0
  7535  002E3A  6E30               	movwf	(___fldiv@b+1)^0,c
  7536  002E3C  0E00               	movlw	0
  7537  002E3E  6E31               	movwf	(___fldiv@b+2)^0,c
  7538  002E40  0E00               	movlw	0
  7539  002E42  6E32               	movwf	(___fldiv@b+3)^0,c
  7540  002E44                     l5623:
  7541  002E44  BE41               	btfsc	(___fldiv@new_exp+1)^0,7,c
  7542  002E46  EF2F  F017         	goto	u6760
  7543  002E4A  5041               	movf	(___fldiv@new_exp+1)^0,w,c
  7544  002E4C  E106               	bnz	u6761
  7545  002E4E  0440               	decf	___fldiv@new_exp^0,w,c
  7546  002E50  B0D8               	btfsc	status,0,c
  7547  002E52  EF2D  F017         	goto	u6761
  7548  002E56  EF2F  F017         	goto	u6760
  7549  002E5A                     u6761:
  7550  002E5A  EF3D  F017         	goto	l5627
  7551  002E5E                     u6760:
  7552  002E5E  0E00               	movlw	0
  7553  002E60  6E41               	movwf	(___fldiv@new_exp+1)^0,c
  7554  002E62  0E00               	movlw	0
  7555  002E64  6E40               	movwf	___fldiv@new_exp^0,c
  7556  002E66  0E00               	movlw	0
  7557  002E68  6E2F               	movwf	___fldiv@b^0,c
  7558  002E6A  0E00               	movlw	0
  7559  002E6C  6E30               	movwf	(___fldiv@b+1)^0,c
  7560  002E6E  0E00               	movlw	0
  7561  002E70  6E31               	movwf	(___fldiv@b+2)^0,c
  7562  002E72  0E00               	movlw	0
  7563  002E74  6E32               	movwf	(___fldiv@b+3)^0,c
  7564  002E76  0E00               	movlw	0
  7565  002E78  6E3F               	movwf	___fldiv@sign^0,c
  7566  002E7A                     l5627:
  7567  002E7A  C040  F046         	movff	___fldiv@new_exp,___fldiv@bexp
  7568  002E7E  A046               	btfss	___fldiv@bexp^0,0,c
  7569  002E80  EF44  F017         	goto	u6771
  7570  002E84  EF46  F017         	goto	u6770
  7571  002E88                     u6771:
  7572  002E88  EF49  F017         	goto	l5633
  7573  002E8C                     u6770:
  7574  002E8C  8E31               	bsf	(___fldiv@b+2)^0,7,c
  7575  002E8E  EF4A  F017         	goto	l5635
  7576  002E92                     l5633:
  7577  002E92  9E31               	bcf	(___fldiv@b+2)^0,7,c
  7578  002E94                     l5635:
  7579  002E94  90D8               	bcf	status,0,c
  7580  002E96  3046               	rrcf	___fldiv@bexp^0,w,c
  7581  002E98  6E32               	movwf	(___fldiv@b+3)^0,c
  7582  002E9A  EF00  F016         	goto	l5549
  7583  002E9E                     l1235:
  7584  002E9E  0012               	return		;funcret
  7585  002EA0                     __end_of___fldiv:
  7586                           	opt callstack 0
  7587                           
  7588 ;; *************** function ___awmod *****************
  7589 ;; Defined at:
  7590 ;;		line 7 in file "C:\Program Files (x86)\Microchip\xc8\v2.10\pic\sources\c99\common\awmod.c"
  7591 ;; Parameters:    Size  Location     Type
  7592 ;;  dividend        2    7[COMRAM] int 
  7593 ;;  divisor         2    9[COMRAM] int 
  7594 ;; Auto vars:     Size  Location     Type
  7595 ;;  sign            1   12[COMRAM] unsigned char 
  7596 ;;  counter         1   11[COMRAM] unsigned char 
  7597 ;; Return value:  Size  Location     Type
  7598 ;;                  2    7[COMRAM] int 
  7599 ;; Registers used:
  7600 ;;		wreg, status,2, status,0
  7601 ;; Tracked objects:
  7602 ;;		On entry : 0/0
  7603 ;;		On exit  : 0/0
  7604 ;;		Unchanged: 0/0
  7605 ;; Data sizes:     COMRAM   BANK0   BANK1   BANK2   BANK3   BANK4   BANK5   BANK6   BANK7   BANK8   BANK9  BANK10  BANK1
      +1  BANK12  BANK13  BANK14  BANK15
  7606 ;;      Params:         4       0       0       0       0       0       0       0       0       0       0       0       
      +0       0       0       0       0
  7607 ;;      Locals:         2       0       0       0       0       0       0       0       0       0       0       0       
      +0       0       0       0       0
  7608 ;;      Temps:          0       0       0       0       0       0       0       0       0       0       0       0       
      +0       0       0       0       0
  7609 ;;      Totals:         6       0       0       0       0       0       0       0       0       0       0       0       
      +0       0       0       0       0
  7610 ;;Total ram usage:        6 bytes
  7611 ;; Hardware stack levels used:    1
  7612 ;; Hardware stack levels required when called:    3
  7613 ;; This function calls:
  7614 ;;		Nothing
  7615 ;; This function is called by:
  7616 ;;		_efgtoa
  7617 ;; This function uses a non-reentrant model
  7618 ;;
  7619                           
  7620                           	psect	text26
  7621  003EAC                     __ptext26:
  7622                           	opt callstack 0
  7623  003EAC                     ___awmod:
  7624                           	opt callstack 23
  7625  003EAC  0E00               	movlw	0
  7626  003EAE  6E0D               	movwf	___awmod@sign^0,c
  7627  003EB0  BE09               	btfsc	(___awmod@dividend+1)^0,7,c
  7628  003EB2  EF5F  F01F         	goto	u7030
  7629  003EB6  EF5D  F01F         	goto	u7031
  7630  003EBA                     u7031:
  7631  003EBA  EF65  F01F         	goto	l5831
  7632  003EBE                     u7030:
  7633  003EBE  6C08               	negf	___awmod@dividend^0,c
  7634  003EC0  1E09               	comf	(___awmod@dividend+1)^0,f,c
  7635  003EC2  B0D8               	btfsc	status,0,c
  7636  003EC4  2A09               	incf	(___awmod@dividend+1)^0,f,c
  7637  003EC6  0E01               	movlw	1
  7638  003EC8  6E0D               	movwf	___awmod@sign^0,c
  7639  003ECA                     l5831:
  7640  003ECA  BE0B               	btfsc	(___awmod@divisor+1)^0,7,c
  7641  003ECC  EF6C  F01F         	goto	u7040
  7642  003ED0  EF6A  F01F         	goto	u7041
  7643  003ED4                     u7041:
  7644  003ED4  EF70  F01F         	goto	l5835
  7645  003ED8                     u7040:
  7646  003ED8  6C0A               	negf	___awmod@divisor^0,c
  7647  003EDA  1E0B               	comf	(___awmod@divisor+1)^0,f,c
  7648  003EDC  B0D8               	btfsc	status,0,c
  7649  003EDE  2A0B               	incf	(___awmod@divisor+1)^0,f,c
  7650  003EE0                     l5835:
  7651  003EE0  500A               	movf	___awmod@divisor^0,w,c
  7652  003EE2  100B               	iorwf	(___awmod@divisor+1)^0,w,c
  7653  003EE4  B4D8               	btfsc	status,2,c
  7654  003EE6  EF77  F01F         	goto	u7051
  7655  003EEA  EF79  F01F         	goto	u7050
  7656  003EEE                     u7051:
  7657  003EEE  EF9D  F01F         	goto	l5851
  7658  003EF2                     u7050:
  7659  003EF2  0E01               	movlw	1
  7660  003EF4  6E0C               	movwf	___awmod@counter^0,c
  7661  003EF6  EF81  F01F         	goto	l5841
  7662  003EFA                     l5839:
  7663  003EFA  90D8               	bcf	status,0,c
  7664  003EFC  360A               	rlcf	___awmod@divisor^0,f,c
  7665  003EFE  360B               	rlcf	(___awmod@divisor+1)^0,f,c
  7666  003F00  2A0C               	incf	___awmod@counter^0,f,c
  7667  003F02                     l5841:
  7668  003F02  AE0B               	btfss	(___awmod@divisor+1)^0,7,c
  7669  003F04  EF86  F01F         	goto	u7061
  7670  003F08  EF88  F01F         	goto	u7060
  7671  003F0C                     u7061:
  7672  003F0C  EF7D  F01F         	goto	l5839
  7673  003F10                     u7060:
  7674  003F10                     l5843:
  7675  003F10  500A               	movf	___awmod@divisor^0,w,c
  7676  003F12  5C08               	subwf	___awmod@dividend^0,w,c
  7677  003F14  500B               	movf	(___awmod@divisor+1)^0,w,c
  7678  003F16  5809               	subwfb	(___awmod@dividend+1)^0,w,c
  7679  003F18  A0D8               	btfss	status,0,c
  7680  003F1A  EF91  F01F         	goto	u7071
  7681  003F1E  EF93  F01F         	goto	u7070
  7682  003F22                     u7071:
  7683  003F22  EF97  F01F         	goto	l5847
  7684  003F26                     u7070:
  7685  003F26  500A               	movf	___awmod@divisor^0,w,c
  7686  003F28  5E08               	subwf	___awmod@dividend^0,f,c
  7687  003F2A  500B               	movf	(___awmod@divisor+1)^0,w,c
  7688  003F2C  5A09               	subwfb	(___awmod@dividend+1)^0,f,c
  7689  003F2E                     l5847:
  7690  003F2E  90D8               	bcf	status,0,c
  7691  003F30  320B               	rrcf	(___awmod@divisor+1)^0,f,c
  7692  003F32  320A               	rrcf	___awmod@divisor^0,f,c
  7693  003F34  2E0C               	decfsz	___awmod@counter^0,f,c
  7694  003F36  EF88  F01F         	goto	l5843
  7695  003F3A                     l5851:
  7696  003F3A  500D               	movf	___awmod@sign^0,w,c
  7697  003F3C  B4D8               	btfsc	status,2,c
  7698  003F3E  EFA3  F01F         	goto	u7081
  7699  003F42  EFA5  F01F         	goto	u7080
  7700  003F46                     u7081:
  7701  003F46  EFA9  F01F         	goto	l5855
  7702  003F4A                     u7080:
  7703  003F4A  6C08               	negf	___awmod@dividend^0,c
  7704  003F4C  1E09               	comf	(___awmod@dividend+1)^0,f,c
  7705  003F4E  B0D8               	btfsc	status,0,c
  7706  003F50  2A09               	incf	(___awmod@dividend+1)^0,f,c
  7707  003F52                     l5855:
  7708  003F52  C008  F008         	movff	___awmod@dividend,?___awmod
  7709  003F56  C009  F009         	movff	___awmod@dividend+1,?___awmod+1
  7710  003F5A  0012               	return		;funcret
  7711  003F5C                     __end_of___awmod:
  7712                           	opt callstack 0
  7713                           
  7714 ;; *************** function ___awdiv *****************
  7715 ;; Defined at:
  7716 ;;		line 7 in file "C:\Program Files (x86)\Microchip\xc8\v2.10\pic\sources\c99\common\awdiv.c"
  7717 ;; Parameters:    Size  Location     Type
  7718 ;;  dividend        2    7[COMRAM] int 
  7719 ;;  divisor         2    9[COMRAM] int 
  7720 ;; Auto vars:     Size  Location     Type
  7721 ;;  quotient        2   13[COMRAM] int 
  7722 ;;  sign            1   12[COMRAM] unsigned char 
  7723 ;;  counter         1   11[COMRAM] unsigned char 
  7724 ;; Return value:  Size  Location     Type
  7725 ;;                  2    7[COMRAM] int 
  7726 ;; Registers used:
  7727 ;;		wreg, status,2, status,0
  7728 ;; Tracked objects:
  7729 ;;		On entry : 0/0
  7730 ;;		On exit  : 0/0
  7731 ;;		Unchanged: 0/0
  7732 ;; Data sizes:     COMRAM   BANK0   BANK1   BANK2   BANK3   BANK4   BANK5   BANK6   BANK7   BANK8   BANK9  BANK10  BANK1
      +1  BANK12  BANK13  BANK14  BANK15
  7733 ;;      Params:         4       0       0       0       0       0       0       0       0       0       0       0       
      +0       0       0       0       0
  7734 ;;      Locals:         4       0       0       0       0       0       0       0       0       0       0       0       
      +0       0       0       0       0
  7735 ;;      Temps:          0       0       0       0       0       0       0       0       0       0       0       0       
      +0       0       0       0       0
  7736 ;;      Totals:         8       0       0       0       0       0       0       0       0       0       0       0       
      +0       0       0       0       0
  7737 ;;Total ram usage:        8 bytes
  7738 ;; Hardware stack levels used:    1
  7739 ;; Hardware stack levels required when called:    3
  7740 ;; This function calls:
  7741 ;;		Nothing
  7742 ;; This function is called by:
  7743 ;;		_efgtoa
  7744 ;; This function uses a non-reentrant model
  7745 ;;
  7746                           
  7747                           	psect	text27
  7748  003D26                     __ptext27:
  7749                           	opt callstack 0
  7750  003D26                     ___awdiv:
  7751                           	opt callstack 23
  7752  003D26  0E00               	movlw	0
  7753  003D28  6E0D               	movwf	___awdiv@sign^0,c
  7754  003D2A  BE0B               	btfsc	(___awdiv@divisor+1)^0,7,c
  7755  003D2C  EF9C  F01E         	goto	u6970
  7756  003D30  EF9A  F01E         	goto	u6971
  7757  003D34                     u6971:
  7758  003D34  EFA2  F01E         	goto	l5787
  7759  003D38                     u6970:
  7760  003D38  6C0A               	negf	___awdiv@divisor^0,c
  7761  003D3A  1E0B               	comf	(___awdiv@divisor+1)^0,f,c
  7762  003D3C  B0D8               	btfsc	status,0,c
  7763  003D3E  2A0B               	incf	(___awdiv@divisor+1)^0,f,c
  7764  003D40  0E01               	movlw	1
  7765  003D42  6E0D               	movwf	___awdiv@sign^0,c
  7766  003D44                     l5787:
  7767  003D44  BE09               	btfsc	(___awdiv@dividend+1)^0,7,c
  7768  003D46  EFA9  F01E         	goto	u6980
  7769  003D4A  EFA7  F01E         	goto	u6981
  7770  003D4E                     u6981:
  7771  003D4E  EFAF  F01E         	goto	l5793
  7772  003D52                     u6980:
  7773  003D52  6C08               	negf	___awdiv@dividend^0,c
  7774  003D54  1E09               	comf	(___awdiv@dividend+1)^0,f,c
  7775  003D56  B0D8               	btfsc	status,0,c
  7776  003D58  2A09               	incf	(___awdiv@dividend+1)^0,f,c
  7777  003D5A  0E01               	movlw	1
  7778  003D5C  1A0D               	xorwf	___awdiv@sign^0,f,c
  7779  003D5E                     l5793:
  7780  003D5E  0E00               	movlw	0
  7781  003D60  6E0F               	movwf	(___awdiv@quotient+1)^0,c
  7782  003D62  0E00               	movlw	0
  7783  003D64  6E0E               	movwf	___awdiv@quotient^0,c
  7784  003D66  500A               	movf	___awdiv@divisor^0,w,c
  7785  003D68  100B               	iorwf	(___awdiv@divisor+1)^0,w,c
  7786  003D6A  B4D8               	btfsc	status,2,c
  7787  003D6C  EFBA  F01E         	goto	u6991
  7788  003D70  EFBC  F01E         	goto	u6990
  7789  003D74                     u6991:
  7790  003D74  EFE4  F01E         	goto	l5815
  7791  003D78                     u6990:
  7792  003D78  0E01               	movlw	1
  7793  003D7A  6E0C               	movwf	___awdiv@counter^0,c
  7794  003D7C  EFC4  F01E         	goto	l5801
  7795  003D80                     l5799:
  7796  003D80  90D8               	bcf	status,0,c
  7797  003D82  360A               	rlcf	___awdiv@divisor^0,f,c
  7798  003D84  360B               	rlcf	(___awdiv@divisor+1)^0,f,c
  7799  003D86  2A0C               	incf	___awdiv@counter^0,f,c
  7800  003D88                     l5801:
  7801  003D88  AE0B               	btfss	(___awdiv@divisor+1)^0,7,c
  7802  003D8A  EFC9  F01E         	goto	u7001
  7803  003D8E  EFCB  F01E         	goto	u7000
  7804  003D92                     u7001:
  7805  003D92  EFC0  F01E         	goto	l5799
  7806  003D96                     u7000:
  7807  003D96                     l5803:
  7808  003D96  90D8               	bcf	status,0,c
  7809  003D98  360E               	rlcf	___awdiv@quotient^0,f,c
  7810  003D9A  360F               	rlcf	(___awdiv@quotient+1)^0,f,c
  7811  003D9C  500A               	movf	___awdiv@divisor^0,w,c
  7812  003D9E  5C08               	subwf	___awdiv@dividend^0,w,c
  7813  003DA0  500B               	movf	(___awdiv@divisor+1)^0,w,c
  7814  003DA2  5809               	subwfb	(___awdiv@dividend+1)^0,w,c
  7815  003DA4  A0D8               	btfss	status,0,c
  7816  003DA6  EFD7  F01E         	goto	u7011
  7817  003DAA  EFD9  F01E         	goto	u7010
  7818  003DAE                     u7011:
  7819  003DAE  EFDE  F01E         	goto	l5811
  7820  003DB2                     u7010:
  7821  003DB2  500A               	movf	___awdiv@divisor^0,w,c
  7822  003DB4  5E08               	subwf	___awdiv@dividend^0,f,c
  7823  003DB6  500B               	movf	(___awdiv@divisor+1)^0,w,c
  7824  003DB8  5A09               	subwfb	(___awdiv@dividend+1)^0,f,c
  7825  003DBA  800E               	bsf	___awdiv@quotient^0,0,c
  7826  003DBC                     l5811:
  7827  003DBC  90D8               	bcf	status,0,c
  7828  003DBE  320B               	rrcf	(___awdiv@divisor+1)^0,f,c
  7829  003DC0  320A               	rrcf	___awdiv@divisor^0,f,c
  7830  003DC2  2E0C               	decfsz	___awdiv@counter^0,f,c
  7831  003DC4  EFCB  F01E         	goto	l5803
  7832  003DC8                     l5815:
  7833  003DC8  500D               	movf	___awdiv@sign^0,w,c
  7834  003DCA  B4D8               	btfsc	status,2,c
  7835  003DCC  EFEA  F01E         	goto	u7021
  7836  003DD0  EFEC  F01E         	goto	u7020
  7837  003DD4                     u7021:
  7838  003DD4  EFF0  F01E         	goto	l5819
  7839  003DD8                     u7020:
  7840  003DD8  6C0E               	negf	___awdiv@quotient^0,c
  7841  003DDA  1E0F               	comf	(___awdiv@quotient+1)^0,f,c
  7842  003DDC  B0D8               	btfsc	status,0,c
  7843  003DDE  2A0F               	incf	(___awdiv@quotient+1)^0,f,c
  7844  003DE0                     l5819:
  7845  003DE0  C00E  F008         	movff	___awdiv@quotient,?___awdiv
  7846  003DE4  C00F  F009         	movff	___awdiv@quotient+1,?___awdiv+1
  7847  003DE8  0012               	return		;funcret
  7848  003DEA                     __end_of___awdiv:
  7849                           	opt callstack 0
  7850                           
  7851 ;; *************** function _atoi *****************
  7852 ;; Defined at:
  7853 ;;		line 4 in file "C:\Program Files (x86)\Microchip\xc8\v2.10\pic\sources\c99\common\atoi.c"
  7854 ;; Parameters:    Size  Location     Type
  7855 ;;  s               2   14[COMRAM] PTR const unsigned char 
  7856 ;;		 -> STR_6(16), STR_5(17), STR_3(6), 
  7857 ;; Auto vars:     Size  Location     Type
  7858 ;;  n               2   27[COMRAM] int 
  7859 ;;  neg             2   20[COMRAM] int 
  7860 ;; Return value:  Size  Location     Type
  7861 ;;                  2   14[COMRAM] int 
  7862 ;; Registers used:
  7863 ;;		wreg, status,2, status,0, tblptrl, tblptrh, tblptru, prodl, prodh, cstack
  7864 ;; Tracked objects:
  7865 ;;		On entry : 0/0
  7866 ;;		On exit  : 0/0
  7867 ;;		Unchanged: 0/0
  7868 ;; Data sizes:     COMRAM   BANK0   BANK1   BANK2   BANK3   BANK4   BANK5   BANK6   BANK7   BANK8   BANK9  BANK10  BANK1
      +1  BANK12  BANK13  BANK14  BANK15
  7869 ;;      Params:         2       0       0       0       0       0       0       0       0       0       0       0       
      +0       0       0       0       0
  7870 ;;      Locals:         9       0       0       0       0       0       0       0       0       0       0       0       
      +0       0       0       0       0
  7871 ;;      Temps:          4       0       0       0       0       0       0       0       0       0       0       0       
      +0       0       0       0       0
  7872 ;;      Totals:        15       0       0       0       0       0       0       0       0       0       0       0       
      +0       0       0       0       0
  7873 ;;Total ram usage:       15 bytes
  7874 ;; Hardware stack levels used:    1
  7875 ;; Hardware stack levels required when called:    4
  7876 ;; This function calls:
  7877 ;;		___wmul
  7878 ;;		_isdigit
  7879 ;;		_isspace
  7880 ;; This function is called by:
  7881 ;;		_vfpfcnvrt
  7882 ;; This function uses a non-reentrant model
  7883 ;;
  7884                           
  7885                           	psect	text28
  7886  003588                     __ptext28:
  7887                           	opt callstack 0
  7888  003588                     _atoi:
  7889                           	opt callstack 23
  7890  003588  0E00               	movlw	0
  7891  00358A  6E1D               	movwf	(atoi@n+1)^0,c
  7892  00358C  0E00               	movlw	0
  7893  00358E  6E1C               	movwf	atoi@n^0,c
  7894  003590  0E00               	movlw	0
  7895  003592  6E16               	movwf	(atoi@neg+1)^0,c
  7896  003594  0E00               	movlw	0
  7897  003596  6E15               	movwf	atoi@neg^0,c
  7898  003598  EFD0  F01A         	goto	l6263
  7899  00359C                     l6261:
  7900  00359C  4A0F               	infsnz	atoi@s^0,f,c
  7901  00359E  2A10               	incf	(atoi@s+1)^0,f,c
  7902  0035A0                     l6263:
  7903  0035A0  0E01               	movlw	1
  7904  0035A2  6E1B               	movwf	_atoi$2254^0,c
  7905  0035A4  C00F  FFF6         	movff	atoi@s,tblptrl
  7906  0035A8  C010  FFF7         	movff	atoi@s+1,tblptrh
  7907  0035AC                     	if	1	;Program memory is < 0x10000, tblptru is always zero
  7908  0035AC  6AF8               	clrf	tblptru,c
  7909  0035AE                     	endif
  7910  0035AE                     	if	0	;tblptru may be non-zero
  7911  0035AE                     	endif
  7912  0035AE  0008               	tblrd		*
  7913  0035B0  50F5               	movf	tablat,w,c
  7914  0035B2  0A20               	xorlw	32
  7915  0035B4  B4D8               	btfsc	status,2,c
  7916  0035B6  EFDF  F01A         	goto	u7791
  7917  0035BA  EFE1  F01A         	goto	u7790
  7918  0035BE                     u7791:
  7919  0035BE  EFFF  F01A         	goto	l6271
  7920  0035C2                     u7790:
  7921  0035C2  0EF7               	movlw	247
  7922  0035C4  6E11               	movwf	??_atoi^0,c
  7923  0035C6  0EFF               	movlw	255
  7924  0035C8  6E12               	movwf	(??_atoi+1)^0,c
  7925  0035CA  C00F  FFF6         	movff	atoi@s,tblptrl
  7926  0035CE  C010  FFF7         	movff	atoi@s+1,tblptrh
  7927  0035D2                     	if	1	;Program memory is < 0x10000, tblptru is always zero
  7928  0035D2  6AF8               	clrf	tblptru,c
  7929  0035D4                     	endif
  7930  0035D4                     	if	0	;tblptru may be non-zero
  7931  0035D4                     	endif
  7932  0035D4  0008               	tblrd		*
  7933  0035D6  50F5               	movf	tablat,w,c
  7934  0035D8  6E13               	movwf	(??_atoi+2)^0,c
  7935  0035DA  6A14               	clrf	(??_atoi+3)^0,c
  7936  0035DC  5011               	movf	??_atoi^0,w,c
  7937  0035DE  2613               	addwf	(??_atoi+2)^0,f,c
  7938  0035E0  5012               	movf	(??_atoi+1)^0,w,c
  7939  0035E2  2214               	addwfc	(??_atoi+3)^0,f,c
  7940  0035E4  5014               	movf	(??_atoi+3)^0,w,c
  7941  0035E6  E109               	bnz	u7800
  7942  0035E8  0E05               	movlw	5
  7943  0035EA  5C13               	subwf	(??_atoi+2)^0,w,c
  7944  0035EC  A0D8               	btfss	status,0,c
  7945  0035EE  EFFB  F01A         	goto	u7801
  7946  0035F2  EFFD  F01A         	goto	u7800
  7947  0035F6                     u7801:
  7948  0035F6  EFFF  F01A         	goto	l6271
  7949  0035FA                     u7800:
  7950  0035FA  0E00               	movlw	0
  7951  0035FC  6E1B               	movwf	_atoi$2254^0,c
  7952  0035FE                     l6271:
  7953  0035FE  C01B  F017         	movff	_atoi$2254,_atoi$2253
  7954  003602  6A18               	clrf	(_atoi$2253+1)^0,c
  7955  003604  5017               	movf	_atoi$2253^0,w,c
  7956  003606  1018               	iorwf	(_atoi$2253+1)^0,w,c
  7957  003608  A4D8               	btfss	status,2,c
  7958  00360A  EF09  F01B         	goto	u7811
  7959  00360E  EF0B  F01B         	goto	u7810
  7960  003612                     u7811:
  7961  003612  EFCE  F01A         	goto	l6261
  7962  003616                     u7810:
  7963  003616  EF15  F01B         	goto	l6281
  7964  00361A                     l6277:
  7965  00361A  0E00               	movlw	0
  7966  00361C  6E16               	movwf	(atoi@neg+1)^0,c
  7967  00361E  0E01               	movlw	1
  7968  003620  6E15               	movwf	atoi@neg^0,c
  7969  003622                     l6279:
  7970  003622  4A0F               	infsnz	atoi@s^0,f,c
  7971  003624  2A10               	incf	(atoi@s+1)^0,f,c
  7972  003626  EF4C  F01B         	goto	l6287
  7973  00362A                     l6281:
  7974  00362A  C00F  FFF6         	movff	atoi@s,tblptrl
  7975  00362E  C010  FFF7         	movff	atoi@s+1,tblptrh
  7976  003632                     	if	1	;Program memory is < 0x10000, tblptru is always zero
  7977  003632  6AF8               	clrf	tblptru,c
  7978  003634                     	endif
  7979  003634                     	if	0	;tblptru may be non-zero
  7980  003634                     	endif
  7981  003634  0008               	tblrd		*
  7982  003636  50F5               	movf	tablat,w,c
  7983  003638  6E11               	movwf	??_atoi^0,c
  7984  00363A  6A12               	clrf	(??_atoi+1)^0,c
  7985                           
  7986                           ; Switch on 2 bytes has been partitioned into a top level switch of size 1, and 1 sub-sw
      +                          itches
  7987                           ; Switch size 1, requested type "simple"
  7988                           ; Number of cases is 1, Range of values is 0 to 0
  7989                           ; switch strategies available:
  7990                           ; Name         Instructions Cycles
  7991                           ; simple_byte            4     3 (average)
  7992                           ;	Chosen strategy is simple_byte
  7993  00363C  5012               	movf	(??_atoi+1)^0,w,c
  7994  00363E  0A00               	xorlw	0	; case 0
  7995  003640  B4D8               	btfsc	status,2,c
  7996  003642  EF25  F01B         	goto	l6537
  7997  003646  EF4C  F01B         	goto	l6287
  7998  00364A                     l6537:
  7999                           
  8000                           ; Switch size 1, requested type "simple"
  8001                           ; Number of cases is 2, Range of values is 43 to 45
  8002                           ; switch strategies available:
  8003                           ; Name         Instructions Cycles
  8004                           ; simple_byte            7     4 (average)
  8005                           ;	Chosen strategy is simple_byte
  8006  00364A  5011               	movf	??_atoi^0,w,c
  8007  00364C  0A2B               	xorlw	43	; case 43
  8008  00364E  B4D8               	btfsc	status,2,c
  8009  003650  EF11  F01B         	goto	l6279
  8010  003654  0A06               	xorlw	6	; case 45
  8011  003656  B4D8               	btfsc	status,2,c
  8012  003658  EF0D  F01B         	goto	l6277
  8013  00365C  EF4C  F01B         	goto	l6287
  8014  003660                     l6283:
  8015  003660  C01C  F008         	movff	atoi@n,___wmul@multiplier
  8016  003664  C01D  F009         	movff	atoi@n+1,___wmul@multiplier+1
  8017  003668  0E00               	movlw	0
  8018  00366A  6E0B               	movwf	(___wmul@multiplicand+1)^0,c
  8019  00366C  0E0A               	movlw	10
  8020  00366E  6E0A               	movwf	___wmul@multiplicand^0,c
  8021  003670  EC76  F023         	call	___wmul	;wreg free
  8022  003674  C00F  FFF6         	movff	atoi@s,tblptrl
  8023  003678  C010  FFF7         	movff	atoi@s+1,tblptrh
  8024  00367C                     	if	1	;Program memory is < 0x10000, tblptru is always zero
  8025  00367C  6AF8               	clrf	tblptru,c
  8026  00367E                     	endif
  8027  00367E                     	if	0	;tblptru may be non-zero
  8028  00367E                     	endif
  8029  00367E  0008               	tblrd		*
  8030  003680  50F5               	movf	tablat,w,c
  8031  003682  5E08               	subwf	?___wmul^0,f,c
  8032  003684  0E00               	movlw	0
  8033  003686  5A09               	subwfb	(?___wmul+1)^0,f,c
  8034  003688  0E30               	movlw	48
  8035  00368A  2408               	addwf	?___wmul^0,w,c
  8036  00368C  6E1C               	movwf	atoi@n^0,c
  8037  00368E  0E00               	movlw	0
  8038  003690  2009               	addwfc	(?___wmul+1)^0,w,c
  8039  003692  6E1D               	movwf	(atoi@n+1)^0,c
  8040  003694  EF11  F01B         	goto	l6279
  8041  003698                     l6287:
  8042  003698  0ED0               	movlw	208
  8043  00369A  6E11               	movwf	??_atoi^0,c
  8044  00369C  0EFF               	movlw	255
  8045  00369E  6E12               	movwf	(??_atoi+1)^0,c
  8046  0036A0  C00F  FFF6         	movff	atoi@s,tblptrl
  8047  0036A4  C010  FFF7         	movff	atoi@s+1,tblptrh
  8048  0036A8                     	if	1	;Program memory is < 0x10000, tblptru is always zero
  8049  0036A8  6AF8               	clrf	tblptru,c
  8050  0036AA                     	endif
  8051  0036AA                     	if	0	;tblptru may be non-zero
  8052  0036AA                     	endif
  8053  0036AA  0008               	tblrd		*
  8054  0036AC  50F5               	movf	tablat,w,c
  8055  0036AE  6E13               	movwf	(??_atoi+2)^0,c
  8056  0036B0  6A14               	clrf	(??_atoi+3)^0,c
  8057  0036B2  5011               	movf	??_atoi^0,w,c
  8058  0036B4  2613               	addwf	(??_atoi+2)^0,f,c
  8059  0036B6  5012               	movf	(??_atoi+1)^0,w,c
  8060  0036B8  2214               	addwfc	(??_atoi+3)^0,f,c
  8061  0036BA  5014               	movf	(??_atoi+3)^0,w,c
  8062  0036BC  E10A               	bnz	u7820
  8063  0036BE  0E0A               	movlw	10
  8064  0036C0  5C13               	subwf	(??_atoi+2)^0,w,c
  8065  0036C2  A0D8               	btfss	status,0,c
  8066  0036C4  EF66  F01B         	goto	u7821
  8067  0036C8  EF69  F01B         	goto	u7820
  8068  0036CC                     u7821:
  8069  0036CC  0E01               	movlw	1
  8070  0036CE  EF6A  F01B         	goto	u7830
  8071  0036D2                     u7820:
  8072  0036D2  0E00               	movlw	0
  8073  0036D4                     u7830:
  8074  0036D4  6E19               	movwf	_atoi$2255^0,c
  8075  0036D6  6A1A               	clrf	(_atoi$2255+1)^0,c
  8076  0036D8  5019               	movf	_atoi$2255^0,w,c
  8077  0036DA  101A               	iorwf	(_atoi$2255+1)^0,w,c
  8078  0036DC  A4D8               	btfss	status,2,c
  8079  0036DE  EF73  F01B         	goto	u7841
  8080  0036E2  EF75  F01B         	goto	u7840
  8081  0036E6                     u7841:
  8082  0036E6  EF30  F01B         	goto	l6283
  8083  0036EA                     u7840:
  8084  0036EA  5015               	movf	atoi@neg^0,w,c
  8085  0036EC  1016               	iorwf	(atoi@neg+1)^0,w,c
  8086  0036EE  A4D8               	btfss	status,2,c
  8087  0036F0  EF7C  F01B         	goto	u7851
  8088  0036F4  EF7E  F01B         	goto	u7850
  8089  0036F8                     u7851:
  8090  0036F8  EF8C  F01B         	goto	l1363
  8091  0036FC                     u7850:
  8092  0036FC  C01C  F011         	movff	atoi@n,??_atoi
  8093  003700  C01D  F012         	movff	atoi@n+1,??_atoi+1
  8094  003704  1E11               	comf	??_atoi^0,f,c
  8095  003706  1E12               	comf	(??_atoi+1)^0,f,c
  8096  003708  4A11               	infsnz	??_atoi^0,f,c
  8097  00370A  2A12               	incf	(??_atoi+1)^0,f,c
  8098  00370C  C011  F00F         	movff	??_atoi,?_atoi
  8099  003710  C012  F010         	movff	??_atoi+1,?_atoi+1
  8100  003714  EF90  F01B         	goto	l1366
  8101  003718                     l1363:
  8102  003718  C01C  F00F         	movff	atoi@n,?_atoi
  8103  00371C  C01D  F010         	movff	atoi@n+1,?_atoi+1
  8104  003720                     l1366:
  8105  003720  0012               	return		;funcret
  8106  003722                     __end_of_atoi:
  8107                           	opt callstack 0
  8108                           
  8109 ;; *************** function _isspace *****************
  8110 ;; Defined at:
  8111 ;;		line 5 in file "C:\Program Files (x86)\Microchip\xc8\v2.10\pic\sources\c99\common\isspace.c"
  8112 ;; Parameters:    Size  Location     Type
  8113 ;;  c               2    7[COMRAM] int 
  8114 ;; Auto vars:     Size  Location     Type
  8115 ;;		None
  8116 ;; Return value:  Size  Location     Type
  8117 ;;                  2    7[COMRAM] int 
  8118 ;; Registers used:
  8119 ;;		wreg, status,2, status,0
  8120 ;; Tracked objects:
  8121 ;;		On entry : 0/0
  8122 ;;		On exit  : 0/0
  8123 ;;		Unchanged: 0/0
  8124 ;; Data sizes:     COMRAM   BANK0   BANK1   BANK2   BANK3   BANK4   BANK5   BANK6   BANK7   BANK8   BANK9  BANK10  BANK1
      +1  BANK12  BANK13  BANK14  BANK15
  8125 ;;      Params:         2       0       0       0       0       0       0       0       0       0       0       0       
      +0       0       0       0       0
  8126 ;;      Locals:         1       0       0       0       0       0       0       0       0       0       0       0       
      +0       0       0       0       0
  8127 ;;      Temps:          4       0       0       0       0       0       0       0       0       0       0       0       
      +0       0       0       0       0
  8128 ;;      Totals:         7       0       0       0       0       0       0       0       0       0       0       0       
      +0       0       0       0       0
  8129 ;;Total ram usage:        7 bytes
  8130 ;; Hardware stack levels used:    1
  8131 ;; Hardware stack levels required when called:    3
  8132 ;; This function calls:
  8133 ;;		Nothing
  8134 ;; This function is called by:
  8135 ;;		_atoi
  8136 ;; This function uses a non-reentrant model
  8137 ;;
  8138                           
  8139                           	psect	text29
  8140  00426E                     __ptext29:
  8141                           	opt callstack 0
  8142  00426E                     _isspace:
  8143                           	opt callstack 23
  8144  00426E  0E01               	movlw	1
  8145  004270  6E0E               	movwf	_isspace$2284^0,c
  8146  004272  0E20               	movlw	32
  8147  004274  1808               	xorwf	isspace@c^0,w,c
  8148  004276  1009               	iorwf	(isspace@c+1)^0,w,c
  8149  004278  B4D8               	btfsc	status,2,c
  8150  00427A  EF41  F021         	goto	u7251
  8151  00427E  EF43  F021         	goto	u7250
  8152  004282                     u7251:
  8153  004282  EF5C  F021         	goto	l5957
  8154  004286                     u7250:
  8155  004286  0EF7               	movlw	247
  8156  004288  6E0A               	movwf	??_isspace^0,c
  8157  00428A  0EFF               	movlw	255
  8158  00428C  6E0B               	movwf	(??_isspace+1)^0,c
  8159  00428E  C008  F00C         	movff	isspace@c,??_isspace+2
  8160  004292  C009  F00D         	movff	isspace@c+1,??_isspace+3
  8161  004296  500A               	movf	??_isspace^0,w,c
  8162  004298  260C               	addwf	(??_isspace+2)^0,f,c
  8163  00429A  500B               	movf	(??_isspace+1)^0,w,c
  8164  00429C  220D               	addwfc	(??_isspace+3)^0,f,c
  8165  00429E  500D               	movf	(??_isspace+3)^0,w,c
  8166  0042A0  E109               	bnz	u7260
  8167  0042A2  0E05               	movlw	5
  8168  0042A4  5C0C               	subwf	(??_isspace+2)^0,w,c
  8169  0042A6  A0D8               	btfss	status,0,c
  8170  0042A8  EF58  F021         	goto	u7261
  8171  0042AC  EF5A  F021         	goto	u7260
  8172  0042B0                     u7261:
  8173  0042B0  EF5C  F021         	goto	l5957
  8174  0042B4                     u7260:
  8175  0042B4  0E00               	movlw	0
  8176  0042B6  6E0E               	movwf	_isspace$2284^0,c
  8177  0042B8                     l5957:
  8178  0042B8  C00E  F008         	movff	_isspace$2284,?_isspace
  8179  0042BC  6A09               	clrf	(?_isspace+1)^0,c
  8180  0042BE  0012               	return		;funcret
  8181  0042C0                     __end_of_isspace:
  8182                           	opt callstack 0
  8183                           
  8184 ;; *************** function _isdigit *****************
  8185 ;; Defined at:
  8186 ;;		line 5 in file "C:\Program Files (x86)\Microchip\xc8\v2.10\pic\sources\c99\common\isdigit.c"
  8187 ;; Parameters:    Size  Location     Type
  8188 ;;  c               2    7[COMRAM] int 
  8189 ;; Auto vars:     Size  Location     Type
  8190 ;;		None
  8191 ;; Return value:  Size  Location     Type
  8192 ;;                  2    7[COMRAM] int 
  8193 ;; Registers used:
  8194 ;;		wreg, status,2, status,0
  8195 ;; Tracked objects:
  8196 ;;		On entry : 0/0
  8197 ;;		On exit  : 0/0
  8198 ;;		Unchanged: 0/0
  8199 ;; Data sizes:     COMRAM   BANK0   BANK1   BANK2   BANK3   BANK4   BANK5   BANK6   BANK7   BANK8   BANK9  BANK10  BANK1
      +1  BANK12  BANK13  BANK14  BANK15
  8200 ;;      Params:         2       0       0       0       0       0       0       0       0       0       0       0       
      +0       0       0       0       0
  8201 ;;      Locals:         0       0       0       0       0       0       0       0       0       0       0       0       
      +0       0       0       0       0
  8202 ;;      Temps:          4       0       0       0       0       0       0       0       0       0       0       0       
      +0       0       0       0       0
  8203 ;;      Totals:         6       0       0       0       0       0       0       0       0       0       0       0       
      +0       0       0       0       0
  8204 ;;Total ram usage:        6 bytes
  8205 ;; Hardware stack levels used:    1
  8206 ;; Hardware stack levels required when called:    3
  8207 ;; This function calls:
  8208 ;;		Nothing
  8209 ;; This function is called by:
  8210 ;;		_vfpfcnvrt
  8211 ;;		_atoi
  8212 ;; This function uses a non-reentrant model
  8213 ;;
  8214                           
  8215                           	psect	text30
  8216  004570                     __ptext30:
  8217                           	opt callstack 0
  8218  004570                     _isdigit:
  8219                           	opt callstack 24
  8220  004570  0ED0               	movlw	208
  8221  004572  6E0A               	movwf	??_isdigit^0,c
  8222  004574  0EFF               	movlw	255
  8223  004576  6E0B               	movwf	(??_isdigit+1)^0,c
  8224  004578  C008  F00C         	movff	isdigit@c,??_isdigit+2
  8225  00457C  C009  F00D         	movff	isdigit@c+1,??_isdigit+3
  8226  004580  500A               	movf	??_isdigit^0,w,c
  8227  004582  260C               	addwf	(??_isdigit+2)^0,f,c
  8228  004584  500B               	movf	(??_isdigit+1)^0,w,c
  8229  004586  220D               	addwfc	(??_isdigit+3)^0,f,c
  8230  004588  500D               	movf	(??_isdigit+3)^0,w,c
  8231  00458A  E10A               	bnz	u6530
  8232  00458C  0E0A               	movlw	10
  8233  00458E  5C0C               	subwf	(??_isdigit+2)^0,w,c
  8234  004590  A0D8               	btfss	status,0,c
  8235  004592  EFCD  F022         	goto	u6531
  8236  004596  EFD0  F022         	goto	u6530
  8237  00459A                     u6531:
  8238  00459A  0E01               	movlw	1
  8239  00459C  EFD1  F022         	goto	u6540
  8240  0045A0                     u6530:
  8241  0045A0  0E00               	movlw	0
  8242  0045A2                     u6540:
  8243  0045A2  6E08               	movwf	?_isdigit^0,c
  8244  0045A4  6A09               	clrf	(?_isdigit+1)^0,c
  8245  0045A6  0012               	return		;funcret
  8246  0045A8                     __end_of_isdigit:
  8247                           	opt callstack 0
  8248                           
  8249 ;; *************** function ___wmul *****************
  8250 ;; Defined at:
  8251 ;;		line 15 in file "C:\Program Files (x86)\Microchip\xc8\v2.10\pic\sources\c99\common\Umul16.c"
  8252 ;; Parameters:    Size  Location     Type
  8253 ;;  multiplier      2    7[COMRAM] unsigned int 
  8254 ;;  multiplicand    2    9[COMRAM] unsigned int 
  8255 ;; Auto vars:     Size  Location     Type
  8256 ;;  product         2   11[COMRAM] unsigned int 
  8257 ;; Return value:  Size  Location     Type
  8258 ;;                  2    7[COMRAM] unsigned int 
  8259 ;; Registers used:
  8260 ;;		wreg, status,2, status,0, prodl, prodh
  8261 ;; Tracked objects:
  8262 ;;		On entry : 0/0
  8263 ;;		On exit  : 0/0
  8264 ;;		Unchanged: 0/0
  8265 ;; Data sizes:     COMRAM   BANK0   BANK1   BANK2   BANK3   BANK4   BANK5   BANK6   BANK7   BANK8   BANK9  BANK10  BANK1
      +1  BANK12  BANK13  BANK14  BANK15
  8266 ;;      Params:         4       0       0       0       0       0       0       0       0       0       0       0       
      +0       0       0       0       0
  8267 ;;      Locals:         2       0       0       0       0       0       0       0       0       0       0       0       
      +0       0       0       0       0
  8268 ;;      Temps:          0       0       0       0       0       0       0       0       0       0       0       0       
      +0       0       0       0       0
  8269 ;;      Totals:         6       0       0       0       0       0       0       0       0       0       0       0       
      +0       0       0       0       0
  8270 ;;Total ram usage:        6 bytes
  8271 ;; Hardware stack levels used:    1
  8272 ;; Hardware stack levels required when called:    3
  8273 ;; This function calls:
  8274 ;;		Nothing
  8275 ;; This function is called by:
  8276 ;;		_atoi
  8277 ;; This function uses a non-reentrant model
  8278 ;;
  8279                           
  8280                           	psect	text31
  8281  0046EC                     __ptext31:
  8282                           	opt callstack 0
  8283  0046EC                     ___wmul:
  8284                           	opt callstack 23
  8285  0046EC  5008               	movf	___wmul@multiplier^0,w,c
  8286  0046EE  020A               	mulwf	___wmul@multiplicand^0,c
  8287  0046F0  CFF3 F00C          	movff	prodl,___wmul@product
  8288  0046F4  CFF4 F00D          	movff	prodh,___wmul@product+1
  8289  0046F8  5008               	movf	___wmul@multiplier^0,w,c
  8290  0046FA  020B               	mulwf	(___wmul@multiplicand+1)^0,c
  8291  0046FC  50F3               	movf	243,w,c
  8292  0046FE  260D               	addwf	(___wmul@product+1)^0,f,c
  8293  004700  5009               	movf	(___wmul@multiplier+1)^0,w,c
  8294  004702  020A               	mulwf	___wmul@multiplicand^0,c
  8295  004704  50F3               	movf	243,w,c
  8296  004706  260D               	addwf	(___wmul@product+1)^0,f,c
  8297  004708  C00C  F008         	movff	___wmul@product,?___wmul
  8298  00470C  C00D  F009         	movff	___wmul@product+1,?___wmul+1
  8299  004710  0012               	return		;funcret
  8300  004712                     __end_of___wmul:
  8301                           	opt callstack 0
  8302                           
  8303 ;; *************** function ___xxtofl *****************
  8304 ;; Defined at:
  8305 ;;		line 10 in file "C:\Program Files (x86)\Microchip\xc8\v2.10\pic\sources\c99\common\xxtofl.c"
  8306 ;; Parameters:    Size  Location     Type
  8307 ;;  sign            1    wreg     unsigned char 
  8308 ;;  val             4    7[COMRAM] long 
  8309 ;; Auto vars:     Size  Location     Type
  8310 ;;  sign            1   15[COMRAM] unsigned char 
  8311 ;;  arg             4   17[COMRAM] unsigned long 
  8312 ;;  exp             1   16[COMRAM] unsigned char 
  8313 ;; Return value:  Size  Location     Type
  8314 ;;                  4    7[COMRAM] unsigned char 
  8315 ;; Registers used:
  8316 ;;		wreg, status,2, status,0
  8317 ;; Tracked objects:
  8318 ;;		On entry : 0/0
  8319 ;;		On exit  : 0/0
  8320 ;;		Unchanged: 0/0
  8321 ;; Data sizes:     COMRAM   BANK0   BANK1   BANK2   BANK3   BANK4   BANK5   BANK6   BANK7   BANK8   BANK9  BANK10  BANK1
      +1  BANK12  BANK13  BANK14  BANK15
  8322 ;;      Params:         4       0       0       0       0       0       0       0       0       0       0       0       
      +0       0       0       0       0
  8323 ;;      Locals:         6       0       0       0       0       0       0       0       0       0       0       0       
      +0       0       0       0       0
  8324 ;;      Temps:          4       0       0       0       0       0       0       0       0       0       0       0       
      +0       0       0       0       0
  8325 ;;      Totals:        14       0       0       0       0       0       0       0       0       0       0       0       
      +0       0       0       0       0
  8326 ;;Total ram usage:       14 bytes
  8327 ;; Hardware stack levels used:    1
  8328 ;; Hardware stack levels required when called:    3
  8329 ;; This function calls:
  8330 ;;		Nothing
  8331 ;; This function is called by:
  8332 ;;		_main
  8333 ;; This function uses a non-reentrant model
  8334 ;;
  8335                           
  8336                           	psect	text32
  8337  0033D4                     __ptext32:
  8338                           	opt callstack 0
  8339  0033D4                     ___xxtofl:
  8340                           	opt callstack 27
  8341                           
  8342                           ;incstack = 0
  8343                           ;___xxtofl@sign stored from wreg
  8344  0033D4  6E10               	movwf	___xxtofl@sign^0,c
  8345  0033D6  5010               	movf	___xxtofl@sign^0,w,c
  8346  0033D8  B4D8               	btfsc	status,2,c
  8347  0033DA  EFF1  F019         	goto	u5581
  8348  0033DE  EFF3  F019         	goto	u5580
  8349  0033E2                     u5581:
  8350  0033E2  EF15  F01A         	goto	l1308
  8351  0033E6                     u5580:
  8352  0033E6  BE0B               	btfsc	(___xxtofl@val+3)^0,7,c
  8353  0033E8  EFFA  F019         	goto	u5590
  8354  0033EC  EFF8  F019         	goto	u5591
  8355  0033F0                     u5591:
  8356  0033F0  EF15  F01A         	goto	l1308
  8357  0033F4                     u5590:
  8358  0033F4  C008  F00C         	movff	___xxtofl@val,??___xxtofl
  8359  0033F8  C009  F00D         	movff	___xxtofl@val+1,??___xxtofl+1
  8360  0033FC  C00A  F00E         	movff	___xxtofl@val+2,??___xxtofl+2
  8361  003400  C00B  F00F         	movff	___xxtofl@val+3,??___xxtofl+3
  8362  003404  1E0C               	comf	??___xxtofl^0,f,c
  8363  003406  1E0D               	comf	(??___xxtofl+1)^0,f,c
  8364  003408  1E0E               	comf	(??___xxtofl+2)^0,f,c
  8365  00340A  1E0F               	comf	(??___xxtofl+3)^0,f,c
  8366  00340C  2A0C               	incf	??___xxtofl^0,f,c
  8367  00340E  0E00               	movlw	0
  8368  003410  220D               	addwfc	(??___xxtofl+1)^0,f,c
  8369  003412  220E               	addwfc	(??___xxtofl+2)^0,f,c
  8370  003414  220F               	addwfc	(??___xxtofl+3)^0,f,c
  8371  003416  C00C  F012         	movff	??___xxtofl,___xxtofl@arg
  8372  00341A  C00D  F013         	movff	??___xxtofl+1,___xxtofl@arg+1
  8373  00341E  C00E  F014         	movff	??___xxtofl+2,___xxtofl@arg+2
  8374  003422  C00F  F015         	movff	??___xxtofl+3,___xxtofl@arg+3
  8375  003426  EF1D  F01A         	goto	l4989
  8376  00342A                     l1308:
  8377  00342A  C008  F012         	movff	___xxtofl@val,___xxtofl@arg
  8378  00342E  C009  F013         	movff	___xxtofl@val+1,___xxtofl@arg+1
  8379  003432  C00A  F014         	movff	___xxtofl@val+2,___xxtofl@arg+2
  8380  003436  C00B  F015         	movff	___xxtofl@val+3,___xxtofl@arg+3
  8381  00343A                     l4989:
  8382  00343A  5008               	movf	___xxtofl@val^0,w,c
  8383  00343C  1009               	iorwf	(___xxtofl@val+1)^0,w,c
  8384  00343E  100A               	iorwf	(___xxtofl@val+2)^0,w,c
  8385  003440  100B               	iorwf	(___xxtofl@val+3)^0,w,c
  8386  003442  A4D8               	btfss	status,2,c
  8387  003444  EF26  F01A         	goto	u5601
  8388  003448  EF28  F01A         	goto	u5600
  8389  00344C                     u5601:
  8390  00344C  EF32  F01A         	goto	l4995
  8391  003450                     u5600:
  8392  003450  0E00               	movlw	0
  8393  003452  6E08               	movwf	?___xxtofl^0,c
  8394  003454  0E00               	movlw	0
  8395  003456  6E09               	movwf	(?___xxtofl+1)^0,c
  8396  003458  0E00               	movlw	0
  8397  00345A  6E0A               	movwf	(?___xxtofl+2)^0,c
  8398  00345C  0E00               	movlw	0
  8399  00345E  6E0B               	movwf	(?___xxtofl+3)^0,c
  8400  003460  EFC3  F01A         	goto	l1311
  8401  003464                     l4995:
  8402  003464  0E96               	movlw	150
  8403  003466  6E11               	movwf	___xxtofl@exp^0,c
  8404  003468  EF3C  F01A         	goto	l4999
  8405  00346C                     l4997:
  8406  00346C  2A11               	incf	___xxtofl@exp^0,f,c
  8407  00346E  90D8               	bcf	status,0,c
  8408  003470  3215               	rrcf	(___xxtofl@arg+3)^0,f,c
  8409  003472  3214               	rrcf	(___xxtofl@arg+2)^0,f,c
  8410  003474  3213               	rrcf	(___xxtofl@arg+1)^0,f,c
  8411  003476  3212               	rrcf	___xxtofl@arg^0,f,c
  8412  003478                     l4999:
  8413  003478  0E00               	movlw	0
  8414  00347A  1412               	andwf	___xxtofl@arg^0,w,c
  8415  00347C  6E0C               	movwf	??___xxtofl^0,c
  8416  00347E  0E00               	movlw	0
  8417  003480  1413               	andwf	(___xxtofl@arg+1)^0,w,c
  8418  003482  6E0D               	movwf	(??___xxtofl+1)^0,c
  8419  003484  0E00               	movlw	0
  8420  003486  1414               	andwf	(___xxtofl@arg+2)^0,w,c
  8421  003488  6E0E               	movwf	(??___xxtofl+2)^0,c
  8422  00348A  0EFE               	movlw	254
  8423  00348C  1415               	andwf	(___xxtofl@arg+3)^0,w,c
  8424  00348E  6E0F               	movwf	(??___xxtofl+3)^0,c
  8425  003490  500C               	movf	??___xxtofl^0,w,c
  8426  003492  100D               	iorwf	(??___xxtofl+1)^0,w,c
  8427  003494  100E               	iorwf	(??___xxtofl+2)^0,w,c
  8428  003496  100F               	iorwf	(??___xxtofl+3)^0,w,c
  8429  003498  A4D8               	btfss	status,2,c
  8430  00349A  EF51  F01A         	goto	u5611
  8431  00349E  EF53  F01A         	goto	u5610
  8432  0034A2                     u5611:
  8433  0034A2  EF36  F01A         	goto	l4997
  8434  0034A6                     u5610:
  8435  0034A6  EF61  F01A         	goto	l1315
  8436  0034AA                     l5001:
  8437  0034AA  2A11               	incf	___xxtofl@exp^0,f,c
  8438  0034AC  0E01               	movlw	1
  8439  0034AE  2612               	addwf	___xxtofl@arg^0,f,c
  8440  0034B0  0E00               	movlw	0
  8441  0034B2  2213               	addwfc	(___xxtofl@arg+1)^0,f,c
  8442  0034B4  2214               	addwfc	(___xxtofl@arg+2)^0,f,c
  8443  0034B6  2215               	addwfc	(___xxtofl@arg+3)^0,f,c
  8444  0034B8  90D8               	bcf	status,0,c
  8445  0034BA  3215               	rrcf	(___xxtofl@arg+3)^0,f,c
  8446  0034BC  3214               	rrcf	(___xxtofl@arg+2)^0,f,c
  8447  0034BE  3213               	rrcf	(___xxtofl@arg+1)^0,f,c
  8448  0034C0  3212               	rrcf	___xxtofl@arg^0,f,c
  8449  0034C2                     l1315:
  8450  0034C2  0E00               	movlw	0
  8451  0034C4  1412               	andwf	___xxtofl@arg^0,w,c
  8452  0034C6  6E0C               	movwf	??___xxtofl^0,c
  8453  0034C8  0E00               	movlw	0
  8454  0034CA  1413               	andwf	(___xxtofl@arg+1)^0,w,c
  8455  0034CC  6E0D               	movwf	(??___xxtofl+1)^0,c
  8456  0034CE  0E00               	movlw	0
  8457  0034D0  1414               	andwf	(___xxtofl@arg+2)^0,w,c
  8458  0034D2  6E0E               	movwf	(??___xxtofl+2)^0,c
  8459  0034D4  0EFF               	movlw	255
  8460  0034D6  1415               	andwf	(___xxtofl@arg+3)^0,w,c
  8461  0034D8  6E0F               	movwf	(??___xxtofl+3)^0,c
  8462  0034DA  500C               	movf	??___xxtofl^0,w,c
  8463  0034DC  100D               	iorwf	(??___xxtofl+1)^0,w,c
  8464  0034DE  100E               	iorwf	(??___xxtofl+2)^0,w,c
  8465  0034E0  100F               	iorwf	(??___xxtofl+3)^0,w,c
  8466  0034E2  A4D8               	btfss	status,2,c
  8467  0034E4  EF76  F01A         	goto	u5621
  8468  0034E8  EF78  F01A         	goto	u5620
  8469  0034EC                     u5621:
  8470  0034EC  EF55  F01A         	goto	l5001
  8471  0034F0                     u5620:
  8472  0034F0  EF80  F01A         	goto	l5009
  8473  0034F4                     l5007:
  8474  0034F4  0611               	decf	___xxtofl@exp^0,f,c
  8475  0034F6  90D8               	bcf	status,0,c
  8476  0034F8  3612               	rlcf	___xxtofl@arg^0,f,c
  8477  0034FA  3613               	rlcf	(___xxtofl@arg+1)^0,f,c
  8478  0034FC  3614               	rlcf	(___xxtofl@arg+2)^0,f,c
  8479  0034FE  3615               	rlcf	(___xxtofl@arg+3)^0,f,c
  8480  003500                     l5009:
  8481  003500  BE14               	btfsc	(___xxtofl@arg+2)^0,7,c
  8482  003502  EF85  F01A         	goto	u5631
  8483  003506  EF87  F01A         	goto	u5630
  8484  00350A                     u5631:
  8485  00350A  EF8F  F01A         	goto	l1322
  8486  00350E                     u5630:
  8487  00350E  0E02               	movlw	2
  8488  003510  6011               	cpfslt	___xxtofl@exp^0,c
  8489  003512  EF8D  F01A         	goto	u5641
  8490  003516  EF8F  F01A         	goto	u5640
  8491  00351A                     u5641:
  8492  00351A  EF7A  F01A         	goto	l5007
  8493  00351E                     u5640:
  8494  00351E                     l1322:
  8495  00351E  B011               	btfsc	___xxtofl@exp^0,0,c
  8496  003520  EF94  F01A         	goto	u5651
  8497  003524  EF96  F01A         	goto	u5650
  8498  003528                     u5651:
  8499  003528  EF97  F01A         	goto	l5015
  8500  00352C                     u5650:
  8501  00352C  9E14               	bcf	(___xxtofl@arg+2)^0,7,c
  8502  00352E                     l5015:
  8503  00352E  90D8               	bcf	status,0,c
  8504  003530  3211               	rrcf	___xxtofl@exp^0,f,c
  8505  003532  C011  F00C         	movff	___xxtofl@exp,??___xxtofl
  8506  003536  6A0D               	clrf	(??___xxtofl+1)^0,c
  8507  003538  6A0E               	clrf	(??___xxtofl+2)^0,c
  8508  00353A  6A0F               	clrf	(??___xxtofl+3)^0,c
  8509  00353C  C00C  F00F         	movff	??___xxtofl,??___xxtofl+3
  8510  003540  6A0E               	clrf	(??___xxtofl+2)^0,c
  8511  003542  6A0D               	clrf	(??___xxtofl+1)^0,c
  8512  003544  6A0C               	clrf	??___xxtofl^0,c
  8513  003546  500C               	movf	??___xxtofl^0,w,c
  8514  003548  1212               	iorwf	___xxtofl@arg^0,f,c
  8515  00354A  500D               	movf	(??___xxtofl+1)^0,w,c
  8516  00354C  1213               	iorwf	(___xxtofl@arg+1)^0,f,c
  8517  00354E  500E               	movf	(??___xxtofl+2)^0,w,c
  8518  003550  1214               	iorwf	(___xxtofl@arg+2)^0,f,c
  8519  003552  500F               	movf	(??___xxtofl+3)^0,w,c
  8520  003554  1215               	iorwf	(___xxtofl@arg+3)^0,f,c
  8521  003556  5010               	movf	___xxtofl@sign^0,w,c
  8522  003558  B4D8               	btfsc	status,2,c
  8523  00355A  EFB1  F01A         	goto	u5661
  8524  00355E  EFB3  F01A         	goto	u5660
  8525  003562                     u5661:
  8526  003562  EFBB  F01A         	goto	l5025
  8527  003566                     u5660:
  8528  003566  BE0B               	btfsc	(___xxtofl@val+3)^0,7,c
  8529  003568  EFBA  F01A         	goto	u5670
  8530  00356C  EFB8  F01A         	goto	u5671
  8531  003570                     u5671:
  8532  003570  EFBB  F01A         	goto	l5025
  8533  003574                     u5670:
  8534  003574  8E15               	bsf	(___xxtofl@arg+3)^0,7,c
  8535  003576                     l5025:
  8536  003576  C012  F008         	movff	___xxtofl@arg,?___xxtofl
  8537  00357A  C013  F009         	movff	___xxtofl@arg+1,?___xxtofl+1
  8538  00357E  C014  F00A         	movff	___xxtofl@arg+2,?___xxtofl+2
  8539  003582  C015  F00B         	movff	___xxtofl@arg+3,?___xxtofl+3
  8540  003586                     l1311:
  8541  003586  0012               	return		;funcret
  8542  003588                     __end_of___xxtofl:
  8543                           	opt callstack 0
  8544                           
  8545 ;; *************** function _SYSTEM_Initialize *****************
  8546 ;; Defined at:
  8547 ;;		line 50 in file "mcc_generated_files/mcc.c"
  8548 ;; Parameters:    Size  Location     Type
  8549 ;;		None
  8550 ;; Auto vars:     Size  Location     Type
  8551 ;;		None
  8552 ;; Return value:  Size  Location     Type
  8553 ;;                  1    wreg      void 
  8554 ;; Registers used:
  8555 ;;		wreg, status,2, status,0, cstack
  8556 ;; Tracked objects:
  8557 ;;		On entry : 0/0
  8558 ;;		On exit  : 0/0
  8559 ;;		Unchanged: 0/0
  8560 ;; Data sizes:     COMRAM   BANK0   BANK1   BANK2   BANK3   BANK4   BANK5   BANK6   BANK7   BANK8   BANK9  BANK10  BANK1
      +1  BANK12  BANK13  BANK14  BANK15
  8561 ;;      Params:         0       0       0       0       0       0       0       0       0       0       0       0       
      +0       0       0       0       0
  8562 ;;      Locals:         0       0       0       0       0       0       0       0       0       0       0       0       
      +0       0       0       0       0
  8563 ;;      Temps:          0       0       0       0       0       0       0       0       0       0       0       0       
      +0       0       0       0       0
  8564 ;;      Totals:         0       0       0       0       0       0       0       0       0       0       0       0       
      +0       0       0       0       0
  8565 ;;Total ram usage:        0 bytes
  8566 ;; Hardware stack levels used:    1
  8567 ;; Hardware stack levels required when called:    5
  8568 ;; This function calls:
  8569 ;;		_EUSART1_Initialize
  8570 ;;		_I2C1_Initialize
  8571 ;;		_INTERRUPT_Initialize
  8572 ;;		_OSCILLATOR_Initialize
  8573 ;;		_PIN_MANAGER_Initialize
  8574 ;; This function is called by:
  8575 ;;		_main
  8576 ;; This function uses a non-reentrant model
  8577 ;;
  8578                           
  8579                           	psect	text33
  8580  0047A2                     __ptext33:
  8581                           	opt callstack 0
  8582  0047A2                     _SYSTEM_Initialize:
  8583                           	opt callstack 25
  8584  0047A2                     
  8585                           ;mcc_generated_files/mcc.c: 53:     INTERRUPT_Initialize();
  8586  0047A2  EC00  F024         	call	_INTERRUPT_Initialize	;wreg free
  8587  0047A6                     
  8588                           ;mcc_generated_files/mcc.c: 54:     PIN_MANAGER_Initialize();
  8589  0047A6  ECCA  F021         	call	_PIN_MANAGER_Initialize	;wreg free
  8590  0047AA                     
  8591                           ;mcc_generated_files/mcc.c: 55:     OSCILLATOR_Initialize();
  8592  0047AA  ECE5  F023         	call	_OSCILLATOR_Initialize	;wreg free
  8593  0047AE                     
  8594                           ;mcc_generated_files/mcc.c: 56:     I2C1_Initialize();
  8595  0047AE  ECEF  F022         	call	_I2C1_Initialize	;wreg free
  8596  0047B2                     
  8597                           ;mcc_generated_files/mcc.c: 57:     EUSART1_Initialize();
  8598  0047B2  ECEA  F021         	call	_EUSART1_Initialize	;wreg free
  8599  0047B6  0012               	return		;funcret
  8600  0047B8                     __end_of_SYSTEM_Initialize:
  8601                           	opt callstack 0
  8602                           
  8603 ;; *************** function _PIN_MANAGER_Initialize *****************
  8604 ;; Defined at:
  8605 ;;		line 55 in file "mcc_generated_files/pin_manager.c"
  8606 ;; Parameters:    Size  Location     Type
  8607 ;;		None
  8608 ;; Auto vars:     Size  Location     Type
  8609 ;;		None
  8610 ;; Return value:  Size  Location     Type
  8611 ;;                  1    wreg      void 
  8612 ;; Registers used:
  8613 ;;		wreg, status,2
  8614 ;; Tracked objects:
  8615 ;;		On entry : 0/0
  8616 ;;		On exit  : 0/0
  8617 ;;		Unchanged: 0/0
  8618 ;; Data sizes:     COMRAM   BANK0   BANK1   BANK2   BANK3   BANK4   BANK5   BANK6   BANK7   BANK8   BANK9  BANK10  BANK1
      +1  BANK12  BANK13  BANK14  BANK15
  8619 ;;      Params:         0       0       0       0       0       0       0       0       0       0       0       0       
      +0       0       0       0       0
  8620 ;;      Locals:         0       0       0       0       0       0       0       0       0       0       0       0       
      +0       0       0       0       0
  8621 ;;      Temps:          0       0       0       0       0       0       0       0       0       0       0       0       
      +0       0       0       0       0
  8622 ;;      Totals:         0       0       0       0       0       0       0       0       0       0       0       0       
      +0       0       0       0       0
  8623 ;;Total ram usage:        0 bytes
  8624 ;; Hardware stack levels used:    1
  8625 ;; Hardware stack levels required when called:    3
  8626 ;; This function calls:
  8627 ;;		Nothing
  8628 ;; This function is called by:
  8629 ;;		_SYSTEM_Initialize
  8630 ;; This function uses a non-reentrant model
  8631 ;;
  8632                           
  8633                           	psect	text34
  8634  004394                     __ptext34:
  8635                           	opt callstack 0
  8636  004394                     _PIN_MANAGER_Initialize:
  8637                           	opt callstack 26
  8638  004394                     
  8639                           ;mcc_generated_files/pin_manager.c: 60:     LATE = 0x00;
  8640  004394  0E00               	movlw	0
  8641  004396  6E8D               	movwf	141,c	;volatile
  8642                           
  8643                           ;mcc_generated_files/pin_manager.c: 61:     LATD = 0x00;
  8644  004398  0E00               	movlw	0
  8645  00439A  6E8C               	movwf	140,c	;volatile
  8646                           
  8647                           ;mcc_generated_files/pin_manager.c: 62:     LATA = 0x20;
  8648  00439C  0E20               	movlw	32
  8649  00439E  6E89               	movwf	137,c	;volatile
  8650                           
  8651                           ;mcc_generated_files/pin_manager.c: 63:     LATB = 0x00;
  8652  0043A0  0E00               	movlw	0
  8653  0043A2  6E8A               	movwf	138,c	;volatile
  8654                           
  8655                           ;mcc_generated_files/pin_manager.c: 64:     LATC = 0x00;
  8656  0043A4  0E00               	movlw	0
  8657  0043A6  6E8B               	movwf	139,c	;volatile
  8658                           
  8659                           ;mcc_generated_files/pin_manager.c: 69:     TRISE = 0x07;
  8660  0043A8  0E07               	movlw	7
  8661  0043AA  6E96               	movwf	150,c	;volatile
  8662  0043AC                     
  8663                           ;mcc_generated_files/pin_manager.c: 70:     TRISA = 0xFF;
  8664  0043AC  6892               	setf	146,c	;volatile
  8665                           
  8666                           ;mcc_generated_files/pin_manager.c: 71:     TRISB = 0x00;
  8667  0043AE  0E00               	movlw	0
  8668  0043B0  6E93               	movwf	147,c	;volatile
  8669                           
  8670                           ;mcc_generated_files/pin_manager.c: 72:     TRISC = 0xBF;
  8671  0043B2  0EBF               	movlw	191
  8672  0043B4  6E94               	movwf	148,c	;volatile
  8673  0043B6                     
  8674                           ;mcc_generated_files/pin_manager.c: 73:     TRISD = 0xFF;
  8675  0043B6  6895               	setf	149,c	;volatile
  8676  0043B8                     
  8677                           ;mcc_generated_files/pin_manager.c: 78:     ANSELD = 0xFF;
  8678  0043B8  010F               	movlb	15	; () banked
  8679  0043BA  693B               	setf	59,b	;volatile
  8680                           
  8681                           ;mcc_generated_files/pin_manager.c: 79:     ANSELC = 0x24;
  8682  0043BC  0E24               	movlw	36
  8683  0043BE  6F3A               	movwf	58,b	;volatile
  8684                           
  8685                           ;mcc_generated_files/pin_manager.c: 80:     ANSELB = 0x00;
  8686  0043C0  0E00               	movlw	0
  8687  0043C2  6F39               	movwf	57,b	;volatile
  8688                           
  8689                           ;mcc_generated_files/pin_manager.c: 81:     ANSELE = 0x07;
  8690  0043C4  0E07               	movlw	7
  8691  0043C6  6F3C               	movwf	60,b	;volatile
  8692                           
  8693                           ;mcc_generated_files/pin_manager.c: 82:     ANSELA = 0x0F;
  8694  0043C8  0E0F               	movlw	15
  8695  0043CA  6F38               	movwf	56,b	;volatile
  8696                           
  8697                           ;mcc_generated_files/pin_manager.c: 87:     WPUB = 0x00;
  8698  0043CC  0E00               	movlw	0
  8699  0043CE  6E61               	movwf	97,c	;volatile
  8700  0043D0                     
  8701                           ; BSR set to: 15
  8702                           ;mcc_generated_files/pin_manager.c: 88:     INTCON2bits.nRBPU = 1;
  8703  0043D0  8EF1               	bsf	241,7,c	;volatile
  8704  0043D2                     
  8705                           ; BSR set to: 15
  8706  0043D2  0012               	return		;funcret
  8707  0043D4                     __end_of_PIN_MANAGER_Initialize:
  8708                           	opt callstack 0
  8709                           
  8710 ;; *************** function _OSCILLATOR_Initialize *****************
  8711 ;; Defined at:
  8712 ;;		line 60 in file "mcc_generated_files/mcc.c"
  8713 ;; Parameters:    Size  Location     Type
  8714 ;;		None
  8715 ;; Auto vars:     Size  Location     Type
  8716 ;;		None
  8717 ;; Return value:  Size  Location     Type
  8718 ;;                  1    wreg      void 
  8719 ;; Registers used:
  8720 ;;		wreg, status,2
  8721 ;; Tracked objects:
  8722 ;;		On entry : 0/0
  8723 ;;		On exit  : 0/0
  8724 ;;		Unchanged: 0/0
  8725 ;; Data sizes:     COMRAM   BANK0   BANK1   BANK2   BANK3   BANK4   BANK5   BANK6   BANK7   BANK8   BANK9  BANK10  BANK1
      +1  BANK12  BANK13  BANK14  BANK15
  8726 ;;      Params:         0       0       0       0       0       0       0       0       0       0       0       0       
      +0       0       0       0       0
  8727 ;;      Locals:         0       0       0       0       0       0       0       0       0       0       0       0       
      +0       0       0       0       0
  8728 ;;      Temps:          0       0       0       0       0       0       0       0       0       0       0       0       
      +0       0       0       0       0
  8729 ;;      Totals:         0       0       0       0       0       0       0       0       0       0       0       0       
      +0       0       0       0       0
  8730 ;;Total ram usage:        0 bytes
  8731 ;; Hardware stack levels used:    1
  8732 ;; Hardware stack levels required when called:    3
  8733 ;; This function calls:
  8734 ;;		Nothing
  8735 ;; This function is called by:
  8736 ;;		_SYSTEM_Initialize
  8737 ;; This function uses a non-reentrant model
  8738 ;;
  8739                           
  8740                           	psect	text35
  8741  0047CA                     __ptext35:
  8742                           	opt callstack 0
  8743  0047CA                     _OSCILLATOR_Initialize:
  8744                           	opt callstack 26
  8745  0047CA                     
  8746                           ;mcc_generated_files/mcc.c: 63:     OSCCON = 0x60;
  8747  0047CA  0E60               	movlw	96
  8748  0047CC  6ED3               	movwf	211,c	;volatile
  8749                           
  8750                           ;mcc_generated_files/mcc.c: 65:     OSCCON2 = 0x04;
  8751  0047CE  0E04               	movlw	4
  8752  0047D0  6ED2               	movwf	210,c	;volatile
  8753                           
  8754                           ;mcc_generated_files/mcc.c: 67:     OSCTUNE = 0x00;
  8755  0047D2  0E00               	movlw	0
  8756  0047D4  6E9B               	movwf	155,c	;volatile
  8757  0047D6  0012               	return		;funcret
  8758  0047D8                     __end_of_OSCILLATOR_Initialize:
  8759                           	opt callstack 0
  8760                           
  8761 ;; *************** function _INTERRUPT_Initialize *****************
  8762 ;; Defined at:
  8763 ;;		line 52 in file "mcc_generated_files/interrupt_manager.c"
  8764 ;; Parameters:    Size  Location     Type
  8765 ;;		None
  8766 ;; Auto vars:     Size  Location     Type
  8767 ;;		None
  8768 ;; Return value:  Size  Location     Type
  8769 ;;                  1    wreg      void 
  8770 ;; Registers used:
  8771 ;;		None
  8772 ;; Tracked objects:
  8773 ;;		On entry : 0/0
  8774 ;;		On exit  : 0/0
  8775 ;;		Unchanged: 0/0
  8776 ;; Data sizes:     COMRAM   BANK0   BANK1   BANK2   BANK3   BANK4   BANK5   BANK6   BANK7   BANK8   BANK9  BANK10  BANK1
      +1  BANK12  BANK13  BANK14  BANK15
  8777 ;;      Params:         0       0       0       0       0       0       0       0       0       0       0       0       
      +0       0       0       0       0
  8778 ;;      Locals:         0       0       0       0       0       0       0       0       0       0       0       0       
      +0       0       0       0       0
  8779 ;;      Temps:          0       0       0       0       0       0       0       0       0       0       0       0       
      +0       0       0       0       0
  8780 ;;      Totals:         0       0       0       0       0       0       0       0       0       0       0       0       
      +0       0       0       0       0
  8781 ;;Total ram usage:        0 bytes
  8782 ;; Hardware stack levels used:    1
  8783 ;; Hardware stack levels required when called:    3
  8784 ;; This function calls:
  8785 ;;		Nothing
  8786 ;; This function is called by:
  8787 ;;		_SYSTEM_Initialize
  8788 ;; This function uses a non-reentrant model
  8789 ;;
  8790                           
  8791                           	psect	text36
  8792  004800                     __ptext36:
  8793                           	opt callstack 0
  8794  004800                     _INTERRUPT_Initialize:
  8795                           	opt callstack 26
  8796  004800                     
  8797                           ;mcc_generated_files/interrupt_manager.c: 55:     RCONbits.IPEN = 0;
  8798  004800  9ED0               	bcf	208,7,c	;volatile
  8799  004802  0012               	return		;funcret
  8800  004804                     __end_of_INTERRUPT_Initialize:
  8801                           	opt callstack 0
  8802                           
  8803 ;; *************** function _I2C1_Initialize *****************
  8804 ;; Defined at:
  8805 ;;		line 198 in file "mcc_generated_files/i2c1.c"
  8806 ;; Parameters:    Size  Location     Type
  8807 ;;		None
  8808 ;; Auto vars:     Size  Location     Type
  8809 ;;		None
  8810 ;; Return value:  Size  Location     Type
  8811 ;;                  1    wreg      void 
  8812 ;; Registers used:
  8813 ;;		wreg, status,2, status,0
  8814 ;; Tracked objects:
  8815 ;;		On entry : 0/0
  8816 ;;		On exit  : 0/0
  8817 ;;		Unchanged: 0/0
  8818 ;; Data sizes:     COMRAM   BANK0   BANK1   BANK2   BANK3   BANK4   BANK5   BANK6   BANK7   BANK8   BANK9  BANK10  BANK1
      +1  BANK12  BANK13  BANK14  BANK15
  8819 ;;      Params:         0       0       0       0       0       0       0       0       0       0       0       0       
      +0       0       0       0       0
  8820 ;;      Locals:         0       0       0       0       0       0       0       0       0       0       0       0       
      +0       0       0       0       0
  8821 ;;      Temps:          0       0       0       0       0       0       0       0       0       0       0       0       
      +0       0       0       0       0
  8822 ;;      Totals:         0       0       0       0       0       0       0       0       0       0       0       0       
      +0       0       0       0       0
  8823 ;;Total ram usage:        0 bytes
  8824 ;; Hardware stack levels used:    1
  8825 ;; Hardware stack levels required when called:    3
  8826 ;; This function calls:
  8827 ;;		Nothing
  8828 ;; This function is called by:
  8829 ;;		_SYSTEM_Initialize
  8830 ;; This function uses a non-reentrant model
  8831 ;;
  8832                           
  8833                           	psect	text37
  8834  0045DE                     __ptext37:
  8835                           	opt callstack 0
  8836  0045DE                     _I2C1_Initialize:
  8837                           	opt callstack 26
  8838  0045DE                     
  8839                           ;mcc_generated_files/i2c1.c: 200:     i2c1_object.pTrHead = i2c1_tr_queue;
  8840  0045DE  0EFA               	movlw	low _i2c1_tr_queue
  8841  0045E0  0100               	movlb	0	; () banked
  8842  0045E2  6FDE               	movwf	(_i2c1_object+2)& (0+255),b
  8843  0045E4  0E00               	movlw	high _i2c1_tr_queue
  8844  0045E6  6FDF               	movwf	(_i2c1_object+3)& (0+255),b
  8845                           
  8846                           ;mcc_generated_files/i2c1.c: 201:     i2c1_object.pTrTail = i2c1_tr_queue;
  8847  0045E8  0EFA               	movlw	low _i2c1_tr_queue
  8848  0045EA  6FDC               	movwf	_i2c1_object& (0+255),b
  8849  0045EC  0E00               	movlw	high _i2c1_tr_queue
  8850  0045EE  6FDD               	movwf	(_i2c1_object+1)& (0+255),b
  8851  0045F0                     
  8852                           ; BSR set to: 0
  8853                           ;mcc_generated_files/i2c1.c: 202:     i2c1_object.trStatus.s.empty = 1;
  8854  0045F0  83E0               	bsf	(_i2c1_object+4)& (0+255),1,b
  8855  0045F2                     
  8856                           ; BSR set to: 0
  8857                           ;mcc_generated_files/i2c1.c: 203:     i2c1_object.trStatus.s.full = 0;
  8858  0045F2  91E0               	bcf	(_i2c1_object+4)& (0+255),0,b
  8859  0045F4                     
  8860                           ; BSR set to: 0
  8861                           ;mcc_generated_files/i2c1.c: 205:     i2c1_object.i2cErrors = 0;
  8862  0045F4  0E00               	movlw	0
  8863  0045F6  6FE2               	movwf	(_i2c1_object+6)& (0+255),b
  8864  0045F8                     
  8865                           ; BSR set to: 0
  8866                           ;mcc_generated_files/i2c1.c: 208:     SSP1STAT = 0x00;
  8867  0045F8  0E00               	movlw	0
  8868  0045FA  6EC7               	movwf	199,c	;volatile
  8869  0045FC                     
  8870                           ; BSR set to: 0
  8871                           ;mcc_generated_files/i2c1.c: 210:     SSP1CON1 = 0x28;
  8872  0045FC  0E28               	movlw	40
  8873  0045FE  6EC6               	movwf	198,c	;volatile
  8874  004600                     
  8875                           ; BSR set to: 0
  8876                           ;mcc_generated_files/i2c1.c: 212:     SSP1CON3 = 0x00;
  8877  004600  0E00               	movlw	0
  8878  004602  6ECB               	movwf	203,c	;volatile
  8879  004604                     
  8880                           ; BSR set to: 0
  8881                           ;mcc_generated_files/i2c1.c: 214:     SSP1ADD = 0x04;
  8882  004604  0E04               	movlw	4
  8883  004606  6EC8               	movwf	200,c	;volatile
  8884  004608                     
  8885                           ; BSR set to: 0
  8886                           ;mcc_generated_files/i2c1.c: 217:     PIR1bits.SSP1IF = 0;
  8887  004608  969E               	bcf	158,3,c	;volatile
  8888  00460A                     
  8889                           ; BSR set to: 0
  8890                           ;mcc_generated_files/i2c1.c: 218:     PIR2bits.BCL1IF = 0;
  8891  00460A  96A1               	bcf	161,3,c	;volatile
  8892  00460C                     
  8893                           ; BSR set to: 0
  8894                           ;mcc_generated_files/i2c1.c: 221:     PIE1bits.SSP1IE = 1;
  8895  00460C  869D               	bsf	157,3,c	;volatile
  8896  00460E                     
  8897                           ; BSR set to: 0
  8898                           ;mcc_generated_files/i2c1.c: 222:     PIE2bits.BCL1IE = 1;
  8899  00460E  86A0               	bsf	160,3,c	;volatile
  8900  004610                     
  8901                           ; BSR set to: 0
  8902  004610  0012               	return		;funcret
  8903  004612                     __end_of_I2C1_Initialize:
  8904                           	opt callstack 0
  8905                           
  8906 ;; *************** function _EUSART1_Initialize *****************
  8907 ;; Defined at:
  8908 ;;		line 66 in file "mcc_generated_files/eusart1.c"
  8909 ;; Parameters:    Size  Location     Type
  8910 ;;		None
  8911 ;; Auto vars:     Size  Location     Type
  8912 ;;		None
  8913 ;; Return value:  Size  Location     Type
  8914 ;;                  1    wreg      void 
  8915 ;; Registers used:
  8916 ;;		wreg, status,2, status,0, cstack
  8917 ;; Tracked objects:
  8918 ;;		On entry : 0/0
  8919 ;;		On exit  : 0/0
  8920 ;;		Unchanged: 0/0
  8921 ;; Data sizes:     COMRAM   BANK0   BANK1   BANK2   BANK3   BANK4   BANK5   BANK6   BANK7   BANK8   BANK9  BANK10  BANK1
      +1  BANK12  BANK13  BANK14  BANK15
  8922 ;;      Params:         0       0       0       0       0       0       0       0       0       0       0       0       
      +0       0       0       0       0
  8923 ;;      Locals:         0       0       0       0       0       0       0       0       0       0       0       0       
      +0       0       0       0       0
  8924 ;;      Temps:          0       0       0       0       0       0       0       0       0       0       0       0       
      +0       0       0       0       0
  8925 ;;      Totals:         0       0       0       0       0       0       0       0       0       0       0       0       
      +0       0       0       0       0
  8926 ;;Total ram usage:        0 bytes
  8927 ;; Hardware stack levels used:    1
  8928 ;; Hardware stack levels required when called:    4
  8929 ;; This function calls:
  8930 ;;		_EUSART1_SetErrorHandler
  8931 ;;		_EUSART1_SetFramingErrorHandler
  8932 ;;		_EUSART1_SetOverrunErrorHandler
  8933 ;; This function is called by:
  8934 ;;		_SYSTEM_Initialize
  8935 ;; This function uses a non-reentrant model
  8936 ;;
  8937                           
  8938                           	psect	text38
  8939  0043D4                     __ptext38:
  8940                           	opt callstack 0
  8941  0043D4                     _EUSART1_Initialize:
  8942                           	opt callstack 25
  8943  0043D4                     
  8944                           ;mcc_generated_files/eusart1.c: 71:     BAUDCON1 = 0x08;
  8945  0043D4  0E08               	movlw	8
  8946  0043D6  6EB8               	movwf	184,c	;volatile
  8947                           
  8948                           ;mcc_generated_files/eusart1.c: 74:     RCSTA1 = 0x90;
  8949  0043D8  0E90               	movlw	144
  8950  0043DA  6EAB               	movwf	171,c	;volatile
  8951                           
  8952                           ;mcc_generated_files/eusart1.c: 77:     TXSTA1 = 0x24;
  8953  0043DC  0E24               	movlw	36
  8954  0043DE  6EAC               	movwf	172,c	;volatile
  8955                           
  8956                           ;mcc_generated_files/eusart1.c: 80:     SPBRG1 = 0xCF;
  8957  0043E0  0ECF               	movlw	207
  8958  0043E2  6EAF               	movwf	175,c	;volatile
  8959                           
  8960                           ;mcc_generated_files/eusart1.c: 83:     SPBRGH1 = 0x00;
  8961  0043E4  0E00               	movlw	0
  8962  0043E6  6EB0               	movwf	176,c	;volatile
  8963  0043E8                     
  8964                           ;mcc_generated_files/eusart1.c: 86:     EUSART1_SetFramingErrorHandler(EUSART1_DefaultFr
      +                          amingErrorHandler);
  8965  0043E8  0E00               	movlw	0
  8966  0043EA  6E08               	movwf	EUSART1_SetFramingErrorHandler@interruptHandler^0,c
  8967  0043EC  0E00               	movlw	0
  8968  0043EE  6E09               	movwf	(EUSART1_SetFramingErrorHandler@interruptHandler+1)^0,c
  8969  0043F0  ECF6  F023         	call	_EUSART1_SetFramingErrorHandler	;wreg free
  8970  0043F4                     
  8971                           ;mcc_generated_files/eusart1.c: 87:     EUSART1_SetOverrunErrorHandler(EUSART1_DefaultOv
      +                          errunErrorHandler);
  8972  0043F4  0E00               	movlw	0
  8973  0043F6  6E08               	movwf	EUSART1_SetOverrunErrorHandler@interruptHandler^0,c
  8974  0043F8  0E00               	movlw	0
  8975  0043FA  6E09               	movwf	(EUSART1_SetOverrunErrorHandler@interruptHandler+1)^0,c
  8976  0043FC  ECF1  F023         	call	_EUSART1_SetOverrunErrorHandler	;wreg free
  8977  004400                     
  8978                           ;mcc_generated_files/eusart1.c: 88:     EUSART1_SetErrorHandler(EUSART1_DefaultErrorHand
      +                          ler);
  8979  004400  0E00               	movlw	0
  8980  004402  6E08               	movwf	EUSART1_SetErrorHandler@interruptHandler^0,c
  8981  004404  0E00               	movlw	0
  8982  004406  6E09               	movwf	(EUSART1_SetErrorHandler@interruptHandler+1)^0,c
  8983  004408  ECFB  F023         	call	_EUSART1_SetErrorHandler	;wreg free
  8984  00440C                     
  8985                           ;mcc_generated_files/eusart1.c: 90:     eusart1RxLastError.status = 0;
  8986  00440C  0E00               	movlw	0
  8987  00440E  0100               	movlb	0	; () banked
  8988  004410  6FF9               	movwf	_eusart1RxLastError& (0+255),b	;volatile
  8989  004412                     
  8990                           ; BSR set to: 0
  8991  004412  0012               	return		;funcret
  8992  004414                     __end_of_EUSART1_Initialize:
  8993                           	opt callstack 0
  8994                           
  8995 ;; *************** function _EUSART1_SetOverrunErrorHandler *****************
  8996 ;; Defined at:
  8997 ;;		line 170 in file "mcc_generated_files/eusart1.c"
  8998 ;; Parameters:    Size  Location     Type
  8999 ;;  interruptHan    2    7[COMRAM] PTR FTN()void 
  9000 ;;		 -> EUSART1_DefaultOverrunErrorHandler(1), 
  9001 ;; Auto vars:     Size  Location     Type
  9002 ;;		None
  9003 ;; Return value:  Size  Location     Type
  9004 ;;                  1    wreg      void 
  9005 ;; Registers used:
  9006 ;;		wreg, status,2, status,0
  9007 ;; Tracked objects:
  9008 ;;		On entry : 0/0
  9009 ;;		On exit  : 0/0
  9010 ;;		Unchanged: 0/0
  9011 ;; Data sizes:     COMRAM   BANK0   BANK1   BANK2   BANK3   BANK4   BANK5   BANK6   BANK7   BANK8   BANK9  BANK10  BANK1
      +1  BANK12  BANK13  BANK14  BANK15
  9012 ;;      Params:         2       0       0       0       0       0       0       0       0       0       0       0       
      +0       0       0       0       0
  9013 ;;      Locals:         0       0       0       0       0       0       0       0       0       0       0       0       
      +0       0       0       0       0
  9014 ;;      Temps:          0       0       0       0       0       0       0       0       0       0       0       0       
      +0       0       0       0       0
  9015 ;;      Totals:         2       0       0       0       0       0       0       0       0       0       0       0       
      +0       0       0       0       0
  9016 ;;Total ram usage:        2 bytes
  9017 ;; Hardware stack levels used:    1
  9018 ;; Hardware stack levels required when called:    3
  9019 ;; This function calls:
  9020 ;;		Nothing
  9021 ;; This function is called by:
  9022 ;;		_EUSART1_Initialize
  9023 ;; This function uses a non-reentrant model
  9024 ;;
  9025                           
  9026                           	psect	text39
  9027  0047E2                     __ptext39:
  9028                           	opt callstack 0
  9029  0047E2                     _EUSART1_SetOverrunErrorHandler:
  9030                           	opt callstack 25
  9031  0047E2                     
  9032                           ;mcc_generated_files/eusart1.c: 171:     EUSART1_OverrunErrorHandler = interruptHandler;
  9033  0047E2  C008  F182         	movff	EUSART1_SetOverrunErrorHandler@interruptHandler,_EUSART1_OverrunErrorHandler
  9034  0047E6  C009  F183         	movff	EUSART1_SetOverrunErrorHandler@interruptHandler+1,_EUSART1_OverrunErrorHandler+1
  9035  0047EA  0012               	return		;funcret
  9036  0047EC                     __end_of_EUSART1_SetOverrunErrorHandler:
  9037                           	opt callstack 0
  9038                           
  9039 ;; *************** function _EUSART1_SetFramingErrorHandler *****************
  9040 ;; Defined at:
  9041 ;;		line 166 in file "mcc_generated_files/eusart1.c"
  9042 ;; Parameters:    Size  Location     Type
  9043 ;;  interruptHan    2    7[COMRAM] PTR FTN()void 
  9044 ;;		 -> EUSART1_DefaultFramingErrorHandler(1), 
  9045 ;; Auto vars:     Size  Location     Type
  9046 ;;		None
  9047 ;; Return value:  Size  Location     Type
  9048 ;;                  1    wreg      void 
  9049 ;; Registers used:
  9050 ;;		wreg, status,2, status,0
  9051 ;; Tracked objects:
  9052 ;;		On entry : 0/0
  9053 ;;		On exit  : 0/0
  9054 ;;		Unchanged: 0/0
  9055 ;; Data sizes:     COMRAM   BANK0   BANK1   BANK2   BANK3   BANK4   BANK5   BANK6   BANK7   BANK8   BANK9  BANK10  BANK1
      +1  BANK12  BANK13  BANK14  BANK15
  9056 ;;      Params:         2       0       0       0       0       0       0       0       0       0       0       0       
      +0       0       0       0       0
  9057 ;;      Locals:         0       0       0       0       0       0       0       0       0       0       0       0       
      +0       0       0       0       0
  9058 ;;      Temps:          0       0       0       0       0       0       0       0       0       0       0       0       
      +0       0       0       0       0
  9059 ;;      Totals:         2       0       0       0       0       0       0       0       0       0       0       0       
      +0       0       0       0       0
  9060 ;;Total ram usage:        2 bytes
  9061 ;; Hardware stack levels used:    1
  9062 ;; Hardware stack levels required when called:    3
  9063 ;; This function calls:
  9064 ;;		Nothing
  9065 ;; This function is called by:
  9066 ;;		_EUSART1_Initialize
  9067 ;; This function uses a non-reentrant model
  9068 ;;
  9069                           
  9070                           	psect	text40
  9071  0047EC                     __ptext40:
  9072                           	opt callstack 0
  9073  0047EC                     _EUSART1_SetFramingErrorHandler:
  9074                           	opt callstack 25
  9075  0047EC                     
  9076                           ;mcc_generated_files/eusart1.c: 167:     EUSART1_FramingErrorHandler = interruptHandler;
  9077  0047EC  C008  F184         	movff	EUSART1_SetFramingErrorHandler@interruptHandler,_EUSART1_FramingErrorHandler
  9078  0047F0  C009  F185         	movff	EUSART1_SetFramingErrorHandler@interruptHandler+1,_EUSART1_FramingErrorHandler+1
  9079  0047F4  0012               	return		;funcret
  9080  0047F6                     __end_of_EUSART1_SetFramingErrorHandler:
  9081                           	opt callstack 0
  9082                           
  9083 ;; *************** function _EUSART1_SetErrorHandler *****************
  9084 ;; Defined at:
  9085 ;;		line 174 in file "mcc_generated_files/eusart1.c"
  9086 ;; Parameters:    Size  Location     Type
  9087 ;;  interruptHan    2    7[COMRAM] PTR FTN()void 
  9088 ;;		 -> EUSART1_DefaultErrorHandler(1), 
  9089 ;; Auto vars:     Size  Location     Type
  9090 ;;		None
  9091 ;; Return value:  Size  Location     Type
  9092 ;;                  1    wreg      void 
  9093 ;; Registers used:
  9094 ;;		wreg, status,2, status,0
  9095 ;; Tracked objects:
  9096 ;;		On entry : 0/0
  9097 ;;		On exit  : 0/0
  9098 ;;		Unchanged: 0/0
  9099 ;; Data sizes:     COMRAM   BANK0   BANK1   BANK2   BANK3   BANK4   BANK5   BANK6   BANK7   BANK8   BANK9  BANK10  BANK1
      +1  BANK12  BANK13  BANK14  BANK15
  9100 ;;      Params:         2       0       0       0       0       0       0       0       0       0       0       0       
      +0       0       0       0       0
  9101 ;;      Locals:         0       0       0       0       0       0       0       0       0       0       0       0       
      +0       0       0       0       0
  9102 ;;      Temps:          0       0       0       0       0       0       0       0       0       0       0       0       
      +0       0       0       0       0
  9103 ;;      Totals:         2       0       0       0       0       0       0       0       0       0       0       0       
      +0       0       0       0       0
  9104 ;;Total ram usage:        2 bytes
  9105 ;; Hardware stack levels used:    1
  9106 ;; Hardware stack levels required when called:    3
  9107 ;; This function calls:
  9108 ;;		Nothing
  9109 ;; This function is called by:
  9110 ;;		_EUSART1_Initialize
  9111 ;; This function uses a non-reentrant model
  9112 ;;
  9113                           
  9114                           	psect	text41
  9115  0047F6                     __ptext41:
  9116                           	opt callstack 0
  9117  0047F6                     _EUSART1_SetErrorHandler:
  9118                           	opt callstack 25
  9119  0047F6                     
  9120                           ;mcc_generated_files/eusart1.c: 175:     EUSART1_ErrorHandler = interruptHandler;
  9121  0047F6  C008  F180         	movff	EUSART1_SetErrorHandler@interruptHandler,_EUSART1_ErrorHandler
  9122  0047FA  C009  F181         	movff	EUSART1_SetErrorHandler@interruptHandler+1,_EUSART1_ErrorHandler+1
  9123  0047FE  0012               	return		;funcret
  9124  004800                     __end_of_EUSART1_SetErrorHandler:
  9125                           	opt callstack 0
  9126                           
  9127 ;; *************** function _Read_MCP3221 *****************
  9128 ;; Defined at:
  9129 ;;		line 141 in file "main.c"
  9130 ;; Parameters:    Size  Location     Type
  9131 ;;		None
  9132 ;; Auto vars:     Size  Location     Type
  9133 ;;  adcdata         2   11[COMRAM] unsigned int 
  9134 ;;  lodata          1   14[COMRAM] unsigned char 
  9135 ;;  hidata          1   13[COMRAM] unsigned char 
  9136 ;; Return value:  Size  Location     Type
  9137 ;;                  2    9[COMRAM] unsigned int 
  9138 ;; Registers used:
  9139 ;;		wreg, status,2, status,0, cstack
  9140 ;; Tracked objects:
  9141 ;;		On entry : 0/0
  9142 ;;		On exit  : 0/0
  9143 ;;		Unchanged: 0/0
  9144 ;; Data sizes:     COMRAM   BANK0   BANK1   BANK2   BANK3   BANK4   BANK5   BANK6   BANK7   BANK8   BANK9  BANK10  BANK1
      +1  BANK12  BANK13  BANK14  BANK15
  9145 ;;      Params:         2       0       0       0       0       0       0       0       0       0       0       0       
      +0       0       0       0       0
  9146 ;;      Locals:         4       0       0       0       0       0       0       0       0       0       0       0       
      +0       0       0       0       0
  9147 ;;      Temps:          0       0       0       0       0       0       0       0       0       0       0       0       
      +0       0       0       0       0
  9148 ;;      Totals:         6       0       0       0       0       0       0       0       0       0       0       0       
      +0       0       0       0       0
  9149 ;;Total ram usage:        6 bytes
  9150 ;; Hardware stack levels used:    1
  9151 ;; Hardware stack levels required when called:    5
  9152 ;; This function calls:
  9153 ;;		_i2c_master_ack
  9154 ;;		_i2c_read
  9155 ;;		_i2c_start
  9156 ;;		_i2c_stop
  9157 ;;		_i2c_write
  9158 ;; This function is called by:
  9159 ;;		_main
  9160 ;; This function uses a non-reentrant model
  9161 ;;
  9162                           
  9163                           	psect	text42
  9164  004414                     __ptext42:
  9165                           	opt callstack 0
  9166  004414                     _Read_MCP3221:
  9167                           	opt callstack 25
  9168  004414                     
  9169                           ;main.c: 143:   unsigned int adcdata;;main.c: 144:   unsigned char hidata,lodata;;main.c
      +                          : 147:   i2c_start(0);
  9170  004414  0E00               	movlw	0
  9171  004416  EC28  F022         	call	_i2c_start
  9172                           
  9173                           ;main.c: 150:   i2c_write(0x9A|1);
  9174  00441A  0E9B               	movlw	155
  9175  00441C  EC20  F023         	call	_i2c_write
  9176                           
  9177                           ;main.c: 153:   hidata=i2c_read();
  9178  004420  ECBA  F023         	call	_i2c_read	;wreg free
  9179  004424  6E0E               	movwf	Read_MCP3221@hidata^0,c
  9180  004426                     
  9181                           ;main.c: 156:   i2c_master_ack(0);
  9182  004426  0E00               	movlw	0
  9183  004428  EC9C  F023         	call	_i2c_master_ack
  9184  00442C                     
  9185                           ;main.c: 159:   lodata=i2c_read();
  9186  00442C  ECBA  F023         	call	_i2c_read	;wreg free
  9187  004430  6E0F               	movwf	Read_MCP3221@lodata^0,c
  9188                           
  9189                           ;main.c: 162:   i2c_master_ack(1);
  9190  004432  0E01               	movlw	1
  9191  004434  EC9C  F023         	call	_i2c_master_ack
  9192  004438                     
  9193                           ;main.c: 165:   i2c_stop();
  9194  004438  ECDC  F023         	call	_i2c_stop	;wreg free
  9195  00443C                     
  9196                           ;main.c: 168:   adcdata = lodata;
  9197  00443C  C00F  F00C         	movff	Read_MCP3221@lodata,Read_MCP3221@adcdata
  9198  004440  6A0D               	clrf	(Read_MCP3221@adcdata+1)^0,c
  9199  004442                     
  9200                           ;main.c: 169:   adcdata += ((int)hidata) << 8;
  9201  004442  500E               	movf	Read_MCP3221@hidata^0,w,c
  9202  004444  260D               	addwf	(Read_MCP3221@adcdata+1)^0,f,c
  9203  004446                     
  9204                           ;main.c: 171:   return(adcdata);
  9205  004446  C00C  F00A         	movff	Read_MCP3221@adcdata,?_Read_MCP3221
  9206  00444A  C00D  F00B         	movff	Read_MCP3221@adcdata+1,?_Read_MCP3221+1
  9207  00444E  0012               	return		;funcret
  9208  004450                     __end_of_Read_MCP3221:
  9209                           	opt callstack 0
  9210                           
  9211 ;; *************** function _i2c_write *****************
  9212 ;; Defined at:
  9213 ;;		line 112 in file "main.c"
  9214 ;; Parameters:    Size  Location     Type
  9215 ;;  data45          1    wreg     unsigned char 
  9216 ;; Auto vars:     Size  Location     Type
  9217 ;;  data45          1    8[COMRAM] unsigned char 
  9218 ;; Return value:  Size  Location     Type
  9219 ;;                  1    wreg      void 
  9220 ;; Registers used:
  9221 ;;		wreg, status,2, status,0, cstack
  9222 ;; Tracked objects:
  9223 ;;		On entry : 0/0
  9224 ;;		On exit  : 0/0
  9225 ;;		Unchanged: 0/0
  9226 ;; Data sizes:     COMRAM   BANK0   BANK1   BANK2   BANK3   BANK4   BANK5   BANK6   BANK7   BANK8   BANK9  BANK10  BANK1
      +1  BANK12  BANK13  BANK14  BANK15
  9227 ;;      Params:         0       0       0       0       0       0       0       0       0       0       0       0       
      +0       0       0       0       0
  9228 ;;      Locals:         1       0       0       0       0       0       0       0       0       0       0       0       
      +0       0       0       0       0
  9229 ;;      Temps:          0       0       0       0       0       0       0       0       0       0       0       0       
      +0       0       0       0       0
  9230 ;;      Totals:         1       0       0       0       0       0       0       0       0       0       0       0       
      +0       0       0       0       0
  9231 ;;Total ram usage:        1 bytes
  9232 ;; Hardware stack levels used:    1
  9233 ;; Hardware stack levels required when called:    4
  9234 ;; This function calls:
  9235 ;;		_i2c_idle
  9236 ;; This function is called by:
  9237 ;;		_Read_MCP3221
  9238 ;; This function uses a non-reentrant model
  9239 ;;
  9240                           
  9241                           	psect	text43
  9242  004640                     __ptext43:
  9243                           	opt callstack 0
  9244  004640                     _i2c_write:
  9245                           	opt callstack 25
  9246                           
  9247                           ;incstack = 0
  9248                           ;i2c_write@data45 stored from wreg
  9249  004640  6E09               	movwf	i2c_write@data45^0,c
  9250  004642                     
  9251                           ;main.c: 112: void i2c_write(unsigned char data45);main.c: 113: {;main.c: 115:   SSP1BUF
      +                           = data45;
  9252  004642  C009  FFC9         	movff	i2c_write@data45,4041	;volatile
  9253  004646                     
  9254                           ;main.c: 116:   if (SSP1CON1bits.WCOL)
  9255  004646  AEC6               	btfss	198,7,c	;volatile
  9256  004648  EF28  F023         	goto	u5291
  9257  00464C  EF2A  F023         	goto	u5290
  9258  004650                     u5291:
  9259  004650  EF2C  F023         	goto	l133
  9260  004654                     u5290:
  9261  004654  EF35  F023         	goto	l132
  9262  004658                     l133:
  9263  004658  B0C7               	btfsc	199,0,c	;volatile
  9264  00465A  EF31  F023         	goto	u5301
  9265  00465E  EF33  F023         	goto	u5300
  9266  004662                     u5301:
  9267  004662  EF2C  F023         	goto	l133
  9268  004666                     u5300:
  9269  004666                     
  9270                           ;main.c: 120:   i2c_idle();
  9271  004666  EC89  F023         	call	_i2c_idle	;wreg free
  9272  00466A                     l132:
  9273  00466A  0012               	return		;funcret
  9274  00466C                     __end_of_i2c_write:
  9275                           	opt callstack 0
  9276                           
  9277 ;; *************** function _i2c_stop *****************
  9278 ;; Defined at:
  9279 ;;		line 98 in file "main.c"
  9280 ;; Parameters:    Size  Location     Type
  9281 ;;		None
  9282 ;; Auto vars:     Size  Location     Type
  9283 ;;		None
  9284 ;; Return value:  Size  Location     Type
  9285 ;;                  1    wreg      void 
  9286 ;; Registers used:
  9287 ;;		None
  9288 ;; Tracked objects:
  9289 ;;		On entry : 0/0
  9290 ;;		On exit  : 0/0
  9291 ;;		Unchanged: 0/0
  9292 ;; Data sizes:     COMRAM   BANK0   BANK1   BANK2   BANK3   BANK4   BANK5   BANK6   BANK7   BANK8   BANK9  BANK10  BANK1
      +1  BANK12  BANK13  BANK14  BANK15
  9293 ;;      Params:         0       0       0       0       0       0       0       0       0       0       0       0       
      +0       0       0       0       0
  9294 ;;      Locals:         0       0       0       0       0       0       0       0       0       0       0       0       
      +0       0       0       0       0
  9295 ;;      Temps:          0       0       0       0       0       0       0       0       0       0       0       0       
      +0       0       0       0       0
  9296 ;;      Totals:         0       0       0       0       0       0       0       0       0       0       0       0       
      +0       0       0       0       0
  9297 ;;Total ram usage:        0 bytes
  9298 ;; Hardware stack levels used:    1
  9299 ;; Hardware stack levels required when called:    3
  9300 ;; This function calls:
  9301 ;;		Nothing
  9302 ;; This function is called by:
  9303 ;;		_Read_MCP3221
  9304 ;; This function uses a non-reentrant model
  9305 ;;
  9306                           
  9307                           	psect	text44
  9308  0047B8                     __ptext44:
  9309                           	opt callstack 0
  9310  0047B8                     _i2c_stop:
  9311                           	opt callstack 26
  9312  0047B8                     
  9313                           ;main.c: 101:   SSP1CON2bits.PEN = 1;
  9314  0047B8  84C5               	bsf	197,2,c	;volatile
  9315  0047BA                     l122:
  9316  0047BA  B4C5               	btfsc	197,2,c	;volatile
  9317  0047BC  EFE2  F023         	goto	u5281
  9318  0047C0  EFE4  F023         	goto	u5280
  9319  0047C4                     u5281:
  9320  0047C4  EFDD  F023         	goto	l122
  9321  0047C8                     u5280:
  9322  0047C8  0012               	return		;funcret
  9323  0047CA                     __end_of_i2c_stop:
  9324                           	opt callstack 0
  9325                           
  9326 ;; *************** function _i2c_start *****************
  9327 ;; Defined at:
  9328 ;;		line 86 in file "main.c"
  9329 ;; Parameters:    Size  Location     Type
  9330 ;;  stype           1    wreg     unsigned char 
  9331 ;; Auto vars:     Size  Location     Type
  9332 ;;  stype           1    8[COMRAM] unsigned char 
  9333 ;; Return value:  Size  Location     Type
  9334 ;;                  1    wreg      void 
  9335 ;; Registers used:
  9336 ;;		wreg, status,2, status,0, cstack
  9337 ;; Tracked objects:
  9338 ;;		On entry : 0/0
  9339 ;;		On exit  : 0/0
  9340 ;;		Unchanged: 0/0
  9341 ;; Data sizes:     COMRAM   BANK0   BANK1   BANK2   BANK3   BANK4   BANK5   BANK6   BANK7   BANK8   BANK9  BANK10  BANK1
      +1  BANK12  BANK13  BANK14  BANK15
  9342 ;;      Params:         0       0       0       0       0       0       0       0       0       0       0       0       
      +0       0       0       0       0
  9343 ;;      Locals:         1       0       0       0       0       0       0       0       0       0       0       0       
      +0       0       0       0       0
  9344 ;;      Temps:          0       0       0       0       0       0       0       0       0       0       0       0       
      +0       0       0       0       0
  9345 ;;      Totals:         1       0       0       0       0       0       0       0       0       0       0       0       
      +0       0       0       0       0
  9346 ;;Total ram usage:        1 bytes
  9347 ;; Hardware stack levels used:    1
  9348 ;; Hardware stack levels required when called:    4
  9349 ;; This function calls:
  9350 ;;		_i2c_idle
  9351 ;; This function is called by:
  9352 ;;		_Read_MCP3221
  9353 ;; This function uses a non-reentrant model
  9354 ;;
  9355                           
  9356                           	psect	text45
  9357  004450                     __ptext45:
  9358                           	opt callstack 0
  9359  004450                     _i2c_start:
  9360                           	opt callstack 25
  9361                           
  9362                           ;incstack = 0
  9363                           ;i2c_start@stype stored from wreg
  9364  004450  6E09               	movwf	i2c_start@stype^0,c
  9365  004452                     
  9366                           ;main.c: 86: void i2c_start(unsigned char stype);main.c: 87: {;main.c: 88:   i2c_idle();
  9367  004452  EC89  F023         	call	_i2c_idle	;wreg free
  9368  004456                     
  9369                           ;main.c: 89:   if (stype == 0) {
  9370  004456  5009               	movf	i2c_start@stype^0,w,c
  9371  004458  A4D8               	btfss	status,2,c
  9372  00445A  EF31  F022         	goto	u5251
  9373  00445E  EF33  F022         	goto	u5250
  9374  004462                     u5251:
  9375  004462  EF3D  F022         	goto	l111
  9376  004466                     u5250:
  9377  004466                     
  9378                           ;main.c: 90:     SSP1CON2bits.SEN = 1;
  9379  004466  80C5               	bsf	197,0,c	;volatile
  9380  004468                     l112:
  9381  004468  B0C5               	btfsc	197,0,c	;volatile
  9382  00446A  EF39  F022         	goto	u5261
  9383  00446E  EF3B  F022         	goto	u5260
  9384  004472                     u5261:
  9385  004472  EF34  F022         	goto	l112
  9386  004476                     u5260:
  9387  004476  EF45  F022         	goto	l119
  9388  00447A                     l111:
  9389                           
  9390                           ;main.c: 93:     SSP1CON2bits.RSEN = 1;
  9391  00447A  82C5               	bsf	197,1,c	;volatile
  9392  00447C                     l116:
  9393  00447C  B2C5               	btfsc	197,1,c	;volatile
  9394  00447E  EF43  F022         	goto	u5271
  9395  004482  EF45  F022         	goto	u5270
  9396  004486                     u5271:
  9397  004486  EF3E  F022         	goto	l116
  9398  00448A                     u5270:
  9399  00448A                     l119:
  9400  00448A  0012               	return		;funcret
  9401  00448C                     __end_of_i2c_start:
  9402                           	opt callstack 0
  9403                           
  9404 ;; *************** function _i2c_read *****************
  9405 ;; Defined at:
  9406 ;;		line 130 in file "main.c"
  9407 ;; Parameters:    Size  Location     Type
  9408 ;;		None
  9409 ;; Auto vars:     Size  Location     Type
  9410 ;;		None
  9411 ;; Return value:  Size  Location     Type
  9412 ;;                  1    wreg      unsigned char 
  9413 ;; Registers used:
  9414 ;;		wreg, status,2, status,0, cstack
  9415 ;; Tracked objects:
  9416 ;;		On entry : 0/0
  9417 ;;		On exit  : 0/0
  9418 ;;		Unchanged: 0/0
  9419 ;; Data sizes:     COMRAM   BANK0   BANK1   BANK2   BANK3   BANK4   BANK5   BANK6   BANK7   BANK8   BANK9  BANK10  BANK1
      +1  BANK12  BANK13  BANK14  BANK15
  9420 ;;      Params:         0       0       0       0       0       0       0       0       0       0       0       0       
      +0       0       0       0       0
  9421 ;;      Locals:         0       0       0       0       0       0       0       0       0       0       0       0       
      +0       0       0       0       0
  9422 ;;      Temps:          0       0       0       0       0       0       0       0       0       0       0       0       
      +0       0       0       0       0
  9423 ;;      Totals:         0       0       0       0       0       0       0       0       0       0       0       0       
      +0       0       0       0       0
  9424 ;;Total ram usage:        0 bytes
  9425 ;; Hardware stack levels used:    1
  9426 ;; Hardware stack levels required when called:    4
  9427 ;; This function calls:
  9428 ;;		_i2c_idle
  9429 ;; This function is called by:
  9430 ;;		_Read_MCP3221
  9431 ;; This function uses a non-reentrant model
  9432 ;;
  9433                           
  9434                           	psect	text46
  9435  004774                     __ptext46:
  9436                           	opt callstack 0
  9437  004774                     _i2c_read:
  9438                           	opt callstack 25
  9439  004774                     
  9440                           ;main.c: 133:   i2c_idle();
  9441  004774  EC89  F023         	call	_i2c_idle	;wreg free
  9442  004778                     
  9443                           ;main.c: 136:   SSP1CON2bits.RCEN = 1;
  9444  004778  86C5               	bsf	197,3,c	;volatile
  9445  00477A                     l144:
  9446  00477A  A0C7               	btfss	199,0,c	;volatile
  9447  00477C  EFC2  F023         	goto	u5331
  9448  004780  EFC4  F023         	goto	u5330
  9449  004784                     u5331:
  9450  004784  EFBD  F023         	goto	l144
  9451  004788                     u5330:
  9452  004788                     
  9453                           ;main.c: 138:   return(SSP1BUF);
  9454  004788  50C9               	movf	201,w,c	;volatile
  9455  00478A  0012               	return		;funcret
  9456  00478C                     __end_of_i2c_read:
  9457                           	opt callstack 0
  9458                           
  9459 ;; *************** function _i2c_idle *****************
  9460 ;; Defined at:
  9461 ;;		line 80 in file "main.c"
  9462 ;; Parameters:    Size  Location     Type
  9463 ;;		None
  9464 ;; Auto vars:     Size  Location     Type
  9465 ;;		None
  9466 ;; Return value:  Size  Location     Type
  9467 ;;                  1    wreg      void 
  9468 ;; Registers used:
  9469 ;;		wreg, status,2, status,0
  9470 ;; Tracked objects:
  9471 ;;		On entry : 0/0
  9472 ;;		On exit  : 0/0
  9473 ;;		Unchanged: 0/0
  9474 ;; Data sizes:     COMRAM   BANK0   BANK1   BANK2   BANK3   BANK4   BANK5   BANK6   BANK7   BANK8   BANK9  BANK10  BANK1
      +1  BANK12  BANK13  BANK14  BANK15
  9475 ;;      Params:         0       0       0       0       0       0       0       0       0       0       0       0       
      +0       0       0       0       0
  9476 ;;      Locals:         0       0       0       0       0       0       0       0       0       0       0       0       
      +0       0       0       0       0
  9477 ;;      Temps:          1       0       0       0       0       0       0       0       0       0       0       0       
      +0       0       0       0       0
  9478 ;;      Totals:         1       0       0       0       0       0       0       0       0       0       0       0       
      +0       0       0       0       0
  9479 ;;Total ram usage:        1 bytes
  9480 ;; Hardware stack levels used:    1
  9481 ;; Hardware stack levels required when called:    3
  9482 ;; This function calls:
  9483 ;;		Nothing
  9484 ;; This function is called by:
  9485 ;;		_i2c_start
  9486 ;;		_i2c_write
  9487 ;;		_i2c_read
  9488 ;; This function uses a non-reentrant model
  9489 ;;
  9490                           
  9491                           	psect	text47
  9492  004712                     __ptext47:
  9493                           	opt callstack 0
  9494  004712                     _i2c_idle:
  9495                           	opt callstack 25
  9496  004712                     l4491:
  9497  004712  CFC5 F008          	movff	4037,??_i2c_idle	;volatile
  9498  004716  0E1F               	movlw	31
  9499  004718  1608               	andwf	??_i2c_idle^0,f,c
  9500  00471A  A4D8               	btfss	status,2,c
  9501  00471C  EF92  F023         	goto	u5031
  9502  004720  EF94  F023         	goto	u5030
  9503  004724                     u5031:
  9504  004724  EF89  F023         	goto	l4491
  9505  004728                     u5030:
  9506  004728  B4C7               	btfsc	199,2,c	;volatile
  9507  00472A  EF99  F023         	goto	u5041
  9508  00472E  EF9B  F023         	goto	u5040
  9509  004732                     u5041:
  9510  004732  EF89  F023         	goto	l4491
  9511  004736                     u5040:
  9512  004736  0012               	return		;funcret
  9513  004738                     __end_of_i2c_idle:
  9514                           	opt callstack 0
  9515                           
  9516 ;; *************** function _i2c_master_ack *****************
  9517 ;; Defined at:
  9518 ;;		line 123 in file "main.c"
  9519 ;; Parameters:    Size  Location     Type
  9520 ;;  ack_type        1    wreg     unsigned char 
  9521 ;; Auto vars:     Size  Location     Type
  9522 ;;  ack_type        1    7[COMRAM] unsigned char 
  9523 ;; Return value:  Size  Location     Type
  9524 ;;                  1    wreg      void 
  9525 ;; Registers used:
  9526 ;;		wreg
  9527 ;; Tracked objects:
  9528 ;;		On entry : 0/0
  9529 ;;		On exit  : 0/0
  9530 ;;		Unchanged: 0/0
  9531 ;; Data sizes:     COMRAM   BANK0   BANK1   BANK2   BANK3   BANK4   BANK5   BANK6   BANK7   BANK8   BANK9  BANK10  BANK1
      +1  BANK12  BANK13  BANK14  BANK15
  9532 ;;      Params:         0       0       0       0       0       0       0       0       0       0       0       0       
      +0       0       0       0       0
  9533 ;;      Locals:         1       0       0       0       0       0       0       0       0       0       0       0       
      +0       0       0       0       0
  9534 ;;      Temps:          0       0       0       0       0       0       0       0       0       0       0       0       
      +0       0       0       0       0
  9535 ;;      Totals:         1       0       0       0       0       0       0       0       0       0       0       0       
      +0       0       0       0       0
  9536 ;;Total ram usage:        1 bytes
  9537 ;; Hardware stack levels used:    1
  9538 ;; Hardware stack levels required when called:    3
  9539 ;; This function calls:
  9540 ;;		Nothing
  9541 ;; This function is called by:
  9542 ;;		_Read_MCP3221
  9543 ;; This function uses a non-reentrant model
  9544 ;;
  9545                           
  9546                           	psect	text48
  9547  004738                     __ptext48:
  9548                           	opt callstack 0
  9549  004738                     _i2c_master_ack:
  9550                           	opt callstack 26
  9551                           
  9552                           ;incstack = 0
  9553                           ;i2c_master_ack@ack_type stored from wreg
  9554  004738  6E08               	movwf	i2c_master_ack@ack_type^0,c
  9555  00473A                     
  9556                           ;main.c: 123: void i2c_master_ack(unsigned char ack_type);main.c: 124: {;main.c: 125:   
      +                          SSP1CON2bits.ACKDT = ack_type;
  9557  00473A  B008               	btfsc	i2c_master_ack@ack_type^0,0,c
  9558  00473C  D002               	bra	u5315
  9559  00473E  9AC5               	bcf	197,5,c	;volatile
  9560  004740  D001               	bra	u5316
  9561  004742                     u5315:
  9562  004742  8AC5               	bsf	197,5,c	;volatile
  9563  004744                     u5316:
  9564  004744                     
  9565                           ;main.c: 126:   SSP1CON2bits.ACKEN = 1;
  9566  004744  88C5               	bsf	197,4,c	;volatile
  9567  004746                     l138:
  9568  004746  B8C5               	btfsc	197,4,c	;volatile
  9569  004748  EFA8  F023         	goto	u5321
  9570  00474C  EFAA  F023         	goto	u5320
  9571  004750                     u5321:
  9572  004750  EFA3  F023         	goto	l138
  9573  004754                     u5320:
  9574  004754  0012               	return		;funcret
  9575  004756                     __end_of_i2c_master_ack:
  9576                           	opt callstack 0
  9577                           
  9578 ;; *************** function _LCD_Initialize *****************
  9579 ;; Defined at:
  9580 ;;		line 46 in file "lcd.c"
  9581 ;; Parameters:    Size  Location     Type
  9582 ;;		None
  9583 ;; Auto vars:     Size  Location     Type
  9584 ;;		None
  9585 ;; Return value:  Size  Location     Type
  9586 ;;                  1    wreg      void 
  9587 ;; Registers used:
  9588 ;;		wreg, status,2, status,0, cstack
  9589 ;; Tracked objects:
  9590 ;;		On entry : 0/0
  9591 ;;		On exit  : 0/0
  9592 ;;		Unchanged: 0/0
  9593 ;; Data sizes:     COMRAM   BANK0   BANK1   BANK2   BANK3   BANK4   BANK5   BANK6   BANK7   BANK8   BANK9  BANK10  BANK1
      +1  BANK12  BANK13  BANK14  BANK15
  9594 ;;      Params:         0       0       0       0       0       0       0       0       0       0       0       0       
      +0       0       0       0       0
  9595 ;;      Locals:         0       0       0       0       0       0       0       0       0       0       0       0       
      +0       0       0       0       0
  9596 ;;      Temps:          1       0       0       0       0       0       0       0       0       0       0       0       
      +0       0       0       0       0
  9597 ;;      Totals:         1       0       0       0       0       0       0       0       0       0       0       0       
      +0       0       0       0       0
  9598 ;;Total ram usage:        1 bytes
  9599 ;; Hardware stack levels used:    1
  9600 ;; Hardware stack levels required when called:    5
  9601 ;; This function calls:
  9602 ;;		_LCDPutCmd
  9603 ;; This function is called by:
  9604 ;;		_main
  9605 ;; This function uses a non-reentrant model
  9606 ;;
  9607                           
  9608                           	psect	text49
  9609  00448C                     __ptext49:
  9610                           	opt callstack 0
  9611  00448C                     _LCD_Initialize:
  9612                           	opt callstack 25
  9613  00448C                     
  9614                           ;lcd.c: 49:     PORTB = 0;
  9615  00448C  0E00               	movlw	0
  9616  00448E  6E81               	movwf	129,c	;volatile
  9617                           
  9618                           ;lcd.c: 51:     TRISB = 0x00;
  9619  004490  0E00               	movlw	0
  9620  004492  6E93               	movwf	147,c	;volatile
  9621  004494                     
  9622                           ;lcd.c: 54:     PORTBbits.RB7 = 1;
  9623  004494  8E81               	bsf	129,7,c	;volatile
  9624  004496                     
  9625                           ;lcd.c: 57:     _delay((unsigned long)((15)*(8000000/4000.0)));
  9626  004496  0E27               	movlw	39
  9627  004498  6E0C               	movwf	??_LCD_Initialize^0,c
  9628  00449A  0EF5               	movlw	245
  9629  00449C                     u8137:
  9630  00449C  2EE8               	decfsz	wreg,f,c
  9631  00449E  D7FE               	bra	u8137
  9632  0044A0  2E0C               	decfsz	??_LCD_Initialize^0,f,c
  9633  0044A2  D7FC               	bra	u8137
  9634  0044A4  F000               	nop	
  9635  0044A6                     
  9636                           ;lcd.c: 60:     LCDPutCmd(0x32);
  9637  0044A6  0E32               	movlw	50
  9638  0044A8  EC63  F022         	call	_LCDPutCmd
  9639  0044AC                     
  9640                           ;lcd.c: 63:     LCDPutCmd(0x28);
  9641  0044AC  0E28               	movlw	40
  9642  0044AE  EC63  F022         	call	_LCDPutCmd
  9643  0044B2                     
  9644                           ;lcd.c: 66:     LCDPutCmd(0x0C);
  9645  0044B2  0E0C               	movlw	12
  9646  0044B4  EC63  F022         	call	_LCDPutCmd
  9647  0044B8                     
  9648                           ;lcd.c: 68:     LCDPutCmd(0x01);
  9649  0044B8  0E01               	movlw	1
  9650  0044BA  EC63  F022         	call	_LCDPutCmd
  9651  0044BE                     
  9652                           ;lcd.c: 71:     LCDPutCmd(0x06);
  9653  0044BE  0E06               	movlw	6
  9654  0044C0  EC63  F022         	call	_LCDPutCmd
  9655  0044C4  0012               	return		;funcret
  9656  0044C6                     __end_of_LCD_Initialize:
  9657                           	opt callstack 0
  9658                           
  9659 ;; *************** function _LCDPutStr *****************
  9660 ;; Defined at:
  9661 ;;		line 135 in file "lcd.c"
  9662 ;; Parameters:    Size  Location     Type
  9663 ;;  str             2   11[COMRAM] PTR const unsigned char 
  9664 ;;		 -> STR_4(3), Buffer(20), STR_2(10), STR_1(15), 
  9665 ;; Auto vars:     Size  Location     Type
  9666 ;;  i               1   15[COMRAM] unsigned char 
  9667 ;; Return value:  Size  Location     Type
  9668 ;;                  1    wreg      void 
  9669 ;; Registers used:
  9670 ;;		wreg, fsr0l, fsr0h, status,2, status,0, tblptrl, tblptrh, tblptru, cstack
  9671 ;; Tracked objects:
  9672 ;;		On entry : 0/0
  9673 ;;		On exit  : 0/0
  9674 ;;		Unchanged: 0/0
  9675 ;; Data sizes:     COMRAM   BANK0   BANK1   BANK2   BANK3   BANK4   BANK5   BANK6   BANK7   BANK8   BANK9  BANK10  BANK1
      +1  BANK12  BANK13  BANK14  BANK15
  9676 ;;      Params:         2       0       0       0       0       0       0       0       0       0       0       0       
      +0       0       0       0       0
  9677 ;;      Locals:         1       0       0       0       0       0       0       0       0       0       0       0       
      +0       0       0       0       0
  9678 ;;      Temps:          2       0       0       0       0       0       0       0       0       0       0       0       
      +0       0       0       0       0
  9679 ;;      Totals:         5       0       0       0       0       0       0       0       0       0       0       0       
      +0       0       0       0       0
  9680 ;;Total ram usage:        5 bytes
  9681 ;; Hardware stack levels used:    1
  9682 ;; Hardware stack levels required when called:    5
  9683 ;; This function calls:
  9684 ;;		_LCDPutChar
  9685 ;; This function is called by:
  9686 ;;		_main
  9687 ;; This function uses a non-reentrant model
  9688 ;;
  9689                           
  9690                           	psect	text50
  9691  004006                     __ptext50:
  9692                           	opt callstack 0
  9693  004006                     _LCDPutStr:
  9694                           	opt callstack 25
  9695  004006                     
  9696                           ;lcd.c: 135: void LCDPutStr(const char *str);lcd.c: 136: {;lcd.c: 137:     uint8_t i=0;
  9697  004006  0E00               	movlw	0
  9698  004008  6E10               	movwf	LCDPutStr@i^0,c
  9699                           
  9700                           ;lcd.c: 140:     while (str[i])
  9701  00400A  EF21  F020         	goto	l4795
  9702  00400E                     l4791:
  9703                           
  9704                           ;lcd.c: 141:     {;lcd.c: 143:         LCDPutChar(str[i++]);
  9705  00400E  5010               	movf	LCDPutStr@i^0,w,c
  9706  004010  240C               	addwf	LCDPutStr@str^0,w,c
  9707  004012  6E0E               	movwf	??_LCDPutStr^0,c
  9708  004014  0E00               	movlw	0
  9709  004016  200D               	addwfc	(LCDPutStr@str+1)^0,w,c
  9710  004018  6E0F               	movwf	(??_LCDPutStr+1)^0,c
  9711  00401A  C00E  FFF6         	movff	??_LCDPutStr,tblptrl
  9712  00401E  C00F  FFF7         	movff	??_LCDPutStr+1,tblptrh
  9713  004022  0E00               	movlw	low (__smallconst shr (0+16))
  9714  004024  6EF8               	movwf	tblptru,c
  9715  004026  0E0F               	movlw	(high __ramtop+-1)
  9716  004028  64F7               	cpfsgt	tblptrh,c
  9717  00402A  D003               	bra	u5367
  9718  00402C  0008               	tblrd		*
  9719  00402E  50F5               	movf	tablat,w,c
  9720  004030  D005               	bra	u5360
  9721  004032                     u5367:
  9722  004032  CFF6 FFE9          	movff	tblptrl,fsr0l
  9723  004036  CFF7 FFEA          	movff	tblptrh,fsr0h
  9724  00403A  50EF               	movf	indf0,w,c
  9725  00403C                     u5360:
  9726  00403C  EC36  F023         	call	_LCDPutChar
  9727  004040  2A10               	incf	LCDPutStr@i^0,f,c
  9728  004042                     l4795:
  9729                           
  9730                           ;lcd.c: 140:     while (str[i])
  9731  004042  5010               	movf	LCDPutStr@i^0,w,c
  9732  004044  240C               	addwf	LCDPutStr@str^0,w,c
  9733  004046  6E0E               	movwf	??_LCDPutStr^0,c
  9734  004048  0E00               	movlw	0
  9735  00404A  200D               	addwfc	(LCDPutStr@str+1)^0,w,c
  9736  00404C  6E0F               	movwf	(??_LCDPutStr+1)^0,c
  9737  00404E  C00E  FFF6         	movff	??_LCDPutStr,tblptrl
  9738  004052  C00F  FFF7         	movff	??_LCDPutStr+1,tblptrh
  9739  004056  0E00               	movlw	low (__smallconst shr (0+16))
  9740  004058  6EF8               	movwf	tblptru,c
  9741  00405A  0E0F               	movlw	(high __ramtop+-1)
  9742  00405C  64F7               	cpfsgt	tblptrh,c
  9743  00405E  D003               	bra	u5377
  9744  004060  0008               	tblrd		*
  9745  004062  50F5               	movf	tablat,w,c
  9746  004064  D005               	bra	u5370
  9747  004066                     u5377:
  9748  004066  CFF6 FFE9          	movff	tblptrl,fsr0l
  9749  00406A  CFF7 FFEA          	movff	tblptrh,fsr0h
  9750  00406E  50EF               	movf	indf0,w,c
  9751  004070                     u5370:
  9752  004070  0900               	iorlw	0
  9753  004072  A4D8               	btfss	status,2,c
  9754  004074  EF3E  F020         	goto	u5381
  9755  004078  EF40  F020         	goto	u5380
  9756  00407C                     u5381:
  9757  00407C  EF07  F020         	goto	l4791
  9758  004080                     u5380:
  9759  004080  0012               	return		;funcret
  9760  004082                     __end_of_LCDPutStr:
  9761                           	opt callstack 0
  9762                           
  9763 ;; *************** function _LCDPutChar *****************
  9764 ;; Defined at:
  9765 ;;		line 103 in file "lcd.c"
  9766 ;; Parameters:    Size  Location     Type
  9767 ;;  ch              1    wreg     unsigned char 
  9768 ;; Auto vars:     Size  Location     Type
  9769 ;;  ch              1   10[COMRAM] unsigned char 
  9770 ;; Return value:  Size  Location     Type
  9771 ;;                  1    wreg      void 
  9772 ;; Registers used:
  9773 ;;		wreg, status,2, status,0, cstack
  9774 ;; Tracked objects:
  9775 ;;		On entry : 0/0
  9776 ;;		On exit  : 0/0
  9777 ;;		Unchanged: 0/0
  9778 ;; Data sizes:     COMRAM   BANK0   BANK1   BANK2   BANK3   BANK4   BANK5   BANK6   BANK7   BANK8   BANK9  BANK10  BANK1
      +1  BANK12  BANK13  BANK14  BANK15
  9779 ;;      Params:         0       0       0       0       0       0       0       0       0       0       0       0       
      +0       0       0       0       0
  9780 ;;      Locals:         1       0       0       0       0       0       0       0       0       0       0       0       
      +0       0       0       0       0
  9781 ;;      Temps:          1       0       0       0       0       0       0       0       0       0       0       0       
      +0       0       0       0       0
  9782 ;;      Totals:         2       0       0       0       0       0       0       0       0       0       0       0       
      +0       0       0       0       0
  9783 ;;Total ram usage:        2 bytes
  9784 ;; Hardware stack levels used:    1
  9785 ;; Hardware stack levels required when called:    4
  9786 ;; This function calls:
  9787 ;;		_LCDWriteNibble
  9788 ;; This function is called by:
  9789 ;;		_LCDPutStr
  9790 ;; This function uses a non-reentrant model
  9791 ;;
  9792                           
  9793                           	psect	text51
  9794  00466C                     __ptext51:
  9795                           	opt callstack 0
  9796  00466C                     _LCDPutChar:
  9797                           	opt callstack 25
  9798                           
  9799                           ;incstack = 0
  9800                           ;LCDPutChar@ch stored from wreg
  9801  00466C  6E0B               	movwf	LCDPutChar@ch^0,c
  9802  00466E                     
  9803                           ;lcd.c: 103: void LCDPutChar(uint8_t ch);lcd.c: 104: {;lcd.c: 105:     _delay((unsigned 
      +                          long)((5)*(8000000/4000.0)));
  9804  00466E  0E0D               	movlw	13
  9805  004670  6E0A               	movwf	??_LCDPutChar^0,c
  9806  004672  0EFC               	movlw	252
  9807  004674                     u8147:
  9808  004674  2EE8               	decfsz	wreg,f,c
  9809  004676  D7FE               	bra	u8147
  9810  004678  2E0A               	decfsz	??_LCDPutChar^0,f,c
  9811  00467A  D7FC               	bra	u8147
  9812  00467C                     
  9813                           ;lcd.c: 108:     LCDWriteNibble(ch,1);
  9814  00467C  0E01               	movlw	1
  9815  00467E  6E08               	movwf	LCDWriteNibble@rs^0,c
  9816  004680  500B               	movf	LCDPutChar@ch^0,w,c
  9817  004682  EC4C  F023         	call	_LCDWriteNibble
  9818  004686                     
  9819                           ;lcd.c: 111:     ch = (ch << 4);
  9820  004686  380B               	swapf	LCDPutChar@ch^0,w,c
  9821  004688  0BF0               	andlw	240
  9822  00468A  6E0B               	movwf	LCDPutChar@ch^0,c
  9823  00468C                     
  9824                           ;lcd.c: 114:     LCDWriteNibble(ch,1);
  9825  00468C  0E01               	movlw	1
  9826  00468E  6E08               	movwf	LCDWriteNibble@rs^0,c
  9827  004690  500B               	movf	LCDPutChar@ch^0,w,c
  9828  004692  EC4C  F023         	call	_LCDWriteNibble
  9829  004696  0012               	return		;funcret
  9830  004698                     __end_of_LCDPutChar:
  9831                           	opt callstack 0
  9832                           
  9833 ;; *************** function _LCDGoto *****************
  9834 ;; Defined at:
  9835 ;;		line 148 in file "lcd.c"
  9836 ;; Parameters:    Size  Location     Type
  9837 ;;  pos             1    wreg     unsigned char 
  9838 ;;  ln              1   11[COMRAM] unsigned char 
  9839 ;; Auto vars:     Size  Location     Type
  9840 ;;  pos             1   16[COMRAM] unsigned char 
  9841 ;; Return value:  Size  Location     Type
  9842 ;;                  1    wreg      void 
  9843 ;; Registers used:
  9844 ;;		wreg, status,2, status,0, cstack
  9845 ;; Tracked objects:
  9846 ;;		On entry : 0/0
  9847 ;;		On exit  : 0/0
  9848 ;;		Unchanged: 0/0
  9849 ;; Data sizes:     COMRAM   BANK0   BANK1   BANK2   BANK3   BANK4   BANK5   BANK6   BANK7   BANK8   BANK9  BANK10  BANK1
      +1  BANK12  BANK13  BANK14  BANK15
  9850 ;;      Params:         1       0       0       0       0       0       0       0       0       0       0       0       
      +0       0       0       0       0
  9851 ;;      Locals:         3       0       0       0       0       0       0       0       0       0       0       0       
      +0       0       0       0       0
  9852 ;;      Temps:          2       0       0       0       0       0       0       0       0       0       0       0       
      +0       0       0       0       0
  9853 ;;      Totals:         6       0       0       0       0       0       0       0       0       0       0       0       
      +0       0       0       0       0
  9854 ;;Total ram usage:        6 bytes
  9855 ;; Hardware stack levels used:    1
  9856 ;; Hardware stack levels required when called:    5
  9857 ;; This function calls:
  9858 ;;		_LCDPutCmd
  9859 ;; This function is called by:
  9860 ;;		_main
  9861 ;; This function uses a non-reentrant model
  9862 ;;
  9863                           
  9864                           	psect	text52
  9865  004082                     __ptext52:
  9866                           	opt callstack 0
  9867  004082                     _LCDGoto:
  9868                           	opt callstack 25
  9869                           
  9870                           ;incstack = 0
  9871                           ;LCDGoto@pos stored from wreg
  9872  004082  6E11               	movwf	LCDGoto@pos^0,c
  9873  004084                     
  9874                           ;lcd.c: 148: void LCDGoto(uint8_t pos,uint8_t ln);lcd.c: 149: {;lcd.c: 151:     if ((ln 
      +                          > (2 -1)) || (pos > (16 -1)))
  9875  004084  0E02               	movlw	2
  9876  004086  600C               	cpfslt	LCDGoto@ln^0,c
  9877  004088  EF48  F020         	goto	u5391
  9878  00408C  EF4A  F020         	goto	u5390
  9879  004090                     u5391:
  9880  004090  EF78  F020         	goto	l192
  9881  004094                     u5390:
  9882  004094  0E0F               	movlw	15
  9883  004096  6411               	cpfsgt	LCDGoto@pos^0,c
  9884  004098  EF50  F020         	goto	u5401
  9885  00409C  EF52  F020         	goto	u5400
  9886  0040A0                     u5401:
  9887  0040A0  EF54  F020         	goto	l4813
  9888  0040A4                     u5400:
  9889  0040A4  EF78  F020         	goto	l192
  9890  0040A8                     l4813:
  9891                           
  9892                           ;lcd.c: 158:     LCDPutCmd((ln == 1) ? (0xC0 | pos) : (0x80 | pos));
  9893  0040A8  040C               	decf	LCDGoto@ln^0,w,c
  9894  0040AA  B4D8               	btfsc	status,2,c
  9895  0040AC  EF5A  F020         	goto	u5411
  9896  0040B0  EF5C  F020         	goto	u5410
  9897  0040B4                     u5411:
  9898  0040B4  EF66  F020         	goto	l4817
  9899  0040B8                     u5410:
  9900  0040B8  0E80               	movlw	128
  9901  0040BA  C011  F00D         	movff	LCDGoto@pos,??_LCDGoto
  9902  0040BE  6A0E               	clrf	(??_LCDGoto+1)^0,c
  9903  0040C0  100D               	iorwf	??_LCDGoto^0,w,c
  9904  0040C2  6E0F               	movwf	_LCDGoto$816^0,c
  9905  0040C4  500E               	movf	(??_LCDGoto+1)^0,w,c
  9906  0040C6  6E10               	movwf	(_LCDGoto$816+1)^0,c
  9907  0040C8  EF6E  F020         	goto	l4819
  9908  0040CC                     l4817:
  9909  0040CC  0EC0               	movlw	192
  9910  0040CE  C011  F00D         	movff	LCDGoto@pos,??_LCDGoto
  9911  0040D2  6A0E               	clrf	(??_LCDGoto+1)^0,c
  9912  0040D4  100D               	iorwf	??_LCDGoto^0,w,c
  9913  0040D6  6E0F               	movwf	_LCDGoto$816^0,c
  9914  0040D8  500E               	movf	(??_LCDGoto+1)^0,w,c
  9915  0040DA  6E10               	movwf	(_LCDGoto$816+1)^0,c
  9916  0040DC                     l4819:
  9917  0040DC  500F               	movf	_LCDGoto$816^0,w,c
  9918  0040DE  EC63  F022         	call	_LCDPutCmd
  9919  0040E2                     
  9920                           ;lcd.c: 161:     _delay((unsigned long)((5)*(8000000/4000.0)));
  9921  0040E2  0E0D               	movlw	13
  9922  0040E4  6E0D               	movwf	??_LCDGoto^0,c
  9923  0040E6  0EFC               	movlw	252
  9924  0040E8                     u8157:
  9925  0040E8  2EE8               	decfsz	wreg,f,c
  9926  0040EA  D7FE               	bra	u8157
  9927  0040EC  2E0D               	decfsz	??_LCDGoto^0,f,c
  9928  0040EE  D7FC               	bra	u8157
  9929  0040F0                     l192:
  9930  0040F0  0012               	return		;funcret
  9931  0040F2                     __end_of_LCDGoto:
  9932                           	opt callstack 0
  9933                           
  9934 ;; *************** function _LCDPutCmd *****************
  9935 ;; Defined at:
  9936 ;;		line 118 in file "lcd.c"
  9937 ;; Parameters:    Size  Location     Type
  9938 ;;  ch              1    wreg     unsigned char 
  9939 ;; Auto vars:     Size  Location     Type
  9940 ;;  ch              1   10[COMRAM] unsigned char 
  9941 ;; Return value:  Size  Location     Type
  9942 ;;                  1    wreg      void 
  9943 ;; Registers used:
  9944 ;;		wreg, status,2, status,0, cstack
  9945 ;; Tracked objects:
  9946 ;;		On entry : 0/0
  9947 ;;		On exit  : 0/0
  9948 ;;		Unchanged: 0/0
  9949 ;; Data sizes:     COMRAM   BANK0   BANK1   BANK2   BANK3   BANK4   BANK5   BANK6   BANK7   BANK8   BANK9  BANK10  BANK1
      +1  BANK12  BANK13  BANK14  BANK15
  9950 ;;      Params:         0       0       0       0       0       0       0       0       0       0       0       0       
      +0       0       0       0       0
  9951 ;;      Locals:         1       0       0       0       0       0       0       0       0       0       0       0       
      +0       0       0       0       0
  9952 ;;      Temps:          1       0       0       0       0       0       0       0       0       0       0       0       
      +0       0       0       0       0
  9953 ;;      Totals:         2       0       0       0       0       0       0       0       0       0       0       0       
      +0       0       0       0       0
  9954 ;;Total ram usage:        2 bytes
  9955 ;; Hardware stack levels used:    1
  9956 ;; Hardware stack levels required when called:    4
  9957 ;; This function calls:
  9958 ;;		_LCDWriteNibble
  9959 ;; This function is called by:
  9960 ;;		_main
  9961 ;;		_LCD_Initialize
  9962 ;;		_LCDGoto
  9963 ;; This function uses a non-reentrant model
  9964 ;;
  9965                           
  9966                           	psect	text53
  9967  0044C6                     __ptext53:
  9968                           	opt callstack 0
  9969  0044C6                     _LCDPutCmd:
  9970                           	opt callstack 25
  9971                           
  9972                           ;incstack = 0
  9973                           ;LCDPutCmd@ch stored from wreg
  9974  0044C6  6E0B               	movwf	LCDPutCmd@ch^0,c
  9975  0044C8                     
  9976                           ;lcd.c: 118: void LCDPutCmd(uint8_t ch);lcd.c: 119: {;lcd.c: 120:     _delay((unsigned l
      +                          ong)((5)*(8000000/4000.0)));
  9977  0044C8  0E0D               	movlw	13
  9978  0044CA  6E0A               	movwf	??_LCDPutCmd^0,c
  9979  0044CC  0EFC               	movlw	252
  9980  0044CE                     u8167:
  9981  0044CE  2EE8               	decfsz	wreg,f,c
  9982  0044D0  D7FE               	bra	u8167
  9983  0044D2  2E0A               	decfsz	??_LCDPutCmd^0,f,c
  9984  0044D4  D7FC               	bra	u8167
  9985  0044D6                     
  9986                           ;lcd.c: 123:     LCDWriteNibble(ch,0);
  9987  0044D6  0E00               	movlw	0
  9988  0044D8  6E08               	movwf	LCDWriteNibble@rs^0,c
  9989  0044DA  500B               	movf	LCDPutCmd@ch^0,w,c
  9990  0044DC  EC4C  F023         	call	_LCDWriteNibble
  9991  0044E0                     
  9992                           ;lcd.c: 126:     ch = (ch << 4);
  9993  0044E0  380B               	swapf	LCDPutCmd@ch^0,w,c
  9994  0044E2  0BF0               	andlw	240
  9995  0044E4  6E0B               	movwf	LCDPutCmd@ch^0,c
  9996  0044E6                     
  9997                           ;lcd.c: 128:     _delay((unsigned long)((1)*(8000000/4000.0)));
  9998  0044E6  0E03               	movlw	3
  9999  0044E8  6E0A               	movwf	??_LCDPutCmd^0,c
 10000  0044EA  0E98               	movlw	152
 10001  0044EC                     u8177:
 10002  0044EC  2EE8               	decfsz	wreg,f,c
 10003  0044EE  D7FE               	bra	u8177
 10004  0044F0  2E0A               	decfsz	??_LCDPutCmd^0,f,c
 10005  0044F2  D7FC               	bra	u8177
 10006  0044F4                     
 10007                           ;lcd.c: 131:     LCDWriteNibble(ch,0);
 10008  0044F4  0E00               	movlw	0
 10009  0044F6  6E08               	movwf	LCDWriteNibble@rs^0,c
 10010  0044F8  500B               	movf	LCDPutCmd@ch^0,w,c
 10011  0044FA  EC4C  F023         	call	_LCDWriteNibble
 10012  0044FE  0012               	return		;funcret
 10013  004500                     __end_of_LCDPutCmd:
 10014                           	opt callstack 0
 10015                           
 10016 ;; *************** function _LCDWriteNibble *****************
 10017 ;; Defined at:
 10018 ;;		line 76 in file "lcd.c"
 10019 ;; Parameters:    Size  Location     Type
 10020 ;;  ch              1    wreg     unsigned char 
 10021 ;;  rs              1    7[COMRAM] unsigned char 
 10022 ;; Auto vars:     Size  Location     Type
 10023 ;;  ch              1    8[COMRAM] unsigned char 
 10024 ;; Return value:  Size  Location     Type
 10025 ;;                  1    wreg      void 
 10026 ;; Registers used:
 10027 ;;		wreg, status,2, status,0
 10028 ;; Tracked objects:
 10029 ;;		On entry : 0/0
 10030 ;;		On exit  : 0/0
 10031 ;;		Unchanged: 0/0
 10032 ;; Data sizes:     COMRAM   BANK0   BANK1   BANK2   BANK3   BANK4   BANK5   BANK6   BANK7   BANK8   BANK9  BANK10  BANK1
      +1  BANK12  BANK13  BANK14  BANK15
 10033 ;;      Params:         1       0       0       0       0       0       0       0       0       0       0       0       
      +0       0       0       0       0
 10034 ;;      Locals:         1       0       0       0       0       0       0       0       0       0       0       0       
      +0       0       0       0       0
 10035 ;;      Temps:          0       0       0       0       0       0       0       0       0       0       0       0       
      +0       0       0       0       0
 10036 ;;      Totals:         2       0       0       0       0       0       0       0       0       0       0       0       
      +0       0       0       0       0
 10037 ;;Total ram usage:        2 bytes
 10038 ;; Hardware stack levels used:    1
 10039 ;; Hardware stack levels required when called:    3
 10040 ;; This function calls:
 10041 ;;		Nothing
 10042 ;; This function is called by:
 10043 ;;		_LCDPutChar
 10044 ;;		_LCDPutCmd
 10045 ;; This function uses a non-reentrant model
 10046 ;;
 10047                           
 10048                           	psect	text54
 10049  004698                     __ptext54:
 10050                           	opt callstack 0
 10051  004698                     _LCDWriteNibble:
 10052                           	opt callstack 25
 10053                           
 10054                           ;incstack = 0
 10055                           ;LCDWriteNibble@ch stored from wreg
 10056  004698  6E09               	movwf	LCDWriteNibble@ch^0,c
 10057  00469A                     
 10058                           ;lcd.c: 76: void LCDWriteNibble(uint8_t ch,uint8_t rs);lcd.c: 77: {;lcd.c: 79:     ch = 
      +                          (ch >> 4);
 10059  00469A  3809               	swapf	LCDWriteNibble@ch^0,w,c
 10060  00469C  0B0F               	andlw	15
 10061  00469E  6E09               	movwf	LCDWriteNibble@ch^0,c
 10062                           
 10063                           ;lcd.c: 82:     ch = (ch & 0x0F);
 10064  0046A0  5009               	movf	LCDWriteNibble@ch^0,w,c
 10065  0046A2  0B0F               	andlw	15
 10066  0046A4  6E09               	movwf	LCDWriteNibble@ch^0,c
 10067                           
 10068                           ;lcd.c: 85:     PORTB = (PORTB & 0xF0);
 10069  0046A6  5081               	movf	129,w,c	;volatile
 10070  0046A8  0BF0               	andlw	240
 10071  0046AA  6E81               	movwf	129,c	;volatile
 10072                           
 10073                           ;lcd.c: 88:     PORTB = (PORTB | ch);
 10074  0046AC  5081               	movf	129,w,c	;volatile
 10075  0046AE  1009               	iorwf	LCDWriteNibble@ch^0,w,c
 10076  0046B0  6E81               	movwf	129,c	;volatile
 10077  0046B2                     
 10078                           ;lcd.c: 91:     PORTBbits.RB4 = rs;
 10079  0046B2  B008               	btfsc	LCDWriteNibble@rs^0,0,c
 10080  0046B4  D002               	bra	u5055
 10081  0046B6  9881               	bcf	129,4,c	;volatile
 10082  0046B8  D001               	bra	u5056
 10083  0046BA                     u5055:
 10084  0046BA  8881               	bsf	129,4,c	;volatile
 10085  0046BC                     u5056:
 10086  0046BC                     
 10087                           ;lcd.c: 94:     PORTBbits.RB5 = 0;
 10088  0046BC  9A81               	bcf	129,5,c	;volatile
 10089  0046BE                     
 10090                           ;lcd.c: 97:     PORTBbits.RB6 = 1;
 10091  0046BE  8C81               	bsf	129,6,c	;volatile
 10092  0046C0                     
 10093                           ;lcd.c: 100:     PORTBbits.RB6 = 0;
 10094  0046C0  9C81               	bcf	129,6,c	;volatile
 10095  0046C2  0012               	return		;funcret
 10096  0046C4                     __end_of_LCDWriteNibble:
 10097                           	opt callstack 0
 10098                           
 10099 ;; *************** function _INTERRUPT_InterruptManager *****************
 10100 ;; Defined at:
 10101 ;;		line 58 in file "mcc_generated_files/interrupt_manager.c"
 10102 ;; Parameters:    Size  Location     Type
 10103 ;;		None
 10104 ;; Auto vars:     Size  Location     Type
 10105 ;;		None
 10106 ;; Return value:  Size  Location     Type
 10107 ;;                  1    wreg      void 
 10108 ;; Registers used:
 10109 ;;		wreg, fsr2l, fsr2h, status,2, status,0, cstack
 10110 ;; Tracked objects:
 10111 ;;		On entry : 0/0
 10112 ;;		On exit  : 0/0
 10113 ;;		Unchanged: 0/0
 10114 ;; Data sizes:     COMRAM   BANK0   BANK1   BANK2   BANK3   BANK4   BANK5   BANK6   BANK7   BANK8   BANK9  BANK10  BANK1
      +1  BANK12  BANK13  BANK14  BANK15
 10115 ;;      Params:         0       0       0       0       0       0       0       0       0       0       0       0       
      +0       0       0       0       0
 10116 ;;      Locals:         0       0       0       0       0       0       0       0       0       0       0       0       
      +0       0       0       0       0
 10117 ;;      Temps:          2       0       0       0       0       0       0       0       0       0       0       0       
      +0       0       0       0       0
 10118 ;;      Totals:         2       0       0       0       0       0       0       0       0       0       0       0       
      +0       0       0       0       0
 10119 ;;Total ram usage:        2 bytes
 10120 ;; Hardware stack levels used:    1
 10121 ;; Hardware stack levels required when called:    2
 10122 ;; This function calls:
 10123 ;;		_I2C1_BusCollisionISR
 10124 ;;		_I2C1_ISR
 10125 ;; This function is called by:
 10126 ;;		Interrupt level 2
 10127 ;; This function uses a non-reentrant model
 10128 ;;
 10129                           
 10130                           	psect	intcode
 10131  000008                     __pintcode:
 10132                           	opt callstack 0
 10133  000008                     _INTERRUPT_InterruptManager:
 10134                           	opt callstack 19
 10135                           
 10136                           ;incstack = 0
 10137  000008  8258               	bsf	int$flags,1,c	;set compiler interrupt flag (level 2)
 10138  00000A  CFD9 F006          	movff	fsr2l,??_INTERRUPT_InterruptManager
 10139  00000E  CFDA F007          	movff	fsr2h,??_INTERRUPT_InterruptManager+1
 10140  000012                     
 10141                           ;mcc_generated_files/interrupt_manager.c: 61:     if(INTCONbits.PEIE == 1)
 10142  000012  ACF2               	btfss	242,6,c	;volatile
 10143  000014  EF0E  F000         	goto	i2u568_41
 10144  000018  EF10  F000         	goto	i2u568_40
 10145  00001C                     i2u568_41:
 10146  00001C  EF34  F000         	goto	i2l226
 10147  000020                     i2u568_40:
 10148  000020                     
 10149                           ;mcc_generated_files/interrupt_manager.c: 62:     {;mcc_generated_files/interrupt_manage
      +                          r.c: 63:         if(PIE2bits.BCL1IE == 1 && PIR2bits.BCL1IF == 1)
 10150  000020  A6A0               	btfss	160,3,c	;volatile
 10151  000022  EF15  F000         	goto	i2u569_41
 10152  000026  EF17  F000         	goto	i2u569_40
 10153  00002A                     i2u569_41:
 10154  00002A  EF22  F000         	goto	i2l221
 10155  00002E                     i2u569_40:
 10156  00002E  A6A1               	btfss	161,3,c	;volatile
 10157  000030  EF1C  F000         	goto	i2u570_41
 10158  000034  EF1E  F000         	goto	i2u570_40
 10159  000038                     i2u570_41:
 10160  000038  EF22  F000         	goto	i2l221
 10161  00003C                     i2u570_40:
 10162  00003C                     
 10163                           ;mcc_generated_files/interrupt_manager.c: 64:         {;mcc_generated_files/interrupt_ma
      +                          nager.c: 65:             I2C1_BusCollisionISR();
 10164  00003C  EC02  F024         	call	_I2C1_BusCollisionISR	;wreg free
 10165                           
 10166                           ;mcc_generated_files/interrupt_manager.c: 66:         }
 10167  000040  EF34  F000         	goto	i2l226
 10168  000044                     i2l221:
 10169  000044  A69D               	btfss	157,3,c	;volatile
 10170  000046  EF27  F000         	goto	i2u571_41
 10171  00004A  EF29  F000         	goto	i2u571_40
 10172  00004E                     i2u571_41:
 10173  00004E  EF34  F000         	goto	i2l222
 10174  000052                     i2u571_40:
 10175  000052  A69E               	btfss	158,3,c	;volatile
 10176  000054  EF2E  F000         	goto	i2u572_41
 10177  000058  EF30  F000         	goto	i2u572_40
 10178  00005C                     i2u572_41:
 10179  00005C  EF34  F000         	goto	i2l222
 10180  000060                     i2u572_40:
 10181  000060                     
 10182                           ;mcc_generated_files/interrupt_manager.c: 68:         {;mcc_generated_files/interrupt_ma
      +                          nager.c: 69:             I2C1_ISR();
 10183  000060  EC50  F017         	call	_I2C1_ISR	;wreg free
 10184                           
 10185                           ;mcc_generated_files/interrupt_manager.c: 70:         }
 10186  000064  EF34  F000         	goto	i2l226
 10187  000068                     i2l222:
 10188  000068                     i2l226:
 10189  000068  C007  FFDA         	movff	??_INTERRUPT_InterruptManager+1,fsr2h
 10190  00006C  C006  FFD9         	movff	??_INTERRUPT_InterruptManager,fsr2l
 10191  000070  9258               	bcf	int$flags,1,c	;clear compiler interrupt flag (level 2)
 10192  000072  0011               	retfie		f
 10193  000074                     __end_of_INTERRUPT_InterruptManager:
 10194                           	opt callstack 0
 10195                           
 10196 ;; *************** function _I2C1_ISR *****************
 10197 ;; Defined at:
 10198 ;;		line 235 in file "mcc_generated_files/i2c1.c"
 10199 ;; Parameters:    Size  Location     Type
 10200 ;;		None
 10201 ;; Auto vars:     Size  Location     Type
 10202 ;;		None
 10203 ;; Return value:  Size  Location     Type
 10204 ;;                  1    wreg      void 
 10205 ;; Registers used:
 10206 ;;		wreg, fsr2l, fsr2h, status,2, status,0, cstack
 10207 ;; Tracked objects:
 10208 ;;		On entry : 0/0
 10209 ;;		On exit  : 0/0
 10210 ;;		Unchanged: 0/0
 10211 ;; Data sizes:     COMRAM   BANK0   BANK1   BANK2   BANK3   BANK4   BANK5   BANK6   BANK7   BANK8   BANK9  BANK10  BANK1
      +1  BANK12  BANK13  BANK14  BANK15
 10212 ;;      Params:         0       0       0       0       0       0       0       0       0       0       0       0       
      +0       0       0       0       0
 10213 ;;      Locals:         0       0       0       0       0       0       0       0       0       0       0       0       
      +0       0       0       0       0
 10214 ;;      Temps:          2       0       0       0       0       0       0       0       0       0       0       0       
      +0       0       0       0       0
 10215 ;;      Totals:         2       0       0       0       0       0       0       0       0       0       0       0       
      +0       0       0       0       0
 10216 ;;Total ram usage:        2 bytes
 10217 ;; Hardware stack levels used:    1
 10218 ;; Hardware stack levels required when called:    1
 10219 ;; This function calls:
 10220 ;;		_I2C1_FunctionComplete
 10221 ;;		_I2C1_Stop
 10222 ;; This function is called by:
 10223 ;;		_INTERRUPT_InterruptManager
 10224 ;; This function uses a non-reentrant model
 10225 ;;
 10226                           
 10227                           	psect	text56
 10228  002EA0                     __ptext56:
 10229                           	opt callstack 0
 10230  002EA0                     _I2C1_ISR:
 10231                           	opt callstack 19
 10232  002EA0                     
 10233                           ;mcc_generated_files/i2c1.c: 238:     static uint8_t *pi2c_buf_ptr;;mcc_generated_files/
      +                          i2c1.c: 239:     static uint16_t i2c_address = 0;;mcc_generated_files/i2c1.c: 240:     s
      +                          tatic uint8_t i2c_bytes_left = 0;;mcc_generated_files/i2c1.c: 241:     static uint8_t i2
      +                          c_10bit_address_restart = 0;;mcc_generated_files/i2c1.c: 243:     PIR1bits.SSP1IF = 0;
 10234  002EA0  969E               	bcf	158,3,c	;volatile
 10235                           
 10236                           ;mcc_generated_files/i2c1.c: 247:     if(SSP1CON1bits.WCOL)
 10237  002EA2  AEC6               	btfss	198,7,c	;volatile
 10238  002EA4  EF56  F017         	goto	i2u542_41
 10239  002EA8  EF58  F017         	goto	i2u542_40
 10240  002EAC                     i2u542_41:
 10241  002EAC  EFA5  F018         	goto	i2l4961
 10242  002EB0                     i2u542_40:
 10243  002EB0                     
 10244                           ;mcc_generated_files/i2c1.c: 248:     {;mcc_generated_files/i2c1.c: 250:         SSP1CON
      +                          1bits.WCOL = 0;
 10245  002EB0  9EC6               	bcf	198,7,c	;volatile
 10246  002EB2                     
 10247                           ;mcc_generated_files/i2c1.c: 251:         i2c1_state = S_MASTER_IDLE;
 10248  002EB2  0E00               	movlw	0
 10249  002EB4  6E55               	movwf	_i2c1_state^0,c
 10250  002EB6                     
 10251                           ;mcc_generated_files/i2c1.c: 252:         *(p_i2c1_current->pTrFlag) = I2C1_MESSAGE_FAIL
      +                          ;
 10252  002EB6  0100               	movlb	0	; () banked
 10253  002EB8  EE20 F003          	lfsr	2,3
 10254  002EBC  51F3               	movf	_p_i2c1_current& (0+255),w,b
 10255  002EBE  26D9               	addwf	fsr2l,f,c
 10256  002EC0  51F4               	movf	(_p_i2c1_current+1)& (0+255),w,b
 10257  002EC2  22DA               	addwfc	fsr2h,f,c
 10258  002EC4  CFDE F004          	movff	postinc2,??_I2C1_ISR
 10259  002EC8  CFDD F005          	movff	postdec2,??_I2C1_ISR+1
 10260  002ECC  C004  FFD9         	movff	??_I2C1_ISR,fsr2l
 10261  002ED0  C005  FFDA         	movff	??_I2C1_ISR+1,fsr2h
 10262  002ED4  0E01               	movlw	1
 10263  002ED6  6EDF               	movwf	indf2,c
 10264  002ED8                     
 10265                           ; BSR set to: 0
 10266                           ;mcc_generated_files/i2c1.c: 255:         p_i2c1_current = ((void*)0);
 10267  002ED8  0E00               	movlw	0
 10268  002EDA  6FF3               	movwf	_p_i2c1_current& (0+255),b
 10269  002EDC  0E00               	movlw	0
 10270  002EDE  6FF4               	movwf	(_p_i2c1_current+1)& (0+255),b
 10271  002EE0  EFDE  F018         	goto	i2l288
 10272  002EE4                     i2l290:
 10273                           
 10274                           ;mcc_generated_files/i2c1.c: 265:             if(i2c1_object.trStatus.s.empty != 1)
 10275  002EE4  0100               	movlb	0	; () banked
 10276  002EE6  B3E0               	btfsc	(_i2c1_object+4)& (0+255),1,b
 10277  002EE8  EF78  F017         	goto	i2u543_41
 10278  002EEC  EF7A  F017         	goto	i2u543_40
 10279  002EF0                     i2u543_41:
 10280  002EF0  EFDE  F018         	goto	i2l288
 10281  002EF4                     i2u543_40:
 10282  002EF4                     
 10283                           ; BSR set to: 0
 10284                           ;mcc_generated_files/i2c1.c: 266:             {;mcc_generated_files/i2c1.c: 268:        
      +                                   p_i2c1_current = i2c1_object.pTrHead;
 10285  002EF4  C0DE  F0F3         	movff	_i2c1_object+2,_p_i2c1_current
 10286  002EF8  C0DF  F0F4         	movff	_i2c1_object+3,_p_i2c1_current+1
 10287  002EFC                     
 10288                           ; BSR set to: 0
 10289                           ;mcc_generated_files/i2c1.c: 269:                 i2c1_trb_count = i2c1_object.pTrHead->
      +                          count;
 10290  002EFC  C0DE  FFD9         	movff	_i2c1_object+2,fsr2l
 10291  002F00  C0DF  FFDA         	movff	_i2c1_object+3,fsr2h
 10292  002F04  50DF               	movf	indf2,w,c
 10293  002F06  6E54               	movwf	_i2c1_trb_count^0,c
 10294  002F08                     
 10295                           ; BSR set to: 0
 10296                           ;mcc_generated_files/i2c1.c: 270:                 p_i2c1_trb_current = i2c1_object.pTrHe
      +                          ad->ptrb_list;
 10297  002F08  EE20 F001          	lfsr	2,1
 10298  002F0C  51DE               	movf	(_i2c1_object+2)& (0+255),w,b
 10299  002F0E  26D9               	addwf	fsr2l,f,c
 10300  002F10  51DF               	movf	(_i2c1_object+3)& (0+255),w,b
 10301  002F12  22DA               	addwfc	fsr2h,f,c
 10302  002F14  CFDE F0F5          	movff	postinc2,_p_i2c1_trb_current
 10303  002F18  CFDD F0F6          	movff	postdec2,_p_i2c1_trb_current+1
 10304  002F1C                     
 10305                           ; BSR set to: 0
 10306                           ;mcc_generated_files/i2c1.c: 272:                 i2c1_object.pTrHead++;
 10307  002F1C  0E05               	movlw	5
 10308  002F1E  27DE               	addwf	(_i2c1_object+2)& (0+255),f,b
 10309  002F20  0E00               	movlw	0
 10310  002F22  23DF               	addwfc	(_i2c1_object+3)& (0+255),f,b
 10311  002F24                     
 10312                           ; BSR set to: 0
 10313                           ;mcc_generated_files/i2c1.c: 275:                 if(i2c1_object.pTrHead == (i2c1_tr_que
      +                          ue + 1))
 10314  002F24  0EFF               	movlw	low (_i2c1_tr_queue+5)
 10315  002F26  19DE               	xorwf	(_i2c1_object+2)& (0+255),w,b
 10316  002F28  E107               	bnz	i2u544_41
 10317  002F2A  0E00               	movlw	high (_i2c1_tr_queue+5)
 10318  002F2C  19DF               	xorwf	(_i2c1_object+3)& (0+255),w,b
 10319  002F2E  A4D8               	btfss	status,2,c
 10320  002F30  EF9C  F017         	goto	i2u544_41
 10321  002F34  EF9E  F017         	goto	i2u544_40
 10322  002F38                     i2u544_41:
 10323  002F38  EFA2  F017         	goto	i2l4853
 10324  002F3C                     i2u544_40:
 10325  002F3C                     
 10326                           ; BSR set to: 0
 10327                           ;mcc_generated_files/i2c1.c: 276:                 {;mcc_generated_files/i2c1.c: 278:    
      +                                           i2c1_object.pTrHead = i2c1_tr_queue;
 10328  002F3C  0EFA               	movlw	low _i2c1_tr_queue
 10329  002F3E  6FDE               	movwf	(_i2c1_object+2)& (0+255),b
 10330  002F40  0E00               	movlw	high _i2c1_tr_queue
 10331  002F42  6FDF               	movwf	(_i2c1_object+3)& (0+255),b
 10332  002F44                     i2l4853:
 10333                           
 10334                           ; BSR set to: 0
 10335                           ;mcc_generated_files/i2c1.c: 283:                 i2c1_object.trStatus.s.full = 0;
 10336  002F44  91E0               	bcf	(_i2c1_object+4)& (0+255),0,b
 10337                           
 10338                           ;mcc_generated_files/i2c1.c: 286:                 if(i2c1_object.pTrHead == i2c1_object.
      +                          pTrTail)
 10339  002F46  51DC               	movf	_i2c1_object& (0+255),w,b
 10340  002F48  19DE               	xorwf	(_i2c1_object+2)& (0+255),w,b
 10341  002F4A  E107               	bnz	i2u545_41
 10342  002F4C  51DD               	movf	(_i2c1_object+1)& (0+255),w,b
 10343  002F4E  19DF               	xorwf	(_i2c1_object+3)& (0+255),w,b
 10344  002F50  A4D8               	btfss	status,2,c
 10345  002F52  EFAD  F017         	goto	i2u545_41
 10346  002F56  EFAF  F017         	goto	i2u545_40
 10347  002F5A                     i2u545_41:
 10348  002F5A  EFB0  F017         	goto	i2l293
 10349  002F5E                     i2u545_40:
 10350  002F5E                     
 10351                           ; BSR set to: 0
 10352                           ;mcc_generated_files/i2c1.c: 287:                 {;mcc_generated_files/i2c1.c: 289:    
      +                                           i2c1_object.trStatus.s.empty = 1;
 10353  002F5E  83E0               	bsf	(_i2c1_object+4)& (0+255),1,b
 10354  002F60                     i2l293:
 10355                           
 10356                           ; BSR set to: 0
 10357                           ;mcc_generated_files/i2c1.c: 293:                 SSP1CON2bits.SEN = 1;
 10358  002F60  80C5               	bsf	197,0,c	;volatile
 10359  002F62                     i2l4857:
 10360                           
 10361                           ;mcc_generated_files/i2c1.c: 296:                 i2c1_state = S_MASTER_SEND_ADDR;
 10362  002F62  0E02               	movlw	2
 10363  002F64  6E55               	movwf	_i2c1_state^0,c
 10364  002F66  EFDE  F018         	goto	i2l288
 10365  002F6A                     i2l295:
 10366                           
 10367                           ;mcc_generated_files/i2c1.c: 306:             SSP1CON2bits.RSEN = 1;
 10368  002F6A  82C5               	bsf	197,1,c	;volatile
 10369  002F6C  EFB1  F017         	goto	i2l4857
 10370  002F70                     i2l296:
 10371                           
 10372                           ;mcc_generated_files/i2c1.c: 315:             if(SSP1CON2bits.ACKSTAT)
 10373  002F70  ACC5               	btfss	197,6,c	;volatile
 10374  002F72  EFBD  F017         	goto	i2u546_41
 10375  002F76  EFBF  F017         	goto	i2u546_40
 10376  002F7A                     i2u546_41:
 10377  002F7A  EFC6  F017         	goto	i2l4865
 10378  002F7E                     i2u546_40:
 10379  002F7E                     
 10380                           ;mcc_generated_files/i2c1.c: 316:             {;mcc_generated_files/i2c1.c: 317:        
      +                                   i2c1_object.i2cErrors++;
 10381  002F7E  0100               	movlb	0	; () banked
 10382  002F80  2BE2               	incf	(_i2c1_object+6)& (0+255),f,b
 10383  002F82                     
 10384                           ; BSR set to: 0
 10385                           ;mcc_generated_files/i2c1.c: 318:                 I2C1_Stop(I2C1_MESSAGE_ADDRESS_NO_ACK)
      +                          ;
 10386  002F82  0E04               	movlw	4
 10387  002F84  EC60  F021         	call	_I2C1_Stop
 10388                           
 10389                           ;mcc_generated_files/i2c1.c: 319:             }
 10390  002F88  EFDE  F018         	goto	i2l288
 10391  002F8C                     i2l4865:
 10392                           
 10393                           ;mcc_generated_files/i2c1.c: 321:             {;mcc_generated_files/i2c1.c: 323:        
      +                                   SSP1BUF = (i2c_address >> 1) & 0x00FF;
 10394  002F8C  90D8               	bcf	status,0,c
 10395  002F8E  3057               	rrcf	(I2C1_ISR@i2c_address+1)^0,w,c
 10396  002F90  6E05               	movwf	(??_I2C1_ISR+1)^0,c
 10397  002F92  3056               	rrcf	I2C1_ISR@i2c_address^0,w,c
 10398  002F94  6E04               	movwf	??_I2C1_ISR^0,c
 10399  002F96  5004               	movf	??_I2C1_ISR^0,w,c
 10400  002F98  6EC9               	movwf	201,c	;volatile
 10401  002F9A                     
 10402                           ;mcc_generated_files/i2c1.c: 326:                 if(i2c_address & 0x01)
 10403  002F9A  A056               	btfss	I2C1_ISR@i2c_address^0,0,c
 10404  002F9C  EFD2  F017         	goto	i2u547_41
 10405  002FA0  EFD4  F017         	goto	i2u547_40
 10406  002FA4                     i2u547_41:
 10407  002FA4  EFD8  F017         	goto	i2l4871
 10408  002FA8                     i2u547_40:
 10409  002FA8                     
 10410                           ;mcc_generated_files/i2c1.c: 327:                 {;mcc_generated_files/i2c1.c: 330:    
      +                                           i2c1_state = S_MASTER_10BIT_RESTART;
 10411  002FA8  0E0B               	movlw	11
 10412  002FAA  6E55               	movwf	_i2c1_state^0,c
 10413                           
 10414                           ;mcc_generated_files/i2c1.c: 331:                 }
 10415  002FAC  EFDE  F018         	goto	i2l288
 10416  002FB0                     i2l4871:
 10417                           
 10418                           ;mcc_generated_files/i2c1.c: 333:                 {;mcc_generated_files/i2c1.c: 335:    
      +                                           i2c1_state = S_MASTER_SEND_DATA;
 10419  002FB0  0E03               	movlw	3
 10420  002FB2  6E55               	movwf	_i2c1_state^0,c
 10421  002FB4  EFDE  F018         	goto	i2l288
 10422  002FB8                     i2l301:
 10423                           
 10424                           ;mcc_generated_files/i2c1.c: 343:             if(SSP1CON2bits.ACKSTAT)
 10425  002FB8  ACC5               	btfss	197,6,c	;volatile
 10426  002FBA  EFE1  F017         	goto	i2u548_41
 10427  002FBE  EFE3  F017         	goto	i2u548_40
 10428  002FC2                     i2u548_41:
 10429  002FC2  EFEA  F017         	goto	i2l302
 10430  002FC6                     i2u548_40:
 10431  002FC6                     
 10432                           ;mcc_generated_files/i2c1.c: 344:             {;mcc_generated_files/i2c1.c: 345:        
      +                                   i2c1_object.i2cErrors++;
 10433  002FC6  0100               	movlb	0	; () banked
 10434  002FC8  2BE2               	incf	(_i2c1_object+6)& (0+255),f,b
 10435  002FCA                     
 10436                           ; BSR set to: 0
 10437                           ;mcc_generated_files/i2c1.c: 346:                 I2C1_Stop(I2C1_MESSAGE_ADDRESS_NO_ACK)
      +                          ;
 10438  002FCA  0E04               	movlw	4
 10439  002FCC  EC60  F021         	call	_I2C1_Stop
 10440                           
 10441                           ;mcc_generated_files/i2c1.c: 347:             }
 10442  002FD0  EFDE  F018         	goto	i2l288
 10443  002FD4                     i2l302:
 10444                           
 10445                           ;mcc_generated_files/i2c1.c: 349:             {;mcc_generated_files/i2c1.c: 352:        
      +                                   SSP1CON2bits.RSEN = 1;
 10446  002FD4  82C5               	bsf	197,1,c	;volatile
 10447  002FD6                     
 10448                           ;mcc_generated_files/i2c1.c: 356:                 i2c_address = 0x00F0 | ((i2c_address >
      +                          > 8) & 0x0006);
 10449  002FD6  C056  F004         	movff	I2C1_ISR@i2c_address,??_I2C1_ISR
 10450  002FDA  C057  F005         	movff	I2C1_ISR@i2c_address+1,??_I2C1_ISR+1
 10451  002FDE  C005  F004         	movff	??_I2C1_ISR+1,??_I2C1_ISR
 10452  002FE2  6A05               	clrf	(??_I2C1_ISR+1)^0,c
 10453  002FE4  0E06               	movlw	6
 10454  002FE6  1604               	andwf	??_I2C1_ISR^0,f,c
 10455  002FE8  0E00               	movlw	0
 10456  002FEA  1605               	andwf	(??_I2C1_ISR+1)^0,f,c
 10457  002FEC  0EF0               	movlw	240
 10458  002FEE  1004               	iorwf	??_I2C1_ISR^0,w,c
 10459  002FF0  6E56               	movwf	I2C1_ISR@i2c_address^0,c
 10460  002FF2  5005               	movf	(??_I2C1_ISR+1)^0,w,c
 10461  002FF4  6E57               	movwf	(I2C1_ISR@i2c_address+1)^0,c
 10462  002FF6                     
 10463                           ;mcc_generated_files/i2c1.c: 359:                 i2c_address |= 0x0001;
 10464  002FF6  8056               	bsf	I2C1_ISR@i2c_address^0,0,c
 10465  002FF8                     
 10466                           ;mcc_generated_files/i2c1.c: 362:                 i2c_10bit_address_restart = 1;
 10467  002FF8  0E01               	movlw	1
 10468  002FFA  6E52               	movwf	I2C1_ISR@i2c_10bit_address_restart^0,c
 10469  002FFC  EFB1  F017         	goto	i2l4857
 10470  003000                     i2l4885:
 10471                           
 10472                           ;mcc_generated_files/i2c1.c: 383:             if(i2c_10bit_address_restart != 1)
 10473  003000  0452               	decf	I2C1_ISR@i2c_10bit_address_restart^0,w,c
 10474  003002  B4D8               	btfsc	status,2,c
 10475  003004  EF06  F018         	goto	i2u549_41
 10476  003008  EF08  F018         	goto	i2u549_40
 10477  00300C                     i2u549_41:
 10478  00300C  EF23  F018         	goto	i2l306
 10479  003010                     i2u549_40:
 10480  003010                     
 10481                           ;mcc_generated_files/i2c1.c: 384:             {;mcc_generated_files/i2c1.c: 386:        
      +                                   i2c_address = p_i2c1_trb_current->address;
 10482  003010  C0F5  FFD9         	movff	_p_i2c1_trb_current,fsr2l
 10483  003014  C0F6  FFDA         	movff	_p_i2c1_trb_current+1,fsr2h
 10484  003018  CFDE F056          	movff	postinc2,I2C1_ISR@i2c_address
 10485  00301C  CFDD F057          	movff	postdec2,I2C1_ISR@i2c_address+1
 10486  003020                     
 10487                           ;mcc_generated_files/i2c1.c: 387:                 pi2c_buf_ptr = p_i2c1_trb_current->pbu
      +                          ffer;
 10488  003020  0100               	movlb	0	; () banked
 10489  003022  EE20 F003          	lfsr	2,3
 10490  003026  51F5               	movf	_p_i2c1_trb_current& (0+255),w,b
 10491  003028  26D9               	addwf	fsr2l,f,c
 10492  00302A  51F6               	movf	(_p_i2c1_trb_current+1)& (0+255),w,b
 10493  00302C  22DA               	addwfc	fsr2h,f,c
 10494  00302E  CFDE F0F1          	movff	postinc2,I2C1_ISR@pi2c_buf_ptr
 10495  003032  CFDD F0F2          	movff	postdec2,I2C1_ISR@pi2c_buf_ptr+1
 10496  003036                     
 10497                           ; BSR set to: 0
 10498                           ;mcc_generated_files/i2c1.c: 388:                 i2c_bytes_left = p_i2c1_trb_current->l
      +                          ength;
 10499  003036  EE20 F002          	lfsr	2,2
 10500  00303A  51F5               	movf	_p_i2c1_trb_current& (0+255),w,b
 10501  00303C  26D9               	addwf	fsr2l,f,c
 10502  00303E  51F6               	movf	(_p_i2c1_trb_current+1)& (0+255),w,b
 10503  003040  22DA               	addwfc	fsr2h,f,c
 10504  003042  50DF               	movf	indf2,w,c
 10505  003044  6E53               	movwf	I2C1_ISR@i2c_bytes_left^0,c
 10506  003046                     i2l306:
 10507                           
 10508                           ;mcc_generated_files/i2c1.c: 412:             {;mcc_generated_files/i2c1.c: 414:        
      +                                   SSP1BUF = i2c_address;
 10509  003046  C056  FFC9         	movff	I2C1_ISR@i2c_address,4041	;volatile
 10510                           
 10511                           ;mcc_generated_files/i2c1.c: 415:                 if(i2c_address & 0x01)
 10512  00304A  A056               	btfss	I2C1_ISR@i2c_address^0,0,c
 10513  00304C  EF2A  F018         	goto	i2u550_41
 10514  003050  EF2C  F018         	goto	i2u550_40
 10515  003054                     i2u550_41:
 10516  003054  EFD8  F017         	goto	i2l4871
 10517  003058                     i2u550_40:
 10518  003058                     
 10519                           ;mcc_generated_files/i2c1.c: 416:                 {;mcc_generated_files/i2c1.c: 418:    
      +                                           i2c1_state = S_MASTER_ACK_ADDR;
 10520  003058  0E05               	movlw	5
 10521  00305A  6E55               	movwf	_i2c1_state^0,c
 10522                           
 10523                           ;mcc_generated_files/i2c1.c: 419:                 }
 10524  00305C  EFDE  F018         	goto	i2l288
 10525  003060                     i2l312:
 10526                           
 10527                           ;mcc_generated_files/i2c1.c: 431:             if(SSP1CON2bits.ACKSTAT)
 10528  003060  ACC5               	btfss	197,6,c	;volatile
 10529  003062  EF35  F018         	goto	i2u551_41
 10530  003066  EF37  F018         	goto	i2u551_40
 10531  00306A                     i2u551_41:
 10532  00306A  EF3F  F018         	goto	i2l4913
 10533  00306E                     i2u551_40:
 10534  00306E                     
 10535                           ;mcc_generated_files/i2c1.c: 432:             {;mcc_generated_files/i2c1.c: 434:        
      +                                   i2c1_object.i2cErrors++;
 10536  00306E  0100               	movlb	0	; () banked
 10537  003070  2BE2               	incf	(_i2c1_object+6)& (0+255),f,b
 10538  003072                     
 10539                           ; BSR set to: 0
 10540                           ;mcc_generated_files/i2c1.c: 437:                 SSP1CON2bits.ACKSTAT = 0;
 10541  003072  9CC5               	bcf	197,6,c	;volatile
 10542  003074                     
 10543                           ; BSR set to: 0
 10544                           ;mcc_generated_files/i2c1.c: 440:                 I2C1_Stop(I2C1_DATA_NO_ACK);
 10545  003074  0E05               	movlw	5
 10546  003076  EC60  F021         	call	_I2C1_Stop
 10547                           
 10548                           ;mcc_generated_files/i2c1.c: 442:             }
 10549  00307A  EFDE  F018         	goto	i2l288
 10550  00307E                     i2l4913:
 10551                           
 10552                           ;mcc_generated_files/i2c1.c: 444:             {;mcc_generated_files/i2c1.c: 446:        
      +                                   if(i2c_bytes_left-- == 0U)
 10553  00307E  0653               	decf	I2C1_ISR@i2c_bytes_left^0,f,c
 10554  003080  2853               	incf	I2C1_ISR@i2c_bytes_left^0,w,c
 10555  003082  A4D8               	btfss	status,2,c
 10556  003084  EF46  F018         	goto	i2u552_41
 10557  003088  EF48  F018         	goto	i2u552_40
 10558  00308C                     i2u552_41:
 10559  00308C  EF58  F018         	goto	i2l4923
 10560  003090                     i2u552_40:
 10561  003090                     
 10562                           ;mcc_generated_files/i2c1.c: 447:                 {;mcc_generated_files/i2c1.c: 451:    
      +                                           p_i2c1_trb_current++;
 10563  003090  0E05               	movlw	5
 10564  003092  0100               	movlb	0	; () banked
 10565  003094  27F5               	addwf	_p_i2c1_trb_current& (0+255),f,b
 10566  003096  0E00               	movlw	0
 10567  003098  23F6               	addwfc	(_p_i2c1_trb_current+1)& (0+255),f,b
 10568  00309A                     
 10569                           ; BSR set to: 0
 10570                           ;mcc_generated_files/i2c1.c: 454:                     if(--i2c1_trb_count == 0)
 10571  00309A  2E54               	decfsz	_i2c1_trb_count^0,f,c
 10572  00309C  EF55  F018         	goto	i2l316
 10573  0030A0                     
 10574                           ; BSR set to: 0
 10575                           ;mcc_generated_files/i2c1.c: 455:                     {;mcc_generated_files/i2c1.c: 456:
      +                                                   I2C1_Stop(I2C1_MESSAGE_COMPLETE);
 10576  0030A0  0E00               	movlw	0
 10577  0030A2  EC60  F021         	call	_I2C1_Stop
 10578                           
 10579                           ;mcc_generated_files/i2c1.c: 457:                     }
 10580  0030A6  EFDE  F018         	goto	i2l288
 10581  0030AA                     i2l316:
 10582                           
 10583                           ; BSR set to: 0
 10584                           ;mcc_generated_files/i2c1.c: 459:                     {;mcc_generated_files/i2c1.c: 466:
      +                                                   SSP1CON2bits.RSEN = 1;
 10585  0030AA  82C5               	bsf	197,1,c	;volatile
 10586  0030AC  EFB1  F017         	goto	i2l4857
 10587  0030B0                     i2l4923:
 10588                           
 10589                           ;mcc_generated_files/i2c1.c: 474:                 {;mcc_generated_files/i2c1.c: 476:    
      +                                           SSP1BUF = *pi2c_buf_ptr++;
 10590  0030B0  C0F1  FFD9         	movff	I2C1_ISR@pi2c_buf_ptr,fsr2l
 10591  0030B4  C0F2  FFDA         	movff	I2C1_ISR@pi2c_buf_ptr+1,fsr2h
 10592  0030B8  50DF               	movf	indf2,w,c
 10593  0030BA  6EC9               	movwf	201,c	;volatile
 10594  0030BC  0100               	movlb	0	; () banked
 10595  0030BE  4BF1               	infsnz	I2C1_ISR@pi2c_buf_ptr& (0+255),f,b
 10596  0030C0  2BF2               	incf	(I2C1_ISR@pi2c_buf_ptr+1)& (0+255),f,b
 10597  0030C2  EFDE  F018         	goto	i2l288
 10598  0030C6                     i2l319:
 10599                           
 10600                           ;mcc_generated_files/i2c1.c: 484:             if(SSP1CON2bits.ACKSTAT)
 10601  0030C6  ACC5               	btfss	197,6,c	;volatile
 10602  0030C8  EF68  F018         	goto	i2u553_41
 10603  0030CC  EF6A  F018         	goto	i2u553_40
 10604  0030D0                     i2u553_41:
 10605  0030D0  EF72  F018         	goto	i2l320
 10606  0030D4                     i2u553_40:
 10607  0030D4                     
 10608                           ;mcc_generated_files/i2c1.c: 485:             {;mcc_generated_files/i2c1.c: 488:        
      +                                   i2c1_object.i2cErrors++;
 10609  0030D4  0100               	movlb	0	; () banked
 10610  0030D6  2BE2               	incf	(_i2c1_object+6)& (0+255),f,b
 10611  0030D8                     
 10612                           ; BSR set to: 0
 10613                           ;mcc_generated_files/i2c1.c: 491:                 I2C1_Stop(I2C1_MESSAGE_ADDRESS_NO_ACK)
      +                          ;
 10614  0030D8  0E04               	movlw	4
 10615  0030DA  EC60  F021         	call	_I2C1_Stop
 10616  0030DE                     
 10617                           ;mcc_generated_files/i2c1.c: 494:                 SSP1CON2bits.ACKSTAT = 0;
 10618  0030DE  9CC5               	bcf	197,6,c	;volatile
 10619                           
 10620                           ;mcc_generated_files/i2c1.c: 495:             }
 10621  0030E0  EFDE  F018         	goto	i2l288
 10622  0030E4                     i2l320:
 10623                           
 10624                           ;mcc_generated_files/i2c1.c: 497:             {;mcc_generated_files/i2c1.c: 498:        
      +                                   SSP1CON2bits.RCEN = 1;
 10625  0030E4  86C5               	bsf	197,3,c	;volatile
 10626  0030E6                     
 10627                           ;mcc_generated_files/i2c1.c: 499:                 i2c1_state = S_MASTER_ACK_RCV_DATA;
 10628  0030E6  0E08               	movlw	8
 10629  0030E8  6E55               	movwf	_i2c1_state^0,c
 10630  0030EA  EFDE  F018         	goto	i2l288
 10631  0030EE                     i2l4935:
 10632                           
 10633                           ;mcc_generated_files/i2c1.c: 508:             i2c1_state = S_MASTER_ACK_RCV_DATA;
 10634  0030EE  0E08               	movlw	8
 10635  0030F0  6E55               	movwf	_i2c1_state^0,c
 10636  0030F2                     
 10637                           ;mcc_generated_files/i2c1.c: 511:             SSP1CON2bits.RCEN = 1;
 10638  0030F2  86C5               	bsf	197,3,c	;volatile
 10639                           
 10640                           ;mcc_generated_files/i2c1.c: 513:             break;
 10641  0030F4  EFDE  F018         	goto	i2l288
 10642  0030F8                     i2l4939:
 10643                           
 10644                           ;mcc_generated_files/i2c1.c: 518:             *pi2c_buf_ptr++ = SSP1BUF;
 10645  0030F8  C0F1  FFD9         	movff	I2C1_ISR@pi2c_buf_ptr,fsr2l
 10646  0030FC  C0F2  FFDA         	movff	I2C1_ISR@pi2c_buf_ptr+1,fsr2h
 10647  003100  CFC9 FFDF          	movff	4041,indf2	;volatile
 10648  003104  0100               	movlb	0	; () banked
 10649  003106  4BF1               	infsnz	I2C1_ISR@pi2c_buf_ptr& (0+255),f,b
 10650  003108  2BF2               	incf	(I2C1_ISR@pi2c_buf_ptr+1)& (0+255),f,b
 10651  00310A                     
 10652                           ; BSR set to: 0
 10653                           ;mcc_generated_files/i2c1.c: 521:             if(--i2c_bytes_left)
 10654  00310A  0E01               	movlw	1
 10655  00310C  5E53               	subwf	I2C1_ISR@i2c_bytes_left^0,f,c
 10656  00310E  B4D8               	btfsc	status,2,c
 10657  003110  EF8C  F018         	goto	i2u554_41
 10658  003114  EF8E  F018         	goto	i2u554_40
 10659  003118                     i2u554_41:
 10660  003118  EF93  F018         	goto	i2l324
 10661  00311C                     i2u554_40:
 10662  00311C                     
 10663                           ; BSR set to: 0
 10664                           ;mcc_generated_files/i2c1.c: 522:             {;mcc_generated_files/i2c1.c: 528:        
      +                                   SSP1CON2bits.ACKDT = 0;
 10665  00311C  9AC5               	bcf	197,5,c	;volatile
 10666  00311E                     
 10667                           ; BSR set to: 0
 10668                           ;mcc_generated_files/i2c1.c: 531:                 i2c1_state = S_MASTER_RCV_DATA;
 10669  00311E  0E06               	movlw	6
 10670  003120  6E55               	movwf	_i2c1_state^0,c
 10671                           
 10672                           ;mcc_generated_files/i2c1.c: 532:             }
 10673  003122  EF96  F018         	goto	i2l4951
 10674  003126                     i2l324:
 10675                           
 10676                           ; BSR set to: 0
 10677                           ;mcc_generated_files/i2c1.c: 534:             {;mcc_generated_files/i2c1.c: 538:        
      +                                   SSP1CON2bits.ACKDT = 1;
 10678  003126  8AC5               	bsf	197,5,c	;volatile
 10679  003128                     
 10680                           ; BSR set to: 0
 10681                           ;mcc_generated_files/i2c1.c: 540:                 I2C1_FunctionComplete();
 10682  003128  ECAB  F023         	call	_I2C1_FunctionComplete	;wreg free
 10683  00312C                     i2l4951:
 10684                           
 10685                           ;mcc_generated_files/i2c1.c: 544:             SSP1CON2bits.ACKEN = 1;
 10686  00312C  88C5               	bsf	197,4,c	;volatile
 10687                           
 10688                           ;mcc_generated_files/i2c1.c: 545:             break;
 10689  00312E  EFDE  F018         	goto	i2l288
 10690  003132                     i2l4953:
 10691                           
 10692                           ;mcc_generated_files/i2c1.c: 551:             I2C1_Stop(I2C1_MESSAGE_COMPLETE);
 10693  003132  0E00               	movlw	0
 10694  003134  EC60  F021         	call	_I2C1_Stop
 10695                           
 10696                           ;mcc_generated_files/i2c1.c: 552:             break;
 10697  003138  EFDE  F018         	goto	i2l288
 10698  00313C                     i2l4955:
 10699                           
 10700                           ;mcc_generated_files/i2c1.c: 558:             i2c1_object.i2cErrors++;
 10701  00313C  0100               	movlb	0	; () banked
 10702  00313E  2BE2               	incf	(_i2c1_object+6)& (0+255),f,b
 10703  003140                     
 10704                           ; BSR set to: 0
 10705                           ;mcc_generated_files/i2c1.c: 559:             I2C1_Stop(I2C1_LOST_STATE);
 10706  003140  0E06               	movlw	6
 10707  003142  EC60  F021         	call	_I2C1_Stop
 10708                           
 10709                           ;mcc_generated_files/i2c1.c: 560:             break;
 10710  003146  EFDE  F018         	goto	i2l288
 10711  00314A                     i2l4961:
 10712  00314A  5055               	movf	_i2c1_state^0,w,c
 10713  00314C  6E04               	movwf	??_I2C1_ISR^0,c
 10714  00314E  6A05               	clrf	(??_I2C1_ISR+1)^0,c
 10715                           
 10716                           ; Switch on 2 bytes has been partitioned into a top level switch of size 1, and 1 sub-sw
      +                          itches
 10717                           ; Switch size 1, requested type "simple"
 10718                           ; Number of cases is 1, Range of values is 0 to 0
 10719                           ; switch strategies available:
 10720                           ; Name         Instructions Cycles
 10721                           ; simple_byte            4     3 (average)
 10722                           ;	Chosen strategy is simple_byte
 10723  003150  5005               	movf	(??_I2C1_ISR+1)^0,w,c
 10724  003152  0A00               	xorlw	0	; case 0
 10725  003154  B4D8               	btfsc	status,2,c
 10726  003156  EFAF  F018         	goto	i2l6539
 10727  00315A  EF9E  F018         	goto	i2l4955
 10728  00315E                     i2l6539:
 10729                           
 10730                           ; Switch size 1, requested type "simple"
 10731                           ; Number of cases is 11, Range of values is 0 to 11
 10732                           ; switch strategies available:
 10733                           ; Name         Instructions Cycles
 10734                           ; simple_byte           34    18 (average)
 10735                           ;	Chosen strategy is simple_byte
 10736  00315E  5004               	movf	??_I2C1_ISR^0,w,c
 10737  003160  0A00               	xorlw	0	; case 0
 10738  003162  B4D8               	btfsc	status,2,c
 10739  003164  EF72  F017         	goto	i2l290
 10740  003168  0A01               	xorlw	1	; case 1
 10741  00316A  B4D8               	btfsc	status,2,c
 10742  00316C  EFB5  F017         	goto	i2l295
 10743  003170  0A03               	xorlw	3	; case 2
 10744  003172  B4D8               	btfsc	status,2,c
 10745  003174  EF00  F018         	goto	i2l4885
 10746  003178  0A01               	xorlw	1	; case 3
 10747  00317A  B4D8               	btfsc	status,2,c
 10748  00317C  EF30  F018         	goto	i2l312
 10749  003180  0A07               	xorlw	7	; case 4
 10750  003182  B4D8               	btfsc	status,2,c
 10751  003184  EF99  F018         	goto	i2l4953
 10752  003188  0A01               	xorlw	1	; case 5
 10753  00318A  B4D8               	btfsc	status,2,c
 10754  00318C  EF63  F018         	goto	i2l319
 10755  003190  0A03               	xorlw	3	; case 6
 10756  003192  B4D8               	btfsc	status,2,c
 10757  003194  EF77  F018         	goto	i2l4935
 10758  003198  0A01               	xorlw	1	; case 7
 10759  00319A  B4D8               	btfsc	status,2,c
 10760  00319C  EF99  F018         	goto	i2l4953
 10761  0031A0  0A0F               	xorlw	15	; case 8
 10762  0031A2  B4D8               	btfsc	status,2,c
 10763  0031A4  EF7C  F018         	goto	i2l4939
 10764  0031A8  0A02               	xorlw	2	; case 10
 10765  0031AA  B4D8               	btfsc	status,2,c
 10766  0031AC  EFB8  F017         	goto	i2l296
 10767  0031B0  0A01               	xorlw	1	; case 11
 10768  0031B2  B4D8               	btfsc	status,2,c
 10769  0031B4  EFDC  F017         	goto	i2l301
 10770  0031B8  EF9E  F018         	goto	i2l4955
 10771  0031BC                     i2l288:
 10772  0031BC  0012               	return		;funcret
 10773  0031BE                     __end_of_I2C1_ISR:
 10774                           	opt callstack 0
 10775                           
 10776 ;; *************** function _I2C1_Stop *****************
 10777 ;; Defined at:
 10778 ;;		line 583 in file "mcc_generated_files/i2c1.c"
 10779 ;; Parameters:    Size  Location     Type
 10780 ;;  completion_c    1    wreg     enum E5995
 10781 ;; Auto vars:     Size  Location     Type
 10782 ;;  completion_c    1    2[COMRAM] enum E5995
 10783 ;; Return value:  Size  Location     Type
 10784 ;;                  1    wreg      void 
 10785 ;; Registers used:
 10786 ;;		wreg, fsr2l, fsr2h, status,2, status,0
 10787 ;; Tracked objects:
 10788 ;;		On entry : 0/0
 10789 ;;		On exit  : 0/0
 10790 ;;		Unchanged: 0/0
 10791 ;; Data sizes:     COMRAM   BANK0   BANK1   BANK2   BANK3   BANK4   BANK5   BANK6   BANK7   BANK8   BANK9  BANK10  BANK1
      +1  BANK12  BANK13  BANK14  BANK15
 10792 ;;      Params:         0       0       0       0       0       0       0       0       0       0       0       0       
      +0       0       0       0       0
 10793 ;;      Locals:         1       0       0       0       0       0       0       0       0       0       0       0       
      +0       0       0       0       0
 10794 ;;      Temps:          2       0       0       0       0       0       0       0       0       0       0       0       
      +0       0       0       0       0
 10795 ;;      Totals:         3       0       0       0       0       0       0       0       0       0       0       0       
      +0       0       0       0       0
 10796 ;;Total ram usage:        3 bytes
 10797 ;; Hardware stack levels used:    1
 10798 ;; This function calls:
 10799 ;;		Nothing
 10800 ;; This function is called by:
 10801 ;;		_I2C1_ISR
 10802 ;; This function uses a non-reentrant model
 10803 ;;
 10804                           
 10805                           	psect	text57
 10806  0042C0                     __ptext57:
 10807                           	opt callstack 0
 10808  0042C0                     _I2C1_Stop:
 10809                           	opt callstack 19
 10810                           
 10811                           ;incstack = 0
 10812                           ;I2C1_Stop@completion_code stored from wreg
 10813  0042C0  6E03               	movwf	I2C1_Stop@completion_code^0,c
 10814  0042C2                     
 10815                           ;mcc_generated_files/i2c1.c: 583: void I2C1_Stop(I2C1_MESSAGE_STATUS completion_code);mc
      +                          c_generated_files/i2c1.c: 584: {;mcc_generated_files/i2c1.c: 586:     SSP1CON2bits.PEN =
      +                           1;
 10816  0042C2  84C5               	bsf	197,2,c	;volatile
 10817  0042C4                     
 10818                           ;mcc_generated_files/i2c1.c: 589:     if (p_i2c1_current->pTrFlag != ((void*)0))
 10819  0042C4  0100               	movlb	0	; () banked
 10820  0042C6  EE20 F003          	lfsr	2,3
 10821  0042CA  51F3               	movf	_p_i2c1_current& (0+255),w,b
 10822  0042CC  26D9               	addwf	fsr2l,f,c
 10823  0042CE  51F4               	movf	(_p_i2c1_current+1)& (0+255),w,b
 10824  0042D0  22DA               	addwfc	fsr2h,f,c
 10825  0042D2  50DE               	movf	postinc2,w,c
 10826  0042D4  10DE               	iorwf	postinc2,w,c
 10827  0042D6  B4D8               	btfsc	status,2,c
 10828  0042D8  EF70  F021         	goto	i2u534_41
 10829  0042DC  EF72  F021         	goto	i2u534_40
 10830  0042E0                     i2u534_41:
 10831  0042E0  EF82  F021         	goto	i2l4729
 10832  0042E4                     i2u534_40:
 10833  0042E4                     
 10834                           ; BSR set to: 0
 10835                           ;mcc_generated_files/i2c1.c: 590:     {;mcc_generated_files/i2c1.c: 592:         *(p_i2c
      +                          1_current->pTrFlag) = completion_code;
 10836  0042E4  EE20 F003          	lfsr	2,3
 10837  0042E8  51F3               	movf	_p_i2c1_current& (0+255),w,b
 10838  0042EA  26D9               	addwf	fsr2l,f,c
 10839  0042EC  51F4               	movf	(_p_i2c1_current+1)& (0+255),w,b
 10840  0042EE  22DA               	addwfc	fsr2h,f,c
 10841  0042F0  CFDE F001          	movff	postinc2,??_I2C1_Stop
 10842  0042F4  CFDD F002          	movff	postdec2,??_I2C1_Stop+1
 10843  0042F8  C001  FFD9         	movff	??_I2C1_Stop,fsr2l
 10844  0042FC  C002  FFDA         	movff	??_I2C1_Stop+1,fsr2h
 10845  004300  C003  FFDF         	movff	I2C1_Stop@completion_code,indf2
 10846  004304                     i2l4729:
 10847                           
 10848                           ; BSR set to: 0
 10849                           ;mcc_generated_files/i2c1.c: 596:     i2c1_state = S_MASTER_IDLE;
 10850  004304  0E00               	movlw	0
 10851  004306  6E55               	movwf	_i2c1_state^0,c
 10852  004308                     
 10853                           ; BSR set to: 0
 10854  004308  0012               	return		;funcret
 10855  00430A                     __end_of_I2C1_Stop:
 10856                           	opt callstack 0
 10857                           
 10858 ;; *************** function _I2C1_FunctionComplete *****************
 10859 ;; Defined at:
 10860 ;;		line 565 in file "mcc_generated_files/i2c1.c"
 10861 ;; Parameters:    Size  Location     Type
 10862 ;;		None
 10863 ;; Auto vars:     Size  Location     Type
 10864 ;;		None
 10865 ;; Return value:  Size  Location     Type
 10866 ;;                  1    wreg      void 
 10867 ;; Registers used:
 10868 ;;		wreg, status,2, status,0
 10869 ;; Tracked objects:
 10870 ;;		On entry : 0/0
 10871 ;;		On exit  : 0/0
 10872 ;;		Unchanged: 0/0
 10873 ;; Data sizes:     COMRAM   BANK0   BANK1   BANK2   BANK3   BANK4   BANK5   BANK6   BANK7   BANK8   BANK9  BANK10  BANK1
      +1  BANK12  BANK13  BANK14  BANK15
 10874 ;;      Params:         0       0       0       0       0       0       0       0       0       0       0       0       
      +0       0       0       0       0
 10875 ;;      Locals:         0       0       0       0       0       0       0       0       0       0       0       0       
      +0       0       0       0       0
 10876 ;;      Temps:          0       0       0       0       0       0       0       0       0       0       0       0       
      +0       0       0       0       0
 10877 ;;      Totals:         0       0       0       0       0       0       0       0       0       0       0       0       
      +0       0       0       0       0
 10878 ;;Total ram usage:        0 bytes
 10879 ;; Hardware stack levels used:    1
 10880 ;; This function calls:
 10881 ;;		Nothing
 10882 ;; This function is called by:
 10883 ;;		_I2C1_ISR
 10884 ;; This function uses a non-reentrant model
 10885 ;;
 10886                           
 10887                           	psect	text58
 10888  004756                     __ptext58:
 10889                           	opt callstack 0
 10890  004756                     _I2C1_FunctionComplete:
 10891                           	opt callstack 19
 10892  004756                     
 10893                           ;mcc_generated_files/i2c1.c: 569:     p_i2c1_trb_current++;
 10894  004756  0E05               	movlw	5
 10895  004758  0100               	movlb	0	; () banked
 10896  00475A  27F5               	addwf	_p_i2c1_trb_current& (0+255),f,b
 10897  00475C  0E00               	movlw	0
 10898  00475E  23F6               	addwfc	(_p_i2c1_trb_current+1)& (0+255),f,b
 10899  004760                     
 10900                           ; BSR set to: 0
 10901                           ;mcc_generated_files/i2c1.c: 572:     if(--i2c1_trb_count == 0)
 10902  004760  2E54               	decfsz	_i2c1_trb_count^0,f,c
 10903  004762  EFB7  F023         	goto	i2l4737
 10904  004766                     
 10905                           ; BSR set to: 0
 10906                           ;mcc_generated_files/i2c1.c: 573:     {;mcc_generated_files/i2c1.c: 574:         i2c1_st
      +                          ate = S_MASTER_SEND_STOP;
 10907  004766  0E04               	movlw	4
 10908  004768  6E55               	movwf	_i2c1_state^0,c
 10909                           
 10910                           ;mcc_generated_files/i2c1.c: 575:     }
 10911  00476A  EFB9  F023         	goto	i2l333
 10912  00476E                     i2l4737:
 10913                           
 10914                           ; BSR set to: 0
 10915                           ;mcc_generated_files/i2c1.c: 577:     {;mcc_generated_files/i2c1.c: 578:         i2c1_st
      +                          ate = S_MASTER_RESTART;
 10916  00476E  0E01               	movlw	1
 10917  004770  6E55               	movwf	_i2c1_state^0,c
 10918  004772                     i2l333:
 10919                           
 10920                           ; BSR set to: 0
 10921  004772  0012               	return		;funcret
 10922  004774                     __end_of_I2C1_FunctionComplete:
 10923                           	opt callstack 0
 10924                           
 10925 ;; *************** function _I2C1_BusCollisionISR *****************
 10926 ;; Defined at:
 10927 ;;		line 742 in file "mcc_generated_files/i2c1.c"
 10928 ;; Parameters:    Size  Location     Type
 10929 ;;		None
 10930 ;; Auto vars:     Size  Location     Type
 10931 ;;		None
 10932 ;; Return value:  Size  Location     Type
 10933 ;;                  1    wreg      void 
 10934 ;; Registers used:
 10935 ;;		None
 10936 ;; Tracked objects:
 10937 ;;		On entry : 0/0
 10938 ;;		On exit  : 0/0
 10939 ;;		Unchanged: 0/0
 10940 ;; Data sizes:     COMRAM   BANK0   BANK1   BANK2   BANK3   BANK4   BANK5   BANK6   BANK7   BANK8   BANK9  BANK10  BANK1
      +1  BANK12  BANK13  BANK14  BANK15
 10941 ;;      Params:         0       0       0       0       0       0       0       0       0       0       0       0       
      +0       0       0       0       0
 10942 ;;      Locals:         0       0       0       0       0       0       0       0       0       0       0       0       
      +0       0       0       0       0
 10943 ;;      Temps:          0       0       0       0       0       0       0       0       0       0       0       0       
      +0       0       0       0       0
 10944 ;;      Totals:         0       0       0       0       0       0       0       0       0       0       0       0       
      +0       0       0       0       0
 10945 ;;Total ram usage:        0 bytes
 10946 ;; Hardware stack levels used:    1
 10947 ;; This function calls:
 10948 ;;		Nothing
 10949 ;; This function is called by:
 10950 ;;		_INTERRUPT_InterruptManager
 10951 ;; This function uses a non-reentrant model
 10952 ;;
 10953                           
 10954                           	psect	text59
 10955  004804                     __ptext59:
 10956                           	opt callstack 0
 10957  004804                     _I2C1_BusCollisionISR:
 10958                           	opt callstack 20
 10959  004804                     
 10960                           ;mcc_generated_files/i2c1.c: 745:  PIR2bits.BCL1IF = 0;
 10961  004804  96A1               	bcf	161,3,c	;volatile
 10962  004806  0012               	return		;funcret
 10963  004808                     __end_of_I2C1_BusCollisionISR:
 10964                           	opt callstack 0
 10965                           
 10966                           	psect	rparam
 10967  0000                     
 10968                           	psect	temp
 10969  000058                     btemp:
 10970                           	opt callstack 0
 10971  000058                     	ds	1
 10972  0000                     int$flags	set	btemp
 10973  0000                     wtemp8	set	btemp+1
 10974  0000                     ttemp5	set	btemp+1
 10975  0000                     ttemp6	set	btemp+4
 10976  0000                     ttemp7	set	btemp+8
 10977                           tosu	equ	0xFFF
 10978                           tosh	equ	0xFFE
 10979                           tosl	equ	0xFFD
 10980                           stkptr	equ	0xFFC
 10981                           pclatu	equ	0xFFB
 10982                           pclath	equ	0xFFA
 10983                           pcl	equ	0xFF9
 10984                           tblptru	equ	0xFF8
 10985                           tblptrh	equ	0xFF7
 10986                           tblptrl	equ	0xFF6
 10987                           tablat	equ	0xFF5
 10988                           prodh	equ	0xFF4
 10989                           prodl	equ	0xFF3
 10990                           indf0	equ	0xFEF
 10991                           postinc0	equ	0xFEE
 10992                           postdec0	equ	0xFED
 10993                           preinc0	equ	0xFEC
 10994                           plusw0	equ	0xFEB
 10995                           fsr0h	equ	0xFEA
 10996                           fsr0l	equ	0xFE9
 10997                           wreg	equ	0xFE8
 10998                           indf1	equ	0xFE7
 10999                           postinc1	equ	0xFE6
 11000                           postdec1	equ	0xFE5
 11001                           preinc1	equ	0xFE4
 11002                           plusw1	equ	0xFE3
 11003                           fsr1h	equ	0xFE2
 11004                           fsr1l	equ	0xFE1
 11005                           bsr	equ	0xFE0
 11006                           indf2	equ	0xFDF
 11007                           postinc2	equ	0xFDE
 11008                           postdec2	equ	0xFDD
 11009                           preinc2	equ	0xFDC
 11010                           plusw2	equ	0xFDB
 11011                           fsr2h	equ	0xFDA
 11012                           fsr2l	equ	0xFD9
 11013                           status	equ	0xFD8


Data Sizes:
    Strings     89
    Constant    0
    Data        0
    BSS         161
    Persistent  6
    Stack       0

Auto Spaces:
    Space          Size  Autos    Used
    COMRAM           94     79      87
    BANK0           160    124     159
    BANK1           256     10     134
    BANK2           256      0       0
    BANK3           256      0       0
    BANK4           256      0       0
    BANK5           256      0       0
    BANK6           256      0       0
    BANK7           256      0       0
    BANK8           256      0       0
    BANK9           256      0       0
    BANK10          256      0       0
    BANK11          256      0       0
    BANK12          256      0       0
    BANK13          256      0       0
    BANK14          256      0       0
    BANK15           56      0       0

Pointer List with Targets:

    i2c1_tr_queue.ptrb_list.pbuffer	PTR unsigned char  size(2) Largest target is 0

    i2c1_tr_queue.pTrFlag	PTR enum E5995 size(2) Largest target is 0

    i2c1_tr_queue.ptrb_list	PTR struct . size(2) Largest target is 0
		 -> I2C1_MasterRead@trBlock(BANK1[5]), I2C1_MasterWrite@trBlock(BANK1[5]), 

    strncmp@_r	PTR const unsigned char  size(2) Largest target is 3
		 -> STR_22(CODE[3]), STR_17(CODE[3]), 

    strncmp@r	PTR const unsigned char  size(2) Largest target is 3
		 -> STR_22(CODE[3]), STR_17(CODE[3]), 

    strncmp@_l	PTR const unsigned char  size(2) Largest target is 3
		 -> vfpfcnvrt@ct(BANK0[3]), 

    strncmp@l	PTR const unsigned char  size(2) Largest target is 3
		 -> vfpfcnvrt@ct(BANK0[3]), 

    strlen@s	PTR const unsigned char  size(2) Largest target is 80
		 -> dbuf(BANK1[80]), 

    strlen@a	PTR const unsigned char  size(2) Largest target is 80
		 -> dbuf(BANK1[80]), 

    strcpy@dest	PTR unsigned char  size(2) Largest target is 80
		 -> dbuf(BANK1[80]), 

    strcpy@d	PTR unsigned char  size(2) Largest target is 80
		 -> dbuf(BANK1[80]), 

    strcpy@src	PTR const unsigned char  size(2) Largest target is 80
		 -> STR_12(CODE[4]), STR_11(CODE[4]), STR_8(CODE[4]), STR_7(CODE[4]), 
		 -> dbuf(BANK1[80]), 

    strcpy@s	PTR const unsigned char  size(2) Largest target is 80
		 -> STR_12(CODE[4]), STR_11(CODE[4]), STR_8(CODE[4]), STR_7(CODE[4]), 
		 -> dbuf(BANK1[80]), 

    printf@fmt	PTR const unsigned char  size(2) Largest target is 17
		 -> STR_6(CODE[16]), STR_5(CODE[17]), 

    printf@ap	PTR void [1] size(2) Largest target is 2
		 -> ?_printf(BANK0[2]), ?_sprintf(BANK0[2]), 

    sprintf@fmt	PTR const unsigned char  size(2) Largest target is 6
		 -> STR_3(CODE[6]), 

    sprintf@s	PTR unsigned char  size(2) Largest target is 20
		 -> Buffer(BANK1[20]), 

    sprintf@ap	PTR void [1] size(2) Largest target is 2
		 -> ?_printf(BANK0[2]), ?_sprintf(BANK0[2]), 

    f.buffer	PTR unsigned char  size(2) Largest target is 20
		 -> Buffer(BANK1[20]), 

    fputs@s	PTR const unsigned char  size(2) Largest target is 80
		 -> dbuf(BANK1[80]), 

    fputs@fp	PTR struct _IO_FILE size(2) Largest target is 7
		 -> sprintf@f(BANK1[6]), NULL(NULL[0]), 

    S2297_IO_FILE$buffer	PTR unsigned char  size(2) Largest target is 20
		 -> Buffer(BANK1[20]), 

    fputc@fp.buffer	PTR unsigned char  size(2) Largest target is 20
		 -> Buffer(BANK1[20]), 

    fputc@fp	PTR struct _IO_FILE size(2) Largest target is 7
		 -> sprintf@f(BANK1[6]), NULL(NULL[0]), 

    atoi@s	PTR const unsigned char  size(2) Largest target is 17
		 -> STR_6(CODE[16]), STR_5(CODE[17]), STR_3(CODE[6]), 

    vfprintf@ap	PTR PTR void  size(2) Largest target is 2
		 -> printf@ap(BANK0[2]), sprintf@ap(BANK1[2]), 

    vfprintf@fp	PTR struct _IO_FILE size(2) Largest target is 7
		 -> sprintf@f(BANK1[6]), NULL(NULL[0]), 

    vfprintf@fmt	PTR const unsigned char  size(2) Largest target is 17
		 -> STR_6(CODE[16]), STR_5(CODE[17]), STR_3(CODE[6]), 

    vfprintf@cfmt	PTR unsigned char  size(2) Largest target is 17
		 -> STR_6(CODE[16]), STR_5(CODE[17]), STR_3(CODE[6]), 

    vfpfcnvrt@fp	PTR struct _IO_FILE size(2) Largest target is 7
		 -> sprintf@f(BANK1[6]), NULL(NULL[0]), 

    vfpfcnvrt@ap	PTR PTR void  size(2) Largest target is 2
		 -> printf@ap(BANK0[2]), sprintf@ap(BANK1[2]), 

    vfpfcnvrt@fmt	PTR PTR unsigned char  size(2) Largest target is 2
		 -> vfprintf@cfmt(BANK0[2]), 

    efgtoa@fp	PTR struct _IO_FILE size(2) Largest target is 7
		 -> sprintf@f(BANK1[6]), NULL(NULL[0]), 

    sp__strcpy	PTR unsigned char  size(2) Largest target is 80
		 -> dbuf(BANK1[80]), 

    pad@fp	PTR struct _IO_FILE size(2) Largest target is 7
		 -> sprintf@f(BANK1[6]), NULL(NULL[0]), 

    pad@buf	PTR unsigned char  size(2) Largest target is 80
		 -> dbuf(BANK1[80]), 

    EUSART1_SetErrorHandler@interruptHandler	PTR FTN()void  size(2) Largest target is 1
		 -> EUSART1_DefaultErrorHandler(), 

    EUSART1_ErrorHandler	PTR FTN()void  size(2) Largest target is 1
		 -> Absolute function(), EUSART1_DefaultErrorHandler(), 

    EUSART1_SetOverrunErrorHandler@interruptHandler	PTR FTN()void  size(2) Largest target is 1
		 -> EUSART1_DefaultOverrunErrorHandler(), 

    EUSART1_OverrunErrorHandler	PTR FTN()void  size(2) Largest target is 1
		 -> Absolute function(), EUSART1_DefaultOverrunErrorHandler(), 

    EUSART1_SetFramingErrorHandler@interruptHandler	PTR FTN()void  size(2) Largest target is 1
		 -> EUSART1_DefaultFramingErrorHandler(), 

    EUSART1_FramingErrorHandler	PTR FTN()void  size(2) Largest target is 1
		 -> Absolute function(), EUSART1_DefaultFramingErrorHandler(), 

    I2C1_MasterWriteTRBBuild@ptrb.pbuffer	PTR unsigned char  size(2) Largest target is 0

    I2C1_MasterReadTRBBuild@ptrb.pbuffer	PTR unsigned char  size(2) Largest target is 0

    i2c1_object.pTrTail.ptrb_list.pbuffer	PTR unsigned char  size(2) Largest target is 0

    i2c1_object.pTrTail.pTrFlag	PTR enum E5995 size(2) Largest target is 0

    i2c1_object.pTrTail.ptrb_list	PTR struct . size(2) Largest target is 6
		 -> I2C1_MasterRead@trBlock(BANK1[5]), I2C1_MasterWrite@trBlock(BANK1[5]), 

    F6106.pbuffer	PTR unsigned char  size(2) Largest target is 0

    F6100.pbuffer	PTR unsigned char  size(2) Largest target is 0

    I2C1_ISR@pi2c_buf_ptr	PTR unsigned char  size(2) Largest target is 0
		 -> NULL(NULL[0]), 

    p_i2c1_trb_current.pbuffer	PTR unsigned char  size(2) Largest target is 0

    p_i2c1_trb_current	PTR struct . size(2) Largest target is 6
		 -> I2C1_MasterRead@trBlock(BANK1[5]), I2C1_MasterWrite@trBlock(BANK1[5]), NULL(NULL[0]), 

    i2c1_object.pTrHead.pTrFlag	PTR enum E5995 size(2) Largest target is 0

    i2c1_object.pTrHead.ptrb_list	PTR struct . size(2) Largest target is 6
		 -> I2C1_MasterRead@trBlock(BANK1[5]), I2C1_MasterWrite@trBlock(BANK1[5]), 

    S1097$pbuffer	PTR unsigned char  size(2) Largest target is 0

    p_i2c1_current.pbuffer	PTR unsigned char  size(2) Largest target is 0

    S1109$pTrFlag	PTR enum E5995 size(2) Largest target is 0

    p_i2c1_current.pTrFlag	PTR enum E5995 size(2) Largest target is 0

    S1109$ptrb_list	PTR struct . size(2) Largest target is 6
		 -> I2C1_MasterRead@trBlock(BANK1[5]), I2C1_MasterWrite@trBlock(BANK1[5]), 

    p_i2c1_current.ptrb_list	PTR struct . size(2) Largest target is 6
		 -> I2C1_MasterRead@trBlock(BANK1[5]), I2C1_MasterWrite@trBlock(BANK1[5]), 

    p_i2c1_current	PTR volatile struct . size(2) Largest target is 7
		 -> i2c1_tr_queue(BANK0[5]), NULL(NULL[0]), 

    S1120$pTrHead	PTR struct . size(2) Largest target is 7
		 -> i2c1_tr_queue(BANK0[5]), 

    i2c1_object.pTrHead	PTR struct . size(2) Largest target is 7
		 -> i2c1_tr_queue(BANK0[5]), 

    S1120$pTrTail	PTR struct . size(2) Largest target is 7
		 -> i2c1_tr_queue(BANK0[5]), 

    i2c1_object.pTrTail	PTR struct . size(2) Largest target is 7
		 -> i2c1_tr_queue(BANK0[5]), 

    LCDPutStr@str	PTR const unsigned char  size(2) Largest target is 20
		 -> STR_4(CODE[3]), Buffer(BANK1[20]), STR_2(CODE[10]), STR_1(CODE[15]), 


Critical Paths under _main in COMRAM

    _vfprintf->_vfpfcnvrt
    _efgtoa->_floorf
    _tolower->_isupper
    _pad->_fputs
    _fputs->_fputc
    _fputc->_putch
    _putch->_EUSART1_Write
    _floorf->___fldiv
    ___flsub->___flmul
    ___flmul->___xxtofl
    ___flge->___flmul
    ___fldiv->___flmul
    _atoi->_isspace
    _EUSART1_Initialize->_EUSART1_SetErrorHandler
    _EUSART1_Initialize->_EUSART1_SetFramingErrorHandler
    _EUSART1_Initialize->_EUSART1_SetOverrunErrorHandler
    _Read_MCP3221->_i2c_start
    _Read_MCP3221->_i2c_write
    _i2c_write->_i2c_idle
    _i2c_start->_i2c_idle
    _i2c_read->_i2c_idle
    _LCD_Initialize->_LCDPutCmd
    _LCDPutStr->_LCDPutChar
    _LCDPutChar->_LCDWriteNibble
    _LCDGoto->_LCDPutCmd
    _LCDPutCmd->_LCDWriteNibble

Critical Paths under _INTERRUPT_InterruptManager in COMRAM

    _INTERRUPT_InterruptManager->_I2C1_ISR
    _I2C1_ISR->_I2C1_Stop

Critical Paths under _main in BANK0

    _main->_printf
    _sprintf->_vfprintf
    _printf->_vfprintf
    _vfprintf->_vfpfcnvrt
    _vfpfcnvrt->_efgtoa
    _efgtoa->_floorf

Critical Paths under _INTERRUPT_InterruptManager in BANK0

    None.

Critical Paths under _main in BANK1

    _main->_sprintf

Critical Paths under _INTERRUPT_InterruptManager in BANK1

    None.

Critical Paths under _main in BANK2

    None.

Critical Paths under _INTERRUPT_InterruptManager in BANK2

    None.

Critical Paths under _main in BANK3

    None.

Critical Paths under _INTERRUPT_InterruptManager in BANK3

    None.

Critical Paths under _main in BANK4

    None.

Critical Paths under _INTERRUPT_InterruptManager in BANK4

    None.

Critical Paths under _main in BANK5

    None.

Critical Paths under _INTERRUPT_InterruptManager in BANK5

    None.

Critical Paths under _main in BANK6

    None.

Critical Paths under _INTERRUPT_InterruptManager in BANK6

    None.

Critical Paths under _main in BANK7

    None.

Critical Paths under _INTERRUPT_InterruptManager in BANK7

    None.

Critical Paths under _main in BANK8

    None.

Critical Paths under _INTERRUPT_InterruptManager in BANK8

    None.

Critical Paths under _main in BANK9

    None.

Critical Paths under _INTERRUPT_InterruptManager in BANK9

    None.

Critical Paths under _main in BANK10

    None.

Critical Paths under _INTERRUPT_InterruptManager in BANK10

    None.

Critical Paths under _main in BANK11

    None.

Critical Paths under _INTERRUPT_InterruptManager in BANK11

    None.

Critical Paths under _main in BANK12

    None.

Critical Paths under _INTERRUPT_InterruptManager in BANK12

    None.

Critical Paths under _main in BANK13

    None.

Critical Paths under _INTERRUPT_InterruptManager in BANK13

    None.

Critical Paths under _main in BANK14

    None.

Critical Paths under _INTERRUPT_InterruptManager in BANK14

    None.

Critical Paths under _main in BANK15

    None.

Critical Paths under _INTERRUPT_InterruptManager in BANK15

    None.

Call Graph Tables:

 ---------------------------------------------------------------------------------
 (Depth) Function   	        Calls       Base Space   Used Autos Params    Refs
 ---------------------------------------------------------------------------------
 (0) _main                                                 2     2      0   87995
                                            122 BANK0      2     2      0
                            _LCDGoto
                          _LCDPutCmd
                          _LCDPutStr
                     _LCD_Initialize
                       _Read_MCP3221
                  _SYSTEM_Initialize
                            ___fldiv
                            ___flmul
                           ___xxtofl
                             _printf
                            _sprintf
 ---------------------------------------------------------------------------------
 (1) _sprintf                                             18    10      8   39314
                                            112 BANK0      8     0      8
                                              0 BANK1     10    10      0
                           _vfprintf
 ---------------------------------------------------------------------------------
 (1) _printf                                              10     4      6   39089
                                            112 BANK0     10     4      6
                           _vfprintf
 ---------------------------------------------------------------------------------
 (2) _vfprintf                                             8     2      6   38792
                                            104 BANK0      8     2      6
                          _vfpfcnvrt
 ---------------------------------------------------------------------------------
 (3) _vfpfcnvrt                                           50    44      6   37971
                                             75 COMRAM     4     4      0
                                             84 BANK0     20    14      6
                               _atoi
                             _efgtoa
                              _fputc
                            _isdigit
                            _isupper
                            _strncmp
                            _tolower
 ---------------------------------------------------------------------------------
 (4) _strncmp                                             11     5      6     865
                                              7 COMRAM    11     5      6
 ---------------------------------------------------------------------------------
 (4) _efgtoa                                              68    61      7   30071
                                             16 BANK0     68    61      7
                            ___awdiv
                            ___awmod
                            ___fladd
                            ___fldiv
                             ___fleq
                             ___flge
                            ___flmul
                            ___flneg
                            ___flsub
                            ___fltol
                      ___fpclassifyf
                             _floorf
                            _isupper
                                _pad
                             _strcpy
                            _tolower
 ---------------------------------------------------------------------------------
 (4) _tolower                                              8     6      2    1232
                                             13 COMRAM     8     6      2
                            _isupper
 ---------------------------------------------------------------------------------
 (5) _isupper                                              6     4      2     641
                                              7 COMRAM     6     4      2
 ---------------------------------------------------------------------------------
 (5) _strcpy                                              10     6      4    1037
                                              7 COMRAM    10     6      4
 ---------------------------------------------------------------------------------
 (5) _pad                                                 11     5      6    4081
                                             25 COMRAM    11     5      6
                              _fputc
                              _fputs
                             _strlen
 ---------------------------------------------------------------------------------
 (6) _strlen                                               4     2      2     220
                                              7 COMRAM     4     2      2
 ---------------------------------------------------------------------------------
 (6) _fputs                                                7     3      4    1599
                                             18 COMRAM     7     3      4
                              _fputc
 ---------------------------------------------------------------------------------
 (4) _fputc                                                9     5      4    1099
                                              9 COMRAM     9     5      4
                              _putch
 ---------------------------------------------------------------------------------
 (5) _putch                                                1     1      0      62
                                              8 COMRAM     1     1      0
                      _EUSART1_Write
 ---------------------------------------------------------------------------------
 (6) _EUSART1_Write                                        1     1      0      31
                                              7 COMRAM     1     1      0
 ---------------------------------------------------------------------------------
 (5) _floorf                                              20    16      4     669
                                             71 COMRAM     4     0      4
                                              0 BANK0     16    16      0
                            ___fldiv (ARG)
 ---------------------------------------------------------------------------------
 (5) ___fpclassifyf                                       14    10      4     375
                                              7 COMRAM    14    10      4
 ---------------------------------------------------------------------------------
 (5) ___fltol                                             10     6      4     517
                                              7 COMRAM    10     6      4
 ---------------------------------------------------------------------------------
 (5) ___flsub                                              8     0      8    4007
                                             46 COMRAM     8     0      8
                            ___fladd
                            ___flmul (ARG)
 ---------------------------------------------------------------------------------
 (6) ___fladd                                             16     8      8    3442
                                              7 COMRAM    16     8      8
 ---------------------------------------------------------------------------------
 (5) ___flneg                                              4     0      4     155
                                              7 COMRAM     4     0      4
 ---------------------------------------------------------------------------------
 (5) ___flmul                                             25    17      8    3413
                                             21 COMRAM    25    17      8
                           ___xxtofl (ARG)
 ---------------------------------------------------------------------------------
 (5) ___flge                                              12     4      8     806
                                             46 COMRAM    12     4      8
                            ___flmul (ARG)
 ---------------------------------------------------------------------------------
 (5) ___fleq                                              12     4      8     770
                                              7 COMRAM    12     4      8
 ---------------------------------------------------------------------------------
 (5) ___fldiv                                             25    17      8    2903
                                             46 COMRAM    25    17      8
                            ___flmul (ARG)
                           ___xxtofl (ARG)
 ---------------------------------------------------------------------------------
 (5) ___awmod                                              6     2      4     613
                                              7 COMRAM     6     2      4
 ---------------------------------------------------------------------------------
 (5) ___awdiv                                              8     4      4     625
                                              7 COMRAM     8     4      4
 ---------------------------------------------------------------------------------
 (4) _atoi                                                15    13      2    1515
                                             14 COMRAM    15    13      2
                             ___wmul
                            _isdigit
                            _isspace
 ---------------------------------------------------------------------------------
 (5) _isspace                                              7     5      2     259
                                              7 COMRAM     7     5      2
 ---------------------------------------------------------------------------------
 (4) _isdigit                                              6     4      2     281
                                              7 COMRAM     6     4      2
 ---------------------------------------------------------------------------------
 (5) ___wmul                                               6     2      4     412
                                              7 COMRAM     6     2      4
 ---------------------------------------------------------------------------------
 (1) ___xxtofl                                            14    10      4     398
                                              7 COMRAM    14    10      4
 ---------------------------------------------------------------------------------
 (1) _SYSTEM_Initialize                                    0     0      0     294
                 _EUSART1_Initialize
                    _I2C1_Initialize
               _INTERRUPT_Initialize
              _OSCILLATOR_Initialize
             _PIN_MANAGER_Initialize
 ---------------------------------------------------------------------------------
 (2) _PIN_MANAGER_Initialize                               0     0      0       0
 ---------------------------------------------------------------------------------
 (2) _OSCILLATOR_Initialize                                0     0      0       0
 ---------------------------------------------------------------------------------
 (2) _INTERRUPT_Initialize                                 0     0      0       0
 ---------------------------------------------------------------------------------
 (2) _I2C1_Initialize                                      0     0      0       0
 ---------------------------------------------------------------------------------
 (2) _EUSART1_Initialize                                   0     0      0     294
            _EUSART1_SetErrorHandler
     _EUSART1_SetFramingErrorHandler
     _EUSART1_SetOverrunErrorHandler
 ---------------------------------------------------------------------------------
 (3) _EUSART1_SetOverrunErrorHandler                       2     0      2      98
                                              7 COMRAM     2     0      2
 ---------------------------------------------------------------------------------
 (3) _EUSART1_SetFramingErrorHandler                       2     0      2      98
                                              7 COMRAM     2     0      2
 ---------------------------------------------------------------------------------
 (3) _EUSART1_SetErrorHandler                              2     0      2      98
                                              7 COMRAM     2     0      2
 ---------------------------------------------------------------------------------
 (1) _Read_MCP3221                                         6     4      2     136
                                              9 COMRAM     6     4      2
                     _i2c_master_ack
                           _i2c_read
                          _i2c_start
                           _i2c_stop
                          _i2c_write
 ---------------------------------------------------------------------------------
 (2) _i2c_write                                            1     1      0      22
                                              8 COMRAM     1     1      0
                           _i2c_idle
 ---------------------------------------------------------------------------------
 (2) _i2c_stop                                             0     0      0       0
 ---------------------------------------------------------------------------------
 (2) _i2c_start                                            1     1      0      22
                                              8 COMRAM     1     1      0
                           _i2c_idle
 ---------------------------------------------------------------------------------
 (2) _i2c_read                                             0     0      0       0
                           _i2c_idle
 ---------------------------------------------------------------------------------
 (3) _i2c_idle                                             1     1      0       0
                                              7 COMRAM     1     1      0
 ---------------------------------------------------------------------------------
 (2) _i2c_master_ack                                       1     1      0      22
                                              7 COMRAM     1     1      0
 ---------------------------------------------------------------------------------
 (1) _LCD_Initialize                                       1     1      0     461
                                             11 COMRAM     1     1      0
                          _LCDPutCmd
 ---------------------------------------------------------------------------------
 (1) _LCDPutStr                                            5     3      2     855
                                             11 COMRAM     5     3      2
                         _LCDPutChar
 ---------------------------------------------------------------------------------
 (2) _LCDPutChar                                           2     2      0     461
                                              9 COMRAM     2     2      0
                     _LCDWriteNibble
 ---------------------------------------------------------------------------------
 (1) _LCDGoto                                              6     5      1     671
                                             11 COMRAM     6     5      1
                          _LCDPutCmd
 ---------------------------------------------------------------------------------
 (2) _LCDPutCmd                                            2     2      0     461
                                              9 COMRAM     2     2      0
                     _LCDWriteNibble
 ---------------------------------------------------------------------------------
 (3) _LCDWriteNibble                                       2     1      1     394
                                              7 COMRAM     2     1      1
 ---------------------------------------------------------------------------------
 Estimated maximum stack depth 6
 ---------------------------------------------------------------------------------
 (Depth) Function   	        Calls       Base Space   Used Autos Params    Refs
 ---------------------------------------------------------------------------------
 (10) _INTERRUPT_InterruptManager                          2     2      0      22
                                              5 COMRAM     2     2      0
               _I2C1_BusCollisionISR
                           _I2C1_ISR
 ---------------------------------------------------------------------------------
 (11) _I2C1_ISR                                            2     2      0      22
                                              3 COMRAM     2     2      0
              _I2C1_FunctionComplete
                          _I2C1_Stop
 ---------------------------------------------------------------------------------
 (12) _I2C1_Stop                                           3     3      0      22
                                              0 COMRAM     3     3      0
 ---------------------------------------------------------------------------------
 (12) _I2C1_FunctionComplete                               0     0      0       0
 ---------------------------------------------------------------------------------
 (11) _I2C1_BusCollisionISR                                0     0      0       0
 ---------------------------------------------------------------------------------
 Estimated maximum stack depth 12
 ---------------------------------------------------------------------------------

 Call Graph Graphs:

 _main (ROOT)
   _LCDGoto
     _LCDPutCmd
       _LCDWriteNibble
   _LCDPutCmd
     _LCDWriteNibble
   _LCDPutStr
     _LCDPutChar
       _LCDWriteNibble
   _LCD_Initialize
     _LCDPutCmd
       _LCDWriteNibble
   _Read_MCP3221
     _i2c_master_ack
     _i2c_read
       _i2c_idle
     _i2c_start
       _i2c_idle
     _i2c_stop
     _i2c_write
       _i2c_idle
   _SYSTEM_Initialize
     _EUSART1_Initialize
       _EUSART1_SetErrorHandler
       _EUSART1_SetFramingErrorHandler
       _EUSART1_SetOverrunErrorHandler
     _I2C1_Initialize
     _INTERRUPT_Initialize
     _OSCILLATOR_Initialize
     _PIN_MANAGER_Initialize
   ___fldiv
     ___flmul (ARG)
       ___xxtofl (ARG)
     ___xxtofl (ARG)
   ___flmul
     ___xxtofl (ARG)
   ___xxtofl
   _printf
     _vfprintf
       _vfpfcnvrt
         _atoi
           ___wmul
           _isdigit
           _isspace
         _efgtoa
           ___awdiv
           ___awmod
           ___fladd
           ___fldiv
             ___flmul (ARG)
               ___xxtofl (ARG)
             ___xxtofl (ARG)
           ___fleq
           ___flge
             ___flmul (ARG)
               ___xxtofl (ARG)
           ___flmul
             ___xxtofl (ARG)
           ___flneg
           ___flsub
             ___fladd
             ___flmul (ARG)
               ___xxtofl (ARG)
           ___fltol
           ___fpclassifyf
           _floorf
             ___fldiv (ARG)
               ___flmul (ARG)
                 ___xxtofl (ARG)
               ___xxtofl (ARG)
           _isupper
           _pad
             _fputc
               _putch
                 _EUSART1_Write
             _fputs
               _fputc
                 _putch
                   _EUSART1_Write
             _strlen
           _strcpy
           _tolower
             _isupper
         _fputc
           _putch
             _EUSART1_Write
         _isdigit
         _isupper
         _strncmp
         _tolower
           _isupper
   _sprintf
     _vfprintf
       _vfpfcnvrt
         _atoi
           ___wmul
           _isdigit
           _isspace
         _efgtoa
           ___awdiv
           ___awmod
           ___fladd
           ___fldiv
             ___flmul (ARG)
               ___xxtofl (ARG)
             ___xxtofl (ARG)
           ___fleq
           ___flge
             ___flmul (ARG)
               ___xxtofl (ARG)
           ___flmul
             ___xxtofl (ARG)
           ___flneg
           ___flsub
             ___fladd
             ___flmul (ARG)
               ___xxtofl (ARG)
           ___fltol
           ___fpclassifyf
           _floorf
             ___fldiv (ARG)
               ___flmul (ARG)
                 ___xxtofl (ARG)
               ___xxtofl (ARG)
           _isupper
           _pad
             _fputc
               _putch
                 _EUSART1_Write
             _fputs
               _fputc
                 _putch
                   _EUSART1_Write
             _strlen
           _strcpy
           _tolower
             _isupper
         _fputc
           _putch
             _EUSART1_Write
         _isdigit
         _isupper
         _strncmp
         _tolower
           _isupper

 _INTERRUPT_InterruptManager (ROOT)
   _I2C1_BusCollisionISR
   _I2C1_ISR
     _I2C1_FunctionComplete
     _I2C1_Stop

 Address spaces:
Name               Size   Autos  Total    Cost      Usage
BIGRAM             F37      0       0      37        0.0%
EEDATA             400      0       0       0        0.0%
BITBANK14          100      0       0      33        0.0%
BANK14             100      0       0      34        0.0%
BITBANK13          100      0       0      31        0.0%
BANK13             100      0       0      32        0.0%
BITBANK12          100      0       0      29        0.0%
BANK12             100      0       0      30        0.0%
BITBANK11          100      0       0      27        0.0%
BANK11             100      0       0      28        0.0%
BITBANK10          100      0       0      25        0.0%
BANK10             100      0       0      26        0.0%
BITBANK9           100      0       0      23        0.0%
BANK9              100      0       0      24        0.0%
BITBANK8           100      0       0      21        0.0%
BANK8              100      0       0      22        0.0%
BITBANK7           100      0       0      19        0.0%
BANK7              100      0       0      20        0.0%
BITBANK6           100      0       0      17        0.0%
BANK6              100      0       0      18        0.0%
BITBANK5           100      0       0      15        0.0%
BANK5              100      0       0      16        0.0%
BITBANK4           100      0       0      13        0.0%
BANK4              100      0       0      14        0.0%
BITBANK3           100      0       0      10        0.0%
BANK3              100      0       0      11        0.0%
BITBANK2           100      0       0       8        0.0%
BANK2              100      0       0       9        0.0%
BITBANK1           100      0       0       6        0.0%
BANK1              100      A      86       7       52.3%
BITBANK0            A0      0       0       4        0.0%
BANK0               A0     7C      9F       5       99.4%
BITCOMRAM           5E      0       0       0        0.0%
COMRAM              5E     4F      57       1       92.6%
BITBANK15           38      0       0      35        0.0%
BANK15              38      0       0      36        0.0%
BITSFR_1             0      0       0     200        0.0%
SFR_1                0      0       0     200        0.0%
BITSFR               0      0       0     200        0.0%
SFR                  0      0       0     200        0.0%
STACK                0      0       0       2        0.0%
NULL                 0      0       0       0        0.0%
ABS                  0      0     17C      12        0.0%
DATA                 0      0     17C       3        0.0%
CODE                 0      0       0       0        0.0%


Microchip Technology PIC18 Macro Assembler V2.10 build 88905656 
Symbol Table                                                                                   Wed Nov 13 17:25:57 2019

                                  ___fldiv@aexp 0047                                    ___fldiv@bexp 0046  
                                _LCD_Initialize 448C                                    ___fldiv@sign 003F  
                                            l22 47D6                                              l19 47B6  
                                   ?_LCDPutChar 0001                                              l61 43D2  
                                  ___awdiv@sign 000D                             ___wmul@multiplicand 000A  
                                  __CFG_CP0$OFF 000000                                    __CFG_CP1$OFF 000000  
                                  __CFG_CP2$OFF 000000                                    __CFG_CP3$OFF 000000  
                                   __CFG_LVP$ON 000000                                             l111 447A  
                                           l112 4468                                             l122 47BA  
                                           l108 4736                                             l116 447C  
                                           l132 466A                                             l141 4754  
                                           l125 47C8                                             l133 4658  
                                           l150 444E                                             l119 448A  
                                           l215 4802                                             l144 477A  
                                           l138 4746                                             l171 44C4  
                                           l147 478A                                             l180 44FE  
                                           l174 46C2                                             l423 4412  
                                           l192 40F0                                             l520 3EAA  
                                           l177 4696                                             l273 4610  
                                           l186 4080                                             l450 47A0  
                                           l515 3E2E                                             l518 3E70  
                                           l471 47EA                                             l447 478E  
                                           l456 47E0                                             l474 47FE  
                                           l538 1C0C                                             l650 4154  
                                           l635 1FD4                                             l468 47F4  
                                           l556 1448                                             l628 221A  
                                           l653 4710                                             l582 17E0  
                                           l912 4004                                             l649 414C  
                                           l923 3A80                                             l918 3A3A  
                                           l950 397C                                             l927 456E  
                                           l884 3DE8                                             l897 3F5A  
                                  __CFG_CPB$OFF 000000                                    __CFG_CPD$OFF 000000  
                                           _pad 3DEA                                             _val 00F7  
                                  ___awmod@sign 000D                                             wreg 000FE8  
                                    _TXSTA1bits 000FAC                                    ___flmul@aexp 0023  
                                  ___flmul@bexp 0028                                    ___flmul@sign 0022  
                                  ___flmul@temp 002D                                    ___flmul@prod 0029  
                               __end_of_LCDGoto 40F2                                __end_of_I2C1_ISR 31BE  
                                  ___fltol@exp1 0011                                            l1311 3586  
                                          l1207 25F4                                            l1223 434E  
                                          l1240 2CC2                                            l1208 25E2  
                                          l1322 351E                                            l1315 34C2  
                                          l1235 2E9E                                            l1411 3D24  
                                          l1308 342A                                            l1237 2CFE  
                                          l1181 240A                                            l1246 2D44  
                                          l1190 26DA                                            l1182 23F8  
                                          l1334 3B7E                                            l1271 2B04  
                                          l1183 23BE                                            l1248 2DBC  
                                          l1249 2DAA                                            l1433 46EA  
                                          l1274 2996                                            l1426 426C  
                                          l1363 3718                                            l1267 27A0  
                                          l1419 4392                                            l1284 2AC6  
                                          l1276 2A0E                                            l1372 33D2  
                                          l1277 29FC                                            l1445 45DC  
                                          l1382 45A6                                            l1390 42BE  
                                          l1366 3720                                            l1198 2524  
                                          l1375 3316                                            l1439 4212  
                                          l1464 41B4                                            l5001 34AA  
                                          l1449 3C5A                                            l5011 350E  
                                          l5003 34AC                                            l1459 41AC  
                                          l1396 4536                                            l5021 3566  
                                          l5013 352C                                            l5005 34B8  
                                          l5023 3574                                            l5015 352E  
                                          l5007 34F4                                            l5025 3576  
                                          l5017 3532                                            l5009 3500  
                                          l6001 11A0                                            l5019 3556  
                                          l5211 2236                                            l5203 4500  
                                          l6011 1210                                            l6003 11B8  
                                          l4501 46BE                                            l5301 23EA  
                                          l5221 226A                                            l5213 2238  
                                          l6101 1592                                            l6005 11C2  
                                          l4503 46C0                                            l5303 23EC  
                                          l5231 229C                                            l5215 2248  
                                          l5223 2272                                            l5207 221C  
                                          l6111 16A6                                            l6103 15F6  
                                          l6015 1246                                            l4505 47EC  
                                          l5401 26BA                                            l5321 2474  
                                          l5313 243C                                            l5305 23F6  
                                          l5241 22D2                                            l5233 22A2  
                                          l5225 2282                                            l5217 2258  
                                          l5209 2228                                            l6201 1A80  
                                          l6121 1764                                            l6113 16DA  
                                          l6105 164E                                            l6041 13A8  
                                          l6033 12E0                                            l6017 1258  
                                          l6009 11EA                                            l4507 47E2  
                                          l5403 26C8                                            l5323 2478  
                                          l5315 244C                                            l5307 2418  
                                          l5331 2498                                            l5251 230E  
                                          l5243 22E2                                            l5235 22B0  
                                          l5227 2288                                            l5219 2268  
                                          l5171 3C5C                                            l5411 3DF8  
                                          l6211 1AB2                                            l6203 1A88  
                                          l6131 17D8                                            l6123 1774  
                                          l6115 170C                                            l6107 1682  
                                          l6051 1408                                            l6043 13B0  
                                          l6035 1314                                            l6019 1274  
                                          l6027 1290                                            l4701 4788  
                                          l4509 47F6                                            l5501 4708  
                                          l5405 26CA                                            l5333 24BE  
                                          l5341 2514                                            l5325 2486  
                                          l5317 245A                                            l5309 2428  
                                          l5261 232C                                            l5253 231C  
                                          l5245 22E4                                            l5237 22B2  
                                          l5229 229A                                            l5165 478E  
                                          l5181 3CDE                                            l5173 3C6E  
                                          l5421 3E4E                                            l5413 3E0C  
                                          l6213 1AB8                                            l6221 1B08  
                                          l6205 1A96                                            l6141 1894  
                                          l6133 17FC                                            l6125 17A8  
                                          l6117 1722                                            l6109 1688  
                                          l6053 141A                                            l6037 131A  
                                          l6045 13E2                                            l6029 12AA  
                                          l6301 3B80                                            ?_pad 001A  
                                          l4711 44E6                                            l4631 4394  
                                          l5511 2B22                                            l5351 2568  
                                          l5343 253A                                            l5335 24F2  
                                          l5327 2488                                            l5319 2468  
                                          l5271 2340                                            l5263 2330  
                                          l5255 2320                                            l5239 22C2  
                                          l5247 22EC                                            l5431 3A82  
                                          l5167 479C                                            l5175 3C80  
                                          l5191 4372                                            l5423 3E52  
                                          l5415 3E1A                                            l6231 1B58  
                                          l6223 1B1A                                            l6215 1ADE  
                                          l6207 1A9E                                            l6151 18DC  
                                          l6143 18A2                                            l6135 1860  
                                          l6127 17B8                                            l6119 1754  
                                          l6071 14CA                                            l6055 1422  
                                          l6047 13F2                                            l6039 1374  
                                          l6311 3BDC                                            l6303 3BAA  
                                          l4713 44F4                                            l4705 44C8  
                                          l4721 468C                                            l4641 47CA  
                                          l4633 43AC                                            l5601 2D62  
                                          l5513 2B32                                            l5521 2B5C  
                                          l5505 2B06                                            l5361 2592  
                                          l5353 2576                                            l5345 254A  
                                          l5337 24F4                                            l5329 2492  
                                          l5281 2354                                            l5273 2344  
                                          l5265 2334                                            l5257 2324  
                                          l5249 22FC                                            l5433 3AA2  
                                          l5169 47DA                                            l5177 3C8A  
                                          l5185 4350                                            l5193 45A8  
                                          l5425 3E7E                                            l5417 3E26  
                                          l5409 3DEA                                            l6233 1B60  
                                          l6225 1B34                                            l6217 1AFA  
                                          l6209 1AA6                                            l6161 1906  
                                          l6153 18E0                                            l6137 186E  
                                          l6145 18AA                                            l6129 17CC  
                                          l6081 1502                                            l6073 14D2  
                                          l6065 1466                                            l6057 143C  
                                          l6049 13F6                                            l6313 3BFA  
                                          l6401 2084                                            l6321 1C0E  
                                          l4707 44D6                                            l4811 4094  
                                          l4715 466E                                            l4491 4712  
                                          l4651 45F8                                            l4643 45DE  
                                          l4635 43B6                                            l5611 2DCC  
                                          l5603 2D66                                            l5531 2B88  
                                          l5523 2B6C                                            l5515 2B42  
                                          l5507 2B12                                            l5371 25C4  
                                          l5363 25A2                                            l5355 2578  
                                          l5339 2504                                            l5291 23A6  
                                          l5283 2358                                            l5275 2348  
                                          l5267 2338                                            l5259 2328  
                                          l5435 3AE0                                            l5443 3B20  
                                          l5179 3CA8                                            l5187 435C  
                                          l5195 45B4                                            l5427 3E92  
                                          l5419 3E3A                                            l6251 1BE6  
                                          l6243 1BB0                                            l6235 1B70  
                                          l6227 1B3A                                            l6219 1B02  
                                          l6171 193A                                            l6163 190C  
                                          l6155 18E6                                            l6147 18BE  
                                          l6139 1882                                            l6091 154C  
                                          l6083 1510                                            l6067 1478  
                                          l6075 14D6                                            l6059 1454  
                                          l6315 3C0C                                            l6307 3BB6  
                                          l6331 1C7E                                            l6323 1C34  
                                          l4709 44E0                                            l4821 40E2  
                                          l4813 40A8                                            l4717 467C  
                                          l4493 4728                                            l4661 460A  
                                          l4653 45FC                                            l4645 45F0  
                                          l4629 4800                                            l4637 43B8  
                                          l6261 359C                                            l5621 2E2E  
                                          l5613 2DD8                                            l5605 2D74  
                                          l5533 2B98                                            l5541 2BC2  
                                          l5525 2B72                                            l5517 2B52  
                                          l5509 2B20                                            l5701 2856  
                                          l5381 261E                                            l5373 25DA  
                                          l5357 2586                                            l5349 255E  
                                          l5365 25A4                                            l5293 23B6  
                                          l5277 234C                                            l5269 233C  
                                          l5285 235C                                            l5445 3B32  
                                          l5437 3B08                                            l5189 436E  
                                          l5197 45B8                                            l5453 41B6  
                                          l5461 418C                                            l6253 1BEC  
                                          l6245 1BC2                                            l6237 1B76  
                                          l6229 1B4C                                            l6157 18F2  
                                          l6149 18CC                                            l6165 1912  
                                          l6173 1940                                            l6181 19D8  
                                          l6093 155E                                            l6085 1514  
                                          l6077 14DE                                            l6069 1494  
                                          l6317 3C36                                            l6309 3BC4  
                                          l6421 21B8                                            l6405 20F6  
                                          l6341 1D14                                            l6333 1C86  
                                          l6325 1C42                                            l4495 469A  
                                          l4815 40B8                                            l4719 4686  
                                          l4671 43F4                                            l4663 460C  
                                          l4655 4600                                            l4647 45F2  
                                          l4639 43D0                                            l4751 47AA  
                                          l6271 35FE                                            l6263 35A0  
                                          l5631 2E8C                                            l5623 2E44  
                                          l5615 2DE6                                            l5607 2DA2  
                                          l5551 2C04                                            l5543 2BD2  
                                          l5535 2BA8                                            l5527 2B78  
                                          l5519 2B54                                            l5711 28AC  
                                          l5703 2866                                            l5391 269A  
                                          l5383 2658                                            l5359 258E  
                                          l5367 25B2                                            l5295 23CC  
                                          l5287 2360                                            l5279 2350  
                                          l5439 3B14                                            l5471 3236  
                                          l5199 45D0                                            l5455 41C6  
                                          l5463 419E                                            l6247 1BCE  
                                          l6239 1B7C                                            l6191 1A42  
                                          l6183 19F6                                            l6175 1998  
                                          l6167 1924                                            l6159 1902  
                                          l6087 1526                                            l6095 1566  
                                          l6079 14F0                                            l6407 2108  
                                          l6415 2170                                            l6351 1DA2  
                                          l6343 1D22                                            l6335 1C94  
                                          l6327 1C54                                            l6431 21E2  
                                          l4497 46B2                                            l4817 40CC  
                                          l4809 4084                                            l4489 4712  
                                          l4681 4466                                            l4761 442C  
                                          l4673 4400                                            l4665 460E  
                                          l4657 4604                                            l4649 45F4  
                                          l4753 47AE                                            l6281 362A  
                                          l6265 35A4                                            l5801 3D88  
                                          l5633 2E92                                            l5625 2E5E  
                                          l5617 2E10                                            l5545 2BE8  
                                          l5537 2BB8                                            l5529 2B86  
                                          l5721 2950                                            l5713 28C8  
                                          l5705 2872                                            l5393 269E  
                                          l5377 2604                                            l5385 265A  
                                          l5369 25B6                                            l5297 23D8  
                                          l5289 238A                                            l5449 3B76  
                                          l5481 3306                                            l5473 324A  
                                          l5457 4156                                            l6249 1BD6  
                                          l6193 1A46                                            l6185 1A12  
                                          l6177 19CC                                            l6169 1936  
                                          l6097 156E                                            l6089 1534  
                                          l6433 2208                                            l6417 2196  
                                          l6425 21C6                                            l6409 213C  
                                          l6361 1E3C                                            l6353 1DB2  
                                          l6337 1CBA                                            l6329 1C58  
                                          l6441 40FA                                            l4499 46BC  
                                          l4819 40DC                                            l4683 47B8  
                                          l4691 4666                                            l4763 4438  
                                          l4675 440C                                            l4667 43D4  
                                          l4659 4608                                            l4755 47B2  
                                          l4747 47A2                                            l6291 36D8  
                                          l6283 3660                                            l6275 3604  
                                          l6267 35C2                                            l6259 3588  
                                          l5811 3DBC                                            l5803 3D96  
                                          l5635 2E94                                            l5627 2E7A  
                                          l5619 2E14                                            l5571 2C86  
                                          l5563 2C3C                                            l5547 2BF8  
                                          l5555 2C18                                            l5539 2BBA  
                                          l5731 29A6                                            l5723 295E  
                                          l5715 28D4                                            l5707 2882  
                                          l5651 2708                                            l5643 26DC  
                                          l5395 26AC                                            l5387 266A  
                                          l5379 2610                                            l5299 23DC  
                                          l5491 33C2                                            l5475 3258  
                                          l5483 333A                                            l5467 31BE  
                                          l6195 1A56                                            l6187 1A24  
                                          l6179 19D4                                            l6099 157E  
                                          l6427 21D4                                            l6419 21A4  
                                          l6363 1E54                                            l6371 1EBE  
                                          l6355 1DE6                                            l6347 1D6C  
                                          l6339 1CF4                                            l6443 4108  
                                          l6451 422E                                            l4781 44AC  
                                          l4773 448C                                            l4693 473A  
                                          l4677 4452                                            l4685 4642  
                                          l4765 443C                                            l4757 4414  
                                          l4669 43E8                                            l4749 47A6  
                                          l6293 36EA                                            l6277 361A  
                                          l6269 35FA                                            l5813 3DC2  
                                          l5805 3D9C                                            l5629 2E7E  
                                          l5581 2CCC                                            l5573 2C8E  
                                          l5565 2C56                                            l5557 2C28  
                                          l5549 2C00                                            l5733 29B4  
                                          l5725 297C                                            l5717 28F0  
                                          l5709 289C                                            l5661 2744  
                                          l5653 2718                                            l5645 26E8  
                                          l5901 455E                                            l5397 26B2  
                                          l5389 267A                                            l5485 3376  
                                          l5469 31DE                                            l6197 1A68  
                                          l6189 1A32                                            l6381 1FA4  
                                          l6373 1EEC                                            l6365 1E62  
                                          l6357 1DF6                                            l6349 1D7E  
                                          l6445 412E                                            l6461 46CE  
                                          l6453 4236                                            l4791 400E  
                                          l4783 44B2                                            l4775 4494  
                                          l4695 4744                                            l4679 4456  
                                          l4687 4646                                            l4767 4442  
                                          l4759 4426                                            l5495 4570  
                                          l6295 36FC                                            l6287 3698  
                                          l6279 3622                                            l5807 3DB2  
                                          l5815 3DC8                                            l5831 3ECA  
                                          l5823 3EAC                                            l5591 2D24  
                                          l5583 2CEA                                            l5575 2C9E  
                                          l5567 2C66                                            l5559 2C28  
                                          l5743 2A1E                                            l5751 2A66  
                                          l5735 29B8                                            l5727 2986  
                                          l5719 291A                                            l5671 277A  
                                          l5663 274A                                            l5655 2728  
                                          l5647 26F6                                            l5399 26B4  
                                          l5911 38A2                                            l5487 338A  
                                          l5479 32CA                                            l6199 1A70  
                                          l6391 2014                                            l6367 1E92  
                                          l6359 1E2A                                            l6439 40F2  
                                          l6455 4254                                            l6447 4214  
                                          l6471 3734                                            l4793 4040  
                                          l4785 44B8                                            l4777 4496  
                                          l4697 4774                                            l4769 4446  
                                          l6537 364A                                            l5817 3DD8  
                                          l5809 3DBA                                            l5841 3F02  
                                          l5833 3ED8                                            l5825 3EB0  
                                          l5593 2D2A                                            l5585 2CEC  
                                          l5577 2CB2                                            l5569 2C76  
                                          l5761 2ADA                                            l5753 2A80  
                                          l5745 2A2A                                            l5737 29C6  
                                          l5729 2994                                            l5673 278A  
                                          l5665 2758                                            l5657 272E  
                                          l5649 26F8                                            l5921 38F0  
                                          l5913 38CC                                            l5905 3878  
                                          l5489 33B2                                            l6393 2022  
                                          l6377 1F5E                                            l6449 4226  
                                          l6481 37D6                                            l6473 3740  
                                          l6465 3722                                            l4795 4042  
                                          l4787 44BE                                            l4779 44A6  
                                          l4699 4778                                            l5499 46EC  
                                          l5819 3DE0                                            l5843 3F10  
                                          l5851 3F3A                                            l5835 3EE0  
                                          l5827 3EBE                                            l5595 2D34  
                                          l5587 2CFC                                            l5579 2CC0  
                                          l5763 2AE8                                            l5755 2A94  
                                          l5747 2A38                                            l5739 29F4  
                                          l5691 280C                                            l5683 27D4  
                                          l5675 2790                                            l5667 275A  
                                          l5659 273E                                            l5931 391C  
                                          l5915 38CE                                            l5907 388E  
                                          l6379 1F70                                            l6387 1FE8  
                                          l6459 46C4                                            l6491 382A  
                                          l6483 37E2                                            l6475 375A  
                                          l6467 372A                                            l4789 4006  
                                          l5781 3D2A                                            l5853 3F4A  
                                          l5845 3F26                                            l5837 3EF2  
                                          l5829 3EC6                                            l5597 2D42  
                                          l5589 2D0E                                            l5861 3F8A  
                                          l5765 2AEA                                            l5757 2AAE  
                                          l5749 2A62                                            l5693 2824  
                                          l5685 27E0                                            l5677 27B0  
                                          l5669 276A                                            l5773 430A  
                                          l5941 394C                                            l5917 38DE  
                                          l6389 1FFC                                            l6493 3838  
                                          l6485 3808                                            l6477 3760  
                                          l6469 372C                                            l4991 3450  
                                          l4983 33D6                                            l5951 4272  
                                          l5791 3D5A                                            l5783 3D38  
                                          l5855 3F52                                            l5847 3F2E  
                                          l5839 3EFA                                            l5599 2D54  
                                          l5871 4002                                            l5863 3F9A  
                                          l5759 2ACA                                            l5767 2AF0  
                                          l5695 2830                                            l5687 27EA  
                                          l5679 27C0                                            l5775 431A  
                                          l5943 395C                                            l5927 3908  
                                          l5919 38E2                                            l6399 2056  
                                          l6495 3856                                            l6487 3814  
                                          l6479 376C                                            l4985 33E6  
                                          l5953 4286                                            l5793 3D5E  
                                          l5785 3D40                                            l5849 3F34  
                                          l5865 3FC8                                            l5881 39EA  
                                          l5769 2AF4                                            l5697 283C  
                                          l5689 2800                                            l5945 396C  
                                          l5937 3930                                            l5929 3912  
                                          l5961 105C                                            l6489 3820  
                                          l4995 3464                                            l4987 33F4  
                                          l5955 42B4                                            l5795 3D66  
                                          l5787 3D44                                            l5779 3D26  
                                          l5867 3FD8                                            l5859 3F5C  
                                          l5891 3A78                                            l5883 39FA  
                                          l5875 397E                                            l5699 284A  
                                          l5939 393C                                            l5971 10B0  
                                          l5963 1066                                            l4997 346C  
                                          l4989 343A                                            l5957 42B8  
                                          l5949 426E                                            l5797 3D78  
                                          l5789 3D52                                            l5869 3FFC  
                                          l5893 3A7E                                            l5885 3A08  
                                          l5877 39AC                                            l5981 10F4  
                                          l5973 10BA                                            l5965 1076  
                                          l4999 3478                                            l5799 3D80  
                                          l5887 3A1A                                            l5879 39BC  
                                          l5983 1100                                            l5991 1116  
                                          l5975 10C2                                            l5967 1084  
                                          l5889 3A28                                            l5897 4538  
                                          l5993 113C                                            l5985 1108  
                                          l5977 10D4                                            l5969 108C  
                                          l5899 454E                                            l5987 110C  
                                          l5979 10E2                                            l5997 1172  
                                          l5989 1110                                            l5999 1184  
                                          STR_1 1022                                            STR_2 1031  
                                          STR_3 103B                                            STR_4 1057  
                                          STR_5 1001                                            STR_6 1012  
                                          STR_7 1041                                            STR_8 1049  
                                          _LATA 000F89                                            _LATB 000F8A  
                                          _LATC 000F8B                                            _LATD 000F8C  
                                          _LATE 000F8D                                            u5030 4728  
                                          u5031 4724                                            u5040 4736  
                                          u6000 23CC                                            u5041 4732  
                                          u6001 23C8                                            u6010 23EA  
                                          u6011 23E6                                            u5300 4666  
                                          u6100 253A                                            u6020 240A  
                                          u5301 4662                                            u6101 2536  
                                          u6021 2406                                            u6110 254A  
                                          u6030 2418                                            u5055 46BA  
                                          u6111 2546                                            u6031 2414  
                                          u5056 46BC                                            u5400 40A4  
                                          u5320 4754                                            u7000 3D96  
                                          u6200 261E                                            u6120 2576  
                                          u6040 2428                                            u5401 40A0  
                                          u5321 4750                                            u7001 3D92  
                                          u6201 261A                                            u6121 2572  
                                          u6041 2424                                            u5410 40B8  
                                          u5330 4788                                            u5250 4466  
                                          u7010 3DB2                                            u6210 2658  
                                          u6130 2586                                            u6050 245A  
                                          u5411 40B4                                            u5315 4742  
                                          u5331 4784                                            u5251 4462  
                                          u7011 3DAE                                            u6211 2654  
                                          u6131 2582                                            u6051 2456  
                                          u5316 4744                                            u5260 4476  
                                          u7020 3DD8                                            u7100 3FC8  
                                          u6220 266A                                            u6140 25A2  
                                          u6060 2468                                            u6300 3E7E  
                                          u5261 4472                                            u7021 3DD4  
                                          u7101 3FC4                                            u6221 2666  
                                          u6141 259E                                            u6061 2464  
                                          u6301 3E7A                                            u5270 448A  
                                          u7030 3EBE                                            u7110 3FFC  
                                          u6230 267A                                            u6150 25B2  
                                          u6070 2486                                            u6310 3AC2  
                                          u5271 4486                                            u7031 3EBA  
                                          u7111 3FF8                                            u6231 2676  
                                          u6151 25AE                                            u6071 2482  
                                          u5360 403C                                            u5280 47C8  
                                          u5600 3450                                            u7040 3ED8  
                                          u7120 39AC                                            u6240 269A  
                                          u6160 25C4                                            u6080 24BE  
                                          u7200 38F0                                            u6320 3AE0  
                                          u6400 4186                                            u8000 1EEC  
                                          u5281 47C4                                            u5601 344C  
                                          u7041 3ED4                                            u7121 39A8  
                                          u6241 2696                                            u6161 25C0  
                                          u6081 24BA                                            u7201 38EC  
                                          u6321 3ADC                                            u6401 4180  
                                          u8001 1EE8                                            u5370 4070  
                                          u5290 4654                                            u5610 34A6  
                                          u7050 3EF2                                            u7130 39EA  
                                          u6250 26AC                                            u6170 25DA  
                                          u6090 2504                                            u7210 3904  
                                          u6330 3B08                                            u6410 4188  
                                          u8010 1F56                                            u5291 4650  
                                          u5611 34A2                                            u7051 3EEE  
                                          u7131 39E6                                            u6251 26A8  
                                          u6171 25D6                                            u6091 2500  
                                          u7211 3900                                            u6331 3B04  
                                          u6315 3AB8                                            u8011 1F50  
                                          u5380 4080                                            u5620 34F0  
                                          u7060 3F10                                            u7140 3A08  
                                          u6260 26C8                                            u6180 25F0  
                                          u7220 392C                                            u6340 3B32  
                                          u6500 335A                                            u6420 419E  
                                          u7300 10F4                                            u8020 1F58  
                                          u8100 414C                                            u5381 407C  
                                          u5621 34EC                                            u7061 3F0C  
                                          u7141 3A04                                            u6261 26C4  
                                          u6181 25EC                                            u7221 3928  
                                          u6341 3B2E                                            u6421 419A  
                                          u7301 10F0                                            u8101 4148  
                                          u5390 4094                                            u5630 350E  
                                          u7070 3F26                                            u7150 3A28  
                                          u6190 2604                                            u7230 394C  
                                          u6510 3376                                            u6430 3208  
                                          u6270 3DF8                                            u7310 113C  
                                          u8030 1F70                                            u5391 4090  
                                          u5367 4032                                            u5631 350A  
                                          u7071 3F22                                            u7151 3A24  
                                          u6191 2600                                            u7231 3948  
                                          u6511 3372                                            u6271 3DF4  
                                          u7311 1138                                            u8031 1F6C  
                                          u5640 351E                                            u7080 3F4A  
                                          u6600 2BA8                                            u7160 3A78  
                                          u7240 395C                                            u6360 3B6C  
                                          u6520 33B2                                            u6440 3236  
                                          u5800 3C6E                                            u6280 3E1A  
                                          u7400 1370                                            u7320 116C  
                                          u8040 1FFC                                            u5377 4066  
                                          u5641 351A                                            u7081 3F46  
                                          u6601 2BA4                                            u7161 3A74  
                                          u7241 3958                                            u6361 3B66  
                                          u6521 33AE                                            u6505 3350  
                                          u6441 3232                                            u5801 3C6A  
                                          u6281 3E16                                            u7401 136C  
                                          u7321 1166                                            u8041 1FF8  
                                          u5650 352C                                            u6530 45A0  
                                          u7250 4286                                            u6610 2BE8  
                                          u7090 3F8A                                            u7170 454E  
                                          u6370 3B6E                                            u6450 3258  
                                          u5810 3C80                                            u6290 3E70  
                                          u7410 13E2                                            u7330 116E  
                                          u8050 2084                                            u5651 3528  
                                          u6531 459A                                            u7251 4282  
                                          u6611 2BE4                                            u7091 3F86  
                                          u7171 454A                                            u6355 3B44  
                                          u6451 3254                                            u6435 31FE  
                                          u5811 3C7C                                            u6291 3E6C  
                                          u7411 13DE                                            u8051 2080  
                                          u5660 3566                                            u5580 33E6  
                                          u6540 45A2                                            u7260 42B4  
                                          u6700 2D74                                            u6620 2C28  
                                          u5900 2258                                            u7180 388E  
                                          u5820 3CA8                                            u6380 4200  
                                          u7500 1502                                            u7420 1408  
                                          u7340 1184                                            u8060 20EE  
                                          u5661 3562                                            u5581 33E2  
                                          u7261 42B0                                            u6701 2D70  
                                          u6621 2C24                                            u5901 2254  
                                          u7181 388A                                            u5821 3CA4  
                                          u7501 14FE                                            u7421 1404  
                                          u7341 1180                                            u8061 20E8  
                                          u8117 374C                                            u5670 3574  
                                          u5590 33F4                                            u6710 2DA2  
                                          u6630 2C9E                                            u6550 2B20  
                                          u5910 229A                                            u7190 38C2  
                                          u6470 32C6                                            u5830 3CDE  
                                          u6390 4212                                            u7510 1510  
                                          u7430 141A                                            u7350 1210  
                                          u7270 1084                                            u8070 20F0  
                                          u5671 3570                                            u5591 33F0  
                                          u6711 2D9E                                            u6631 2C9A  
                                          u6551 2B1C                                            u5911 2296  
                                          u6471 32C2                                            u5831 3CDA  
                                          u6391 420E                                            u7511 150C  
                                          u7431 1416                                            u7351 120C  
                                          u7271 1080                                            u8127 3862  
                                          u6720 2DB8                                            u6640 2CC0  
                                          u6560 2B32                                            u6800 2718  
                                          u5920 22B0                                            u6480 32EA  
                                          u5840 4392                                            u7600 186E  
                                          u7520 1526                                            u7440 143C  
                                          u7360 1240                                            u7280 10D4  
                                          u8080 2108                                            u8137 449C  
                                          u6721 2DB4                                            u6641 2CBC  
                                          u6561 2B2E                                            u6801 2714  
                                          u5921 22AC                                            u6465 326C  
                                          u5841 438E                                            u7601 186A  
                                          u7521 1522                                            u7441 1438  
                                          u7361 123A                                            u7281 10D0  
                                          u8081 2104                                            u6730 2DCC  
                                          u6650 2CEA                                            u6570 2B42  
                                          u6810 2758                                            u5930 22C2  
                                          u6490 3306                                            u6466 3276  
                                          u5850 45D0                                            u7610 1882  
                                          u7530 1534                                            u7450 1462  
                                          u7370 1242                                            u7290 10E2  
                                          u8090 2196                                            u8147 4674  
                                          u6731 2DC8                                            u6651 2CE6  
                                          u6571 2B3E                                            u6811 2754  
                                          u5931 22BE                                            u7195 38B8  
                                          u6491 3302                                            u6467 3286  
                                          u5851 45CC                                            u6387 41F6  
                                          u7611 187E                                            u7531 1530  
                                          u7451 145E                                            u7291 10DE  
                                          u8091 2192                                            u6740 2DE6  
                                          u6660 2D0E                                            u6580 2B86  
                                          u6900 29F4                                            u6820 276A  
                                          u5940 22D2                                            u5860 4530  
                                          u7700 1A32                                            u7620 1894  
                                          u7540 155E                                            u7460 1478  
                                          u7380 1258                                            u8157 40E8  
                                          u6741 2DE2                                            u6661 2D0A  
                                          u6581 2B82                                            u6901 29F0  
                                          u6821 2766                                            u5941 22CE  
                                          u6485 32E0                                            u5861 452A  
                                          u7701 1A2E                                            u7621 1890  
                                          u7541 155A                                            u7461 1474  
                                          u7381 1254                                            u6750 2E2E  
                                          u6670 2D24                                            u6590 2B98  
                                          u6910 2A0A                                            u6830 277A  
                                          u5950 230E                                            u5790 479C  
                                          u5870 4532                                            u7710 1A68  
                                          u7630 18A2                                            u7550 16A6  
                                          u7470 1494                                            u7390 12DC  
                                          u8167 44CE                                            u6751 2E2A  
                                          u6671 2D20                                            u6591 2B94  
                                          u6911 2A06                                            u6831 2776  
                                          u5951 230A                                            u5791 4798  
                                          u7711 1A64                                            u7631 189E  
                                          u7551 16A2                                            u7471 1490  
                                          u7391 12D8                                            u7800 35FA  
                                          u6760 2E5E                                            u6680 2D42  
                                          u6920 2A1E                                            u6840 27B0  
                                          u5960 231C                                            u5880 2236  
                                          u7720 1A96                                            u7640 18BE  
                                          u7560 170C                                            u7480 14CA  
                                          u8177 44EC                                            u7801 35F6  
                                          u6761 2E5A                                            u6681 2D3E  
                                          u6921 2A1A                                            u6841 27AC  
                                          u5961 2318                                            u5881 2232  
                                          u7721 1A92                                            u7641 18BA  
                                          u7561 1708                                            u7481 14C6  
                                          u7810 3616                                            u6770 2E8C  
                                          u6690 2D62                                            u6930 2A38  
                                          u6850 27C0                                            u5970 238A  
                                          u5890 2248                                            u7730 1B1A  
                                          u7650 18CC                                            u7570 1754  
                                          u7490 14F0                                            u7811 3612  
                                          u6771 2E88                                            u6691 2D5E  
                                          u6931 2A34                                            u6851 27BC  
                                          u5971 2386                                            u5891 2244  
                                          u7731 1B16                                            u7651 18C8  
                                          u7571 1750                                            u7491 14EC  
                                          u7820 36D2                                            u6940 2A80  
                                          u6860 293A                                            u6780 26F6  
                                          u5980 23A2                                            u7740 1B34  
                                          u7660 1924                                            u7580 1764  
                                          u7900 3C36                                            u7821 36CC  
                                          u6941 2A7C                                            u6781 26F2  
                                          u5981 239C                                            u7741 1B30  
                                          u7661 1920                                            u7581 1760  
                                          u7901 3C32                                            u7830 36D4  
                                          u6950 2AAE                                            u6870 2994  
                                          u6790 2708                                            u5990 23A4  
                                          u7750 1B4C                                            u7670 19F6  
                                          u7590 17CC                                            u7910 1C34  
                                          u6951 2AAA                                            u6871 2990  
                                          u6791 2704                                            u7751 1B48  
                                          u7671 19F2                                            u7591 17C8  
                                          u7911 1C30                                            u7840 36EA  
                                          u6960 2AE8                                            u6880 29B4  
                                          u7760 1BAA                                            u7680 1A12  
                                          u7920 1C7E                                            u7841 36E6  
                                          u6961 2AE4                                            u6881 29B0  
                                          u6865 2930                                            u7761 1BA4  
                                          u7681 1A0E                                            u7921 1C7A  
                                          u7850 36FC                                            u6970 3D38  
                                          u6890 29C6                                            u7770 1BAC  
                                          u7690 1A24                                            u7930 1CBA  
                                          u7851 36F8                                            u6971 3D34  
                                          u6891 29C2                                            u7691 1A20  
                                          u7931 1CB6                                            u6980 3D52  
                                          u7780 1BC2                                            u7860 3BAA  
                                          u7940 1D64                                            u6981 3D4E  
                                          u7781 1BBE                                            u7861 3BA6  
                                          u7941 1D5E                                            u7790 35C2  
                                          u6990 3D78                                            u7870 3BDC  
                                          u7950 1D66                                            u7791 35BE  
                                          u6991 3D74                                            u7871 3BD8  
                                          u7880 3BFA                                            u7960 1D7E  
                                          u7881 3BF6                                            u7961 1D7A  
                                          u7890 3C0C                                            u7970 1DB2  
                                          u7891 3C08                                            u7971 1DAE  
                                          u7980 1DF6                                            u7981 1DF2  
                                          u7990 1E3C                                            u7991 1E38  
                                 ?_Read_MCP3221 000A                                            _WPUB 000F61  
                                 _EUSART1_Write 478C                                            _dbuf 0108  
                                          _atoi 3588                                            _main 3722  
                                          _prec 00EF                                            _nout 00EB  
                                          pad@i 0021                                            pad@p 001E  
                                          fsr0h 000FEA                                            fsr1h 000FE2  
                                          indf0 000FEF                                            fsr2h 000FDA  
                                          fsr0l 000FE9                                            indf2 000FDF  
                                          fsr1l 000FE1                                            pad@w 0023  
                                          fsr2l 000FD9                                            btemp 0058  
                                 __CFG_BORV$190 000000                                   ___fpclassifyf 3A82  
                            __size_of_LCDPutCmd 003A                                            prodh 000FF4  
                                          prodl 000FF3                                            start 0074  
                            __size_of_LCDPutStr 007C                                   __CFG_IESO$OFF 000000  
                               ___fldiv@new_exp 0040                                    _tolower$2374 0014  
                        __end_of_LCD_Initialize 44C6                                    ___param_bank 000000  
                                         ??_pad 0020                                      _i2c1_state 0055  
                                   LCDPutCmd@ch 000B                  __size_of_OSCILLATOR_Initialize 000E  
                 __end_of_OSCILLATOR_Initialize 47D8                                   ___fltol@sign1 0010  
                                         ?_atoi 000F                                 __end_of___fladd 26DC  
                                         ?_main 0001                                 __end_of___fldiv 2EA0  
                               __end_of___awdiv 3DEA                               __end_of_I2C1_Stop 430A  
                               __end_of___flneg 4570                                           STR_11 1045  
                                         STR_20 1054                                           STR_12 104D  
                                         STR_22 1054                                           STR_15 1051  
                                         STR_17 1051                                 __end_of___awmod 3F5C  
                               __end_of___flmul 2B06                                 __end_of___flsub 4350  
                               __end_of___fltol 397E                                 ___awdiv@divisor 000A  
                                __CFG_DEBUG$OFF 000000                                           i2l301 2FB8  
                                         i2l221 0044                                           i2l302 2FD4  
                                         i2l222 0068                                           i2l320 30E4  
                                         i2l312 3060                                           i2l306 3046  
                                         i2l226 0068                                           i2l324 3126  
                                         i2l316 30AA                                           i2l333 4772  
                                         i2l319 30C6                                           i2l337 4308  
                                         i2l290 2EE4                                           i2l380 4806  
                                         i2l293 2F60                                           i2l295 2F6A  
                                         i2l296 2F70                                           i2l288 31BC  
                               ___awdiv@counter 000C                                    vfpfcnvrt@fmt 00B6  
                                         _PORTB 000F81                                           _TRISA 000F92  
                                         _TRISB 000F93                                           _TRISC 000F94  
                                         _TRISD 000F95                                           _TRISE 000F96  
                  __end_of_I2C1_BusCollisionISR 4808                                   __CFG_WRT0$OFF 000000  
                                 __CFG_WRT1$OFF 000000                                   __CFG_WRT2$OFF 000000  
                                 __CFG_WRT3$OFF 000000                                  __CFG_EBTR0$OFF 000000  
                                __CFG_FCMEN$OFF 000000                                  __CFG_EBTR1$OFF 000000  
                                __CFG_EBTR2$OFF 000000                                  __CFG_EBTR3$OFF 000000  
                             ??_I2C1_Initialize 0008                                   __CFG_WRTB$OFF 000000  
                                 __CFG_WRTC$OFF 000000                                   __CFG_WRTD$OFF 000000  
                                _i2c_master_ack 4738                                  __CFG_EBTRB$OFF 000000  
                                         _flags 0050                                           _fputc 3C5C  
                                         _fputs 4350                                 __end_of_isdigit 45A8  
                            __CFG_MCLRE$EXTMCLR 000000                                           atoi@n 001C  
                                         pad@fp 001A                                           atoi@s 000F  
                                         _width 00ED                                           _putch 47D8  
                                ??_Read_MCP3221 000C                                 __end_of_isspace 42C0  
                                ?_EUSART1_Write 0001                                 __end_of_isupper 4538  
                                         tablat 000FF5                             __size_of_LCDPutChar 002C  
                                         ttemp5 0059                                           ttemp6 005C  
                                         ttemp7 0060                                           status 000FD8  
                                         wtemp8 0059                                 __end_of_sprintf 426E  
                                ?___fpclassifyf 0008                                 __end_of_tolower 41B6  
                                __CFG_HFOFST$ON 000000                                 __end_of_strncmp 3C5C  
            _EUSART1_DefaultFramingErrorHandler 000000                                 ?_LCD_Initialize 0001  
                               __initialization 4612                                    __end_of_atoi 3722  
                    __end_of_EUSART1_Initialize 4414                                    __end_of_main 3878  
                              __end_of_i2c_idle 4738                                __end_of_i2c_read 478C  
                              __end_of_i2c_stop 47CA                     ?_INTERRUPT_InterruptManager 0001  
                                   _i2c1_object 00DC                                          ??_atoi 0011  
                                        ??_main 00DA                                   __activetblptr 000003  
                                     ??_LCDGoto 000D                               __end_of_LCDPutCmd 4500  
                                  LCDPutChar@ch 000B                          __end_of_i2c_master_ack 4756  
                             __end_of_LCDPutStr 4082                                          ?_fputc 000A  
                                        ?_fputs 0013                                ___awdiv@dividend 0008  
                                        _ANSELA 000F38                                          ?_putch 0001  
                                        _ANSELB 000F39                                          _ANSELC 000F3A  
                                        _ANSELD 000F3B                                          _ANSELE 000F3C  
                                __CFG_WDTEN$OFF 000000                                          i2l5061 0012  
                                        i2l5071 0060                                          i2l5063 0020  
                                        i2l5065 002E                                          i2l5067 003C  
                                        i2l5069 0052                                          i2l4731 4756  
                                        i2l4723 42C2                                          i2l2965 4804  
                                        i2l4733 4760                                          i2l4725 42C4  
                                        i2l4735 4766                                          i2l4727 42E4  
                                        i2l4911 3074                                          i2l4903 3058  
                                        i2l4831 2EB0                                          i2l4737 476E  
                                        i2l4729 4304                                          i2l4913 307E  
                                        i2l4841 2EF4                                          i2l4833 2EB2  
                                        i2l4931 30DE                                          i2l4915 3090  
                                        i2l4923 30B0                                          i2l4907 306E  
                                        i2l4851 2F3C                                          i2l4843 2EFC  
                                        i2l4835 2EB6                                          i2l4941 3104  
                                        i2l4933 30E6                                          i2l4925 30BC  
                                        i2l4917 309A                                          i2l4909 3072  
                                        i2l4861 2F7E                                          i2l4853 2F44  
                                        i2l4845 2F08                                          i2l4837 2ED8  
                                        i2l4829 2EA0                                          i2l4951 312C  
                                        i2l4943 310A                                          i2l4935 30EE  
                                        i2l4927 30D4                                          i2l4919 30A0  
                                        i2l4871 2FB0                                          i2l4863 2F82  
                                        i2l4855 2F5E                                          i2l4847 2F1C  
                                        i2l4953 3132                                          i2l4945 311C  
                                        i2l4937 30F2                                          i2l4929 30D8  
                                        i2l4881 2FF8                                          i2l4873 2FC6  
                                        i2l4865 2F8C                                          i2l4857 2F62  
                                        i2l4849 2F24                                          i2l4961 314A  
                                        i2l6539 315E                                          i2l4955 313C  
                                        i2l4947 311E                                          i2l4939 30F8  
                                        i2l4891 3036                                          i2l4875 2FCA  
                                        i2l4867 2F9A                                          i2l4957 3140  
                                        i2l4949 3128                                          i2l4885 3000  
                                        i2l4877 2FD6                                          i2l4869 2FA8  
                                        i2l4887 3010                                          i2l4879 2FF6  
                                        i2l4889 3020                                          _RCREG1 000FAE  
                                        _RCSTA1 000FAB                                          _OSCCON 000FD3  
                                        _SPBRG1 000FAF                                    LCDPutStr@str 000C  
                            __size_of_i2c_start 003C                                          _TXREG1 000FAD  
                              __end_of___xxtofl 3588                              __size_of_i2c_write 002C  
                                        _TXSTA1 000FAC                                  _LCDWriteNibble 4698  
                                        _Buffer 0158                                  __CFG_XINST$OFF 000000  
                                  vfprintf@cfmt 00CE                                  _p_i2c1_current 00F3  
                                        ___flge 397E                                          ___fleq 3F5C  
                                     ??___fladd 0010                                          ___wmul 46EC  
                                     ??___fldiv 0037                                       ??___awdiv 000C  
                                     ??___flneg 000C                                  __CFG_STVREN$ON 000000  
                                     ??___awmod 000C                                       ??___flmul 001E  
                                     ??___flsub 0037                                       ??___fltol 000C  
                                        _efgtoa 105C                        ?_EUSART1_SetErrorHandler 0008  
                                        _floorf 31BE                                       ?_I2C1_ISR 0001  
                                        clear_0 4618                                          clear_1 4624  
                                        clear_2 4630                                ___awdiv@quotient 000E  
                               ___awmod@divisor 000A                                 ___awmod@counter 000C  
                                        _printf 46C4                                          pad@buf 001C  
              ??_EUSART1_SetOverrunErrorHandler 000A                 ?_EUSART1_SetOverrunErrorHandler 0008  
                                        _strcpy 41B6                                          _strlen 45A8  
                                        fputc@c 000A                                          fputs@c 0017  
                                        fputs@i 0018                                          fputs@s 0013  
                                     ??_isdigit 000A                             Read_MCP3221@adcdata 000C  
                               ?_i2c_master_ack 0001                                 ___fpclassifyf@e 0010  
                               ___fpclassifyf@u 0012                                 ___fpclassifyf@x 0008  
                                  __mediumconst 0000                                       ??_isspace 000A  
                                        tblptrh 000FF7                                       ??_isupper 000A  
                                        tblptrl 000FF6                                          tblptru 000FF8  
                              __end_of_vfprintf 4156                                 ??_EUSART1_Write 0008  
                                     ??_sprintf 0050                                       ??_tolower 0010  
                                     ??_strncmp 000E                   __size_of_INTERRUPT_Initialize 0004  
                                    ___flge@ff1 002F                                      ___flge@ff2 0033  
                               ??___fpclassifyf 000C                                    ___xxtofl@arg 0012  
                                  ___xxtofl@exp 0011                               _SYSTEM_Initialize 47A2  
                                  ___xxtofl@val 0008                                      ___fleq@ff1 0008  
                                    ___fleq@ff2 000C                          __end_of_LCDWriteNibble 46C4  
                                    __accesstop 0060                         __end_of__initialization 4636  
                               __CFG_PBADEN$OFF 000000                                      ___flneg@f1 0008  
                            ?_SYSTEM_Initialize 0001                                   ___rparam_used 000001  
                                    ___fltol@f1 0008                                       LCDGoto@ln 000C  
                                _i2c1_trb_count 0054                           _I2C1_FunctionComplete 4756  
                          _I2C1_BusCollisionISR 4804                                  __pcstackCOMRAM 0001  
                           ??_SYSTEM_Initialize 000A                                   __end_of_fputc 3D26  
                                  ??_LCDPutChar 000A                                   __end_of_fputs 4394  
                                 __end_of_putch 47E2                            __end_of_Read_MCP3221 4450  
                                    ??_I2C1_ISR 0004                               __end_of_i2c_start 448C  
                             __end_of_i2c_write 466C                                         ??_fputc 000E  
                     __end_of_SYSTEM_Initialize 47B8                                         ??_fputs 0017  
                                       ??_putch 0009                                      __pbssBANK0 00DC  
                                    __pbssBANK1 0100                                       ?_i2c_idle 0001  
                               __CFG_PLLCFG$OFF 000000                                       ?_i2c_read 0001  
                               ?_LCDWriteNibble 0008                                       ?_i2c_stop 0001  
                            __end_of_LCDPutChar 4698                           ?_I2C1_BusCollisionISR 0001  
               __end_of_EUSART1_SetErrorHandler 4800                              __CFG_CCP2MX$PORTC1 000000  
                               _converted_Value 0104                                         ?___flge 002F  
                                       ?___fleq 0008                                         ?___wmul 0008  
                            __CFG_CCP3MX$PORTB5 000000                                         ?_efgtoa 0070  
                               _I2C1_Initialize 45DE                                         ?_floorf 0048  
                                       ?_printf 00D0                                         ?_strcpy 0008  
                                       ?_strlen 0008          __end_of_EUSART1_SetFramingErrorHandler 47F6  
       __size_of_EUSART1_SetFramingErrorHandler 000A                  _EUSART1_SetFramingErrorHandler 47EC  
                                       _LCDGoto 4082                                       ?___xxtofl 0008  
                                       _OSCCON2 000FD2                              __size_of_vfpfcnvrt 060E  
                                     _I2C1_Stop 42C0                                         _OSCTUNE 000F9B  
                                       _SPBRGH1 000FB0                                         _SSP1ADD 000FC8  
                                       _SSP1BUF 000FC9                                      ??_i2c_idle 0008  
                                    ??_i2c_read 0009                                      ??_i2c_stop 0008  
                              ??_LCD_Initialize 000C                                 __CFG_PWRTEN$OFF 000000  
                        ?_I2C1_FunctionComplete 0001                                         __Hparam 0000  
                                       __Lparam 0000                              _p_i2c1_trb_current 00F5  
                               __size_of___flge 0104                                 __size_of___fleq 00AA  
                                       ___fladd 221C                                         ___fldiv 2B06  
                                       ___awdiv 3D26                                         ___flneg 4538  
                                       ___awmod 3EAC                                         ___flmul 26DC  
                                       _Voltage 00E7                                         ___flsub 430A  
                                       ___fltol 3878                                 __size_of___wmul 0026  
                                     ?_vfprintf 00C8                                    __psmallconst 1000  
                               __size_of_efgtoa 0BB2                                 __size_of_floorf 0216  
                                       __pcinit 4612                                         __ramtop 1000  
                                       __ptext0 3722                                         __ptext1 4214  
                                       __ptext2 46C4                                         __ptext3 40F2  
                                       __ptext4 1C0E                                         __ptext5 3B80  
                                       __ptext6 105C                                         __ptext7 4156  
                                       __ptext8 4500                                         __ptext9 41B6  
                               __size_of_printf 0028                                 __size_of_strcpy 005E  
                               __size_of_strlen 0036                           _OSCILLATOR_Initialize 47CA  
                                  __size_of_pad 00C2                                         _isdigit 4570  
                                    ??___xxtofl 000C                                ___awmod@dividend 0008  
                            _EUSART1_Initialize 43D4                        ??_PIN_MANAGER_Initialize 0008  
                                       _isspace 426E                                      ?_I2C1_Stop 0001  
                                       _isupper 4500                                         efgtoa@c 0076  
                                       efgtoa@d 0094                                         efgtoa@e 00AC  
                                       efgtoa@f 0072                                         efgtoa@g 00A8  
                                       efgtoa@h 009E                                         efgtoa@i 00A6  
                                       efgtoa@l 00A2                                         efgtoa@m 0090  
                                       efgtoa@n 00AE                                         efgtoa@p 0098  
                                       efgtoa@t 008C                                         efgtoa@u 00B0  
                                       efgtoa@w 009B                                         atoi@neg 0015  
                                     _LCDPutCmd 44C6                      __size_of_SYSTEM_Initialize 0016  
                                       _sprintf 4214                            I2C1_ISR@pi2c_buf_ptr 00F1  
                                       _tolower 4156                                       _LCDPutStr 4006  
                                       _strncmp 3B80                            end_of_initialization 4636  
                                       floorf@e 006A                                         floorf@m 0066  
                                       floorf@u 006C                                         floorf@x 0048  
                           ?_EUSART1_Initialize 0001                                         fputc@fp 000C  
                   _EUSART1_OverrunErrorHandler 0182                                         fputs@fp 0015  
                        ??_I2C1_BusCollisionISR 0001                         __end_of_I2C1_Initialize 4612  
                         __size_of_Read_MCP3221 003C                               __end_of_vfpfcnvrt 221C  
                                    efgtoa@mode 009D                                      efgtoa@sign 0096  
                                       postdec2 000FDD                                         postinc0 000FEE  
                                       postinc1 000FE6                                         postinc2 000FDE  
                                    ??_vfprintf 0050                            ??_EUSART1_Initialize 000A  
                              ??_i2c_master_ack 0008                                         strcpy@d 0010  
                                       strlen@a 000A                                         strcpy@s 000E  
                                       strlen@s 0008                                       _PORTBbits 000F81  
                             __size_of_I2C1_ISR 031E                                     ___fladd@grs 0017  
                                 ___xxtofl@sign 0010                                     ___fldiv@grs 0042  
                                   ___fldiv@rem 003B                                      ?_LCDPutCmd 0001  
              __size_of_EUSART1_SetErrorHandler 000A                                      ?_LCDPutStr 000C  
                           EUSART1_Write@txData 0008               I2C1_ISR@i2c_10bit_address_restart 0052  
                                  _Read_MCP3221 4414                                     ___flmul@grs 0024  
                                    LCDGoto@pos 0011                    __end_of_INTERRUPT_Initialize 4804  
                                __end_of___flge 3A82                                  __end_of___fleq 4006  
                                   vfpfcnvrt@ap 00B8                                     vfpfcnvrt@ct 00C0  
                                   vfpfcnvrt@fp 00B4                                      LCDPutStr@i 0010  
                                __end_of___wmul 4712                         I2C1_MasterWrite@trBlock 0171  
                                __end_of_efgtoa 1C0E                        I2C1_Stop@completion_code 0003  
                                __end_of_floorf 33D4                          ?_OSCILLATOR_Initialize 0001  
                                    floorf@F524 0100                                  __end_of_printf 46EC  
                                __end_of_strcpy 4214                                  __end_of_strlen 45DE  
                           start_initialization 4612                                     ??_I2C1_Stop 0001  
               __size_of_PIN_MANAGER_Initialize 0040                                ??_LCDWriteNibble 0009  
                                     _i2c_start 4450                                     __end_of_pad 3EAC  
                                     _i2c_write 4640                                     putch@txData 0009  
                         __end_of_EUSART1_Write 47A2                           __end_of___fpclassifyf 3B80  
                             __size_of_i2c_idle 0026                               __size_of_i2c_read 0018  
                             __size_of_i2c_stop 0012                                ?_I2C1_Initialize 0001  
                                   vfprintf@fmt 00CA                                        ??___flge 0037  
                                      ??___fleq 0010                                        ??___wmul 000C  
                                      ??_efgtoa 0077                                        ??_floorf 0060  
                                      ??_printf 0050                              Read_MCP3221@hidata 000E  
                                      ??_strcpy 000C                                        ??_strlen 000A  
                                     ___fladd@a 000C                                       ___fladd@b 0008  
                            Read_MCP3221@lodata 000F                                        ?_LCDGoto 000C  
                                     ___fldiv@a 0033                                       ___fldiv@b 002F  
                                     ___flmul@a 001A                                       ___flmul@b 0016  
                                   __pbssCOMRAM 0050                                       ___flsub@a 0033  
                                     ___flsub@b 002F                                   __pcstackBANK0 0060  
                                 __pcstackBANK1 0176                                      ?_i2c_start 0001  
                                 _i2c1_tr_queue 00FA                                      ?_i2c_write 0001  
                             __size_of___xxtofl 01B4                                     ??_LCDPutCmd 000A  
                                   ??_LCDPutStr 000E                ??_EUSART1_SetFramingErrorHandler 000A  
               ?_EUSART1_SetFramingErrorHandler 0008                         ??_I2C1_FunctionComplete 0001  
                                     _atoi$2253 0017                                       _atoi$2254 001B  
                                     _atoi$2255 0019                                       __pnvBANK1 0180  
                                   _efgtoa$1752 0084                                     _efgtoa$1746 0080  
                                   _efgtoa$1747 0082                                     _efgtoa$1756 0086  
                                   _efgtoa$1757 0088                                     _efgtoa$1758 008A  
                        _PIN_MANAGER_Initialize 4394                                       __pintcode 0008  
                                      ?___fladd 0008                                        ?___fldiv 002F  
                                      ?___awdiv 0008                                        ?___flneg 0008  
                                      ?___awmod 0008                                        ?___flmul 0016  
                                      ?___flsub 002F                                        ?___fltol 0008  
                              LCDWriteNibble@ch 0009                                LCDWriteNibble@rs 0008  
                                      _I2C1_ISR 2EA0                    ??_INTERRUPT_InterruptManager 0006  
                              __CFG_PRICLKEN$ON 000000                               __size_of_vfprintf 0064  
                                   __smallconst 1000                                        _BAUDCON1 000FB8  
            _EUSART1_DefaultOverrunErrorHandler 000000                                        ?_isdigit 0008  
                          _EUSART1_ErrorHandler 0180                                        ?_isspace 0008  
                                      ?_isupper 0008                         _EUSART1_SetErrorHandler 47F6  
                                      ?_sprintf 00D0                                        ?_tolower 000E  
                                __size_of_fputc 00CA                                  __size_of_fputs 0044  
                                      ?_strncmp 0008                                  __size_of_putch 000A  
                          _INTERRUPT_Initialize 4800                          I2C1_MasterRead@trBlock 016C  
                                ___wmul@product 000C         EUSART1_SetErrorHandler@interruptHandler 0008  
                                      _PIE1bits 000F9D                                        _PIE2bits 000FA0  
                                   _LCDGoto$816 000F                          i2c_master_ack@ack_type 0008  
           __size_of_INTERRUPT_InterruptManager 006C                                        _PIR1bits 000F9E  
                                      _PIR2bits 000FA1                                        i2u534_40 42E4  
                                      i2u550_40 3058                                        i2u542_40 2EB0  
                                      i2u534_41 42E0                                        i2u550_41 3054  
                                      i2u542_41 2EAC                                        i2u551_40 306E  
                                      i2u543_40 2EF4                                        i2u551_41 306A  
                                      i2u543_41 2EF0                                        i2u552_40 3090  
                                      i2u544_40 2F3C                                        i2u552_41 308C  
                                      i2u544_41 2F38                                        i2u553_40 30D4  
                                      i2u545_40 2F5E                                        i2u553_41 30D0  
                                      i2u545_41 2F5A                                        i2u554_40 311C  
                                      i2u546_40 2F7E                                        i2u570_40 003C  
                                      i2u554_41 3118                                        i2u546_41 2F7A  
                                      i2u570_41 0038                                        i2u547_40 2FA8  
                                      i2u571_40 0052                                        i2u547_41 2FA4  
                                      i2u571_41 004E                                        i2u548_40 2FC6  
                                      i2u572_40 0060                                        i2u548_41 2FC2  
                                      i2u572_41 005C                                        i2u549_40 3010  
                                      i2u549_41 300C                                        i2u568_40 0020  
                                      i2u568_41 001C                                        i2u569_40 002E  
                                      i2u569_41 002A                                        _RCONbits 000FD0  
                              __CFG_WDTPS$32768 000000                                        _SSP1CON1 000FC6  
                                      _SSP1CON2 000FC5                                        _SSP1CON3 000FCB  
                                      _SSP1STAT 000FC7                                       _vfpfcnvrt 1C0E  
                             ___wmul@multiplier 0008                                __size_of_LCDGoto 0070  
                                   ??_i2c_start 0009                                    _isspace$2284 000E  
                                   ??_i2c_write 0009                                      vfpfcnvrt@c 00C3  
                                    vfpfcnvrt@f 00C4                                     _INTCON2bits 000FF1  
                         ?_INTERRUPT_Initialize 0001                                        _i2c_idle 4712  
                                      _i2c_read 4774                                        _i2c_stop 47B8  
                                      __Hrparam 0000                   __size_of_I2C1_BusCollisionISR 0004  
                                    vfprintf@ap 00CC                                        __Lrparam 0000  
                                    vfprintf@fp 00C8                              __CFG_BOREN$SBORDIS 000000  
                        I2C1_ISR@i2c_bytes_left 0053                               __CFG_P2BMX$PORTD2 000000  
                       ??_OSCILLATOR_Initialize 0008                         __size_of_LCD_Initialize 003A  
                              __size_of___fladd 04C0                                __size_of___fldiv 039A  
                              __size_of___awdiv 00C4                                __size_of___flneg 0038  
                              __size_of___awmod 00B0                                __size_of___flmul 042A  
                              __size_of___flsub 0046                                __size_of___fltol 0106  
                   __size_of_EUSART1_Initialize 0040                                      ?_vfpfcnvrt 00B4  
                            ___fpclassifyf@F463 00E3                       ??_EUSART1_SetErrorHandler 000A  
                   _EUSART1_DefaultErrorHandler 000000                                      sprintf@fmt 00D2  
                                      ___xxtofl 33D4                                __size_of_isdigit 0038  
                           I2C1_ISR@i2c_address 0056                                __size_of_isspace 0052  
                                      __ptext10 3DEA                                        __ptext11 45A8  
                                      __ptext20 221C                                        __ptext12 4350  
                                      __ptext21 4538                                        __ptext13 3C5C  
                                      __ptext30 4570                                        __ptext22 26DC  
                                      __ptext14 47D8                                        __ptext31 46EC  
                                      __ptext23 397E                                        __ptext15 478C  
                                      __ptext40 47EC                                        __ptext32 33D4  
                                      __ptext24 3F5C                                        __ptext16 31BE  
                                      __ptext41 47F6                                        __ptext33 47A2  
                                      __ptext25 2B06                                        __ptext17 3A82  
                                      __ptext50 4006                                        __ptext42 4414  
                                      __ptext34 4394                                        __ptext26 3EAC  
                                      __ptext18 3878                                        __ptext51 466C  
                                      __ptext43 4640                                        __ptext35 47CA  
                                      __ptext27 3D26                                        __ptext19 430A  
                                      __ptext52 4082                                        __ptext44 47B8  
                                      __ptext36 4800                                        __ptext28 3588  
                                      __ptext53 44C6                                        __ptext45 4450  
                                      __ptext37 45DE                                        __ptext29 426E  
                                      __ptext54 4698                                        __ptext46 4774  
                                      __ptext38 43D4                                        __ptext47 4712  
                                      __ptext39 47E2                                        __ptext56 2EA0  
                                      __ptext48 4738                                        __ptext57 42C0  
                                      __ptext49 448C                                        __ptext58 4756  
                                      __ptext59 4804                                __size_of_isupper 0038  
                                  _SSP1CON1bits 000FC6                                    _SSP1CON2bits 000FC5  
                              __size_of_sprintf 005A                                __size_of_tolower 0060  
                                    strcpy@dest 0008                                __size_of_strncmp 00DC  
                                 __size_of_atoi 019A                                   __size_of_main 0156  
                                      efgtoa@fp 0070                                        efgtoa@ne 0092  
                                      efgtoa@pp 008E                                        efgtoa@ou 007C  
EUSART1_SetOverrunErrorHandler@interruptHandler 0008                                        int$flags 0058  
                                      _vfprintf 40F2              __end_of_INTERRUPT_InterruptManager 0074  
                    _INTERRUPT_InterruptManager 0008                                      _LCDPutChar 466C  
                                     printf@fmt 00D0                                    _SSP1STATbits 000FC7  
                   _EUSART1_FramingErrorHandler 0184                                  _vfpfcnvrt$1780 00BE  
                                _vfpfcnvrt$1772 00BA                                  _vfpfcnvrt$1776 00BC  
                                    _INTCONbits 000FF2                                        isdigit@c 0008  
                        ??_INTERRUPT_Initialize 0008                         __size_of_i2c_master_ack 001E  
                                      intlevel2 0000                                       sprintf@ap 0178  
                                      isspace@c 0008                         ?_PIN_MANAGER_Initialize 0001  
                __size_of_I2C1_FunctionComplete 001E          __end_of_EUSART1_SetOverrunErrorHandler 47EC  
       __size_of_EUSART1_SetOverrunErrorHandler 000A                  _EUSART1_SetOverrunErrorHandler 47E2  
                                     strcpy@src 000A                                      _RCSTA1bits 000FAB  
                 __end_of_I2C1_FunctionComplete 4774                                  i2c_start@stype 0009  
                                      isupper@c 0008                                       strncmp@_l 0008  
                                     strncmp@_r 000A                                     efgtoa@nmode 009A  
                                      printf@ap 00D8  EUSART1_SetFramingErrorHandler@interruptHandler 0008  
                                   ??_vfpfcnvrt 004C                        __size_of_I2C1_Initialize 0034  
                        __size_of_EUSART1_Write 0016                              _eusart1RxLastError 00F9  
                                      sprintf@f 017A                                        tolower@c 000E  
                                      sprintf@s 00D0                          __size_of___fpclassifyf 00FE  
                                      strncmp@l 000F                                        strncmp@n 000C  
                                      strncmp@r 0011                               __CFG_T3CMX$PORTC0 000000  
                                   _SSPCON2bits 000FC5                                   ___fladd@signs 0014  
                __end_of_PIN_MANAGER_Initialize 43D4                                 i2c_write@data45 0009  
                                  ___fladd@aexp 0015                                    ___fladd@bexp 0016  
                            __size_of_I2C1_Stop 004A                               __CFG_FOSC$INTIO67 000000  
                       __size_of_LCDWriteNibble 002C  
